LX51 LINKER/LOCATER V4.66.66.0                                                          09/27/2018  18:17:15  PAGE 1


LX51 LINKER/LOCATER V4.66.66.0, INVOKED BY:
C:\KEIL_V5\C51\BIN\LX51.EXE .\Objects\mysys.obj, .\Objects\tasklist.obj, .\Objects\agreement.obj, .\Objects\io.obj, .\Ob
>> jects\delay.obj, .\Objects\uart.obj, .\Objects\uart2.obj, .\Objects\adc.obj, .\Objects\main.obj, .\Objects\TFT_LCD.ob
>> j, .\Objects\DS18B20.obj TO .\Objects\samartAgr PRINT (.\Listings\samartAgr.map)


CPU MODE:     8051 MODE
MEMORY MODEL: LARGE


INPUT MODULES INCLUDED:
  .\Objects\mysys.obj (MYSYS)
         COMMENT TYPE 0: C51 V9.56.0.0
  .\Objects\tasklist.obj (TASKLIST)
         COMMENT TYPE 0: C51 V9.56.0.0
  .\Objects\agreement.obj (AGREEMENT)
         COMMENT TYPE 0: C51 V9.56.0.0
  .\Objects\io.obj (IO)
         COMMENT TYPE 0: C51 V9.56.0.0
  .\Objects\delay.obj (DELAY)
         COMMENT TYPE 0: C51 V9.56.0.0
  .\Objects\uart.obj (UART)
         COMMENT TYPE 0: C51 V9.56.0.0
  .\Objects\uart2.obj (UART2)
         COMMENT TYPE 0: C51 V9.56.0.0
  .\Objects\adc.obj (ADC)
         COMMENT TYPE 0: C51 V9.56.0.0
  .\Objects\main.obj (MAIN)
         COMMENT TYPE 0: C51 V9.56.0.0
  .\Objects\TFT_LCD.obj (TFT_LCD)
         COMMENT TYPE 0: C51 V9.56.0.0
  .\Objects\DS18B20.obj (DS18B20)
         COMMENT TYPE 0: C51 V9.56.0.0
  C:\KEIL_V5\C51\LIB\C51L.LIB (?C_STARTUP)
         COMMENT TYPE 1: A51 / ASM51 Assembler
  C:\KEIL_V5\C51\LIB\C51L.LIB (?C?CLDPTR)
         COMMENT TYPE 1: A51 / ASM51 Assembler
  C:\KEIL_V5\C51\LIB\C51L.LIB (?C?CLDOPTR)
         COMMENT TYPE 1: A51 / ASM51 Assembler
  C:\KEIL_V5\C51\LIB\C51L.LIB (?C?CSTPTR)
         COMMENT TYPE 1: A51 / ASM51 Assembler
  C:\KEIL_V5\C51\LIB\C51L.LIB (?C?CSTOPTR)
         COMMENT TYPE 1: A51 / ASM51 Assembler
  C:\KEIL_V5\C51\LIB\C51L.LIB (?C?UIDIV)
         COMMENT TYPE 1: A51 / ASM51 Assembler
  C:\KEIL_V5\C51\LIB\C51L.LIB (?C?SIDIV)
         COMMENT TYPE 1: A51 / ASM51 Assembler
  C:\KEIL_V5\C51\LIB\C51L.LIB (?C?IILDX)
         COMMENT TYPE 1: A51 / ASM51 Assembler
  C:\KEIL_V5\C51\LIB\C51L.LIB (?C?ILDIX)
         COMMENT TYPE 1: A51 / ASM51 Assembler
  C:\KEIL_V5\C51\LIB\C51L.LIB (?C?LMUL)
         COMMENT TYPE 1: A51 / ASM51 Assembler
  C:\KEIL_V5\C51\LIB\C51L.LIB (?C?ULDIV)
         COMMENT TYPE 1: A51 / ASM51 Assembler
  C:\KEIL_V5\C51\LIB\C51L.LIB (?C?ULCMP)
         COMMENT TYPE 1: A51 / ASM51 Assembler
  C:\KEIL_V5\C51\LIB\C51L.LIB (?C?LSTXDATA)
         COMMENT TYPE 1: A51 / ASM51 Assembler
  C:\KEIL_V5\C51\LIB\C51L.LIB (?C?LSTKXDATA)
         COMMENT TYPE 1: A51 / ASM51 Assembler
  C:\KEIL_V5\C51\LIB\C51L.LIB (?C?OFFXADD)
         COMMENT TYPE 1: A51 / ASM51 Assembler
  C:\KEIL_V5\C51\LIB\C51L.LIB (STRLEN)
         COMMENT TYPE 1: A51 / ASM51 Assembler
  C:\KEIL_V5\C51\LIB\C51L.LIB (?C_INIT)
LX51 LINKER/LOCATER V4.66.66.0                                                        09/27/2018  18:17:15  PAGE 2


         COMMENT TYPE 1: A51 / ASM51 Assembler


ACTIVE MEMORY CLASSES OF MODULE:  .\Objects\samartAgr (MYSYS)

BASE        START       END         USED      MEMORY CLASS
==========================================================
C:000000H   C:000000H   C:00FFFFH   0015B2H   CODE
X:000000H   X:000000H   X:00FFFFH   0001CFH   XDATA
I:000020H.0 I:000020H.0 I:00002FH.7 000000H.3 BIT
C:000000H   C:000000H   C:00FFFFH   001222H   CONST
I:000000H   I:000000H   I:0000FFH   000001H   IDATA
I:000000H   I:000000H   I:00007FH   000010H   DATA


MEMORY MAP OF MODULE:  .\Objects\samartAgr (MYSYS)


START     STOP      LENGTH    ALIGN  RELOC    MEMORY CLASS   SEGMENT NAME
=========================================================================

* * * * * * * * * * *   D A T A   M E M O R Y   * * * * * * * * * * * * *
000000H   000007H   000008H   ---    AT..     DATA           "REG BANK 0"
000008H   00000FH   000008H   ---    AT..     DATA           "REG BANK 1"
000010H.0 00001FH.7 000010H.0 ---    ---      **GAP**
000020H.0 000020H.0 000000H.1 BIT    UNIT     BIT            ?BI?UART
000020H.1 000020H.1 000000H.1 BIT    UNIT     BIT            ?BI?UART2
000020H.2 000020H.2 000000H.1 BIT    UNIT     BIT            ?BI?DS18B20
000020H.3 000020H   000000H.5 ---    ---      **GAP**
000021H   000021H   000001H   BYTE   UNIT     IDATA          ?STACK

* * * * * * * * * * *   C O D E   M E M O R Y   * * * * * * * * * * * * *
000000H   000002H   000003H   ---    OFFS..   CODE           ?CO??C_STARTUP?0
000003H   00000AH   000008H   BYTE   UNIT     CODE           ?PR?_PUTCHAR?UART
00000BH   00000DH   000003H   BYTE   OFFS..   CODE           ?MYSYS?0000B
00000EH   000022H   000015H   BYTE   UNIT     CODE           ?PR?_STRLEN?STRLEN
000023H   000025H   000003H   BYTE   OFFS..   CODE           ?UART?00023
000026H   000040H   00001BH   BYTE   UNIT     CODE           ?PR?UARTINIT?UART
000041H   000042H   000002H   ---    ---      **GAP**
000043H   000045H   000003H   BYTE   OFFS..   CODE           ?UART2?00043
000046H   0002EDH   0002A8H   BYTE   UNIT     CODE           ?C?LIB_CODE
0002EEH   000575H   000288H   BYTE   UNIT     CODE           ?PR?_GUI_DRAWFONT_GBK16?TFT_LCD
000576H   00075DH   0001E8H   BYTE   UNIT     CODE           ?PR?_DISPLAY_ASCII8X16_COLOR?TFT_LCD
00075EH   00090EH   0001B1H   BYTE   UNIT     CODE           ?PR?LCD_INITIAL?TFT_LCD
00090FH   000AA6H   000198H   BYTE   UNIT     CODE           ?PR?_DISPLAY_ASCII8X16?TFT_LCD
000AA7H   000C36H   000190H   BYTE   UNIT     CODE           ?PR?_FAST_DRAWFONT_GBK16?TFT_LCD
000C37H   000D80H   00014AH   BYTE   UNIT     CODE           ?PR?TIMER0?MYSYS
000D81H   000EA5H   000125H   BYTE   UNIT     CODE           ?PR?_READTEMPERATURE?DS18B20
000EA6H   000F31H   00008CH   BYTE   UNIT     CODE           ?C_C51STARTUP
000F32H   000FB3H   000082H   BYTE   UNIT     CODE           ?PR?DISPLAY_BACKGROUND?MAIN
000FB4H   001030H   00007DH   BYTE   UNIT     CODE           ?PR?MAIN?MAIN
001031H   001091H   000061H   BYTE   UNIT     CODE           ?PR?UART2?UART2
001092H   0010F0H   00005FH   BYTE   UNIT     CODE           ?PR?UART?UART
0010F1H   001144H   000054H   BYTE   UNIT     CODE           ?PR?_PUTPIXEL?TFT_LCD
001145H   001193H   00004FH   BYTE   UNIT     CODE           ?PR?_AGREEMENTPARSE?AGREEMENT
001194H   0011D7H   000044H   BYTE   UNIT     CODE           ?C_INITSEG
0011D8H   00121AH   000043H   BYTE   UNIT     CODE           ?PR?_LCD_SETREGION?TFT_LCD
00121BH   001254H   00003AH   BYTE   UNIT     CODE           ?PR?_SEND_SENSORDATA?AGREEMENT
001255H   00128EH   00003AH   BYTE   UNIT     CODE           ?PR?_ADC_GETVALUE?ADC
00128FH   0012C4H   000036H   BYTE   UNIT     CODE           ?PR?_DSP_SINGLE_COLOUR?TFT_LCD
0012C5H   0012F7H   000033H   BYTE   UNIT     CODE           ?PR?_UARTSENDSTRING?UART
0012F8H   00132AH   000033H   BYTE   UNIT     CODE           ?PR?_UART2_SENDSTRING?UART2
00132BH   001357H   00002DH   BYTE   UNIT     CODE           ?PR?_UARTSENDDATA?UART
001358H   001384H   00002DH   BYTE   UNIT     CODE           ?PR?_UART2SENDDATA?UART2
001385H   0013ADH   000029H   BYTE   UNIT     CODE           ?PR?READONECHAR?DS18B20
LX51 LINKER/LOCATER V4.66.66.0                                                        09/27/2018  18:17:15  PAGE 3


0013AEH   0013D5H   000028H   BYTE   UNIT     CODE           ?PR?INIT_DS18B20?DS18B20
0013D6H   0013FAH   000025H   BYTE   UNIT     CODE           ?PR?MYTASK_ONE?TASKLIST
0013FBH   00141CH   000022H   BYTE   UNIT     CODE           ?PR?MYTASK_TWO?TASKLIST
00141DH   00143EH   000022H   BYTE   UNIT     CODE           ?PR?MYTASK_THREE?TASKLIST
00143FH   00145EH   000020H   BYTE   UNIT     CODE           ?PR?_LCD_DELAY_MS?TFT_LCD
00145FH   00147EH   000020H   BYTE   UNIT     CODE           ?PR?_WRITEONECHAR?DS18B20
00147FH   00149DH   00001FH   BYTE   UNIT     CODE           ?PR?CLEARBUF?UART
00149EH   0014B7H   00001AH   BYTE   UNIT     CODE           ?PR?_LCD_WRITEDATA_16BIT?TFT_LCD
0014B8H   0014CFH   000018H   BYTE   UNIT     CODE           ?PR?_DELAY_MS?DELAY
0014D0H   0014E7H   000018H   BYTE   UNIT     CODE           ?PR?UART2INIT?UART2
0014E8H   0014FFH   000018H   BYTE   UNIT     CODE           ?PR?CLEARBUF2?UART2
001500H   001516H   000017H   BYTE   UNIT     CODE           ?PR?_SPI_WRITEDATA?TFT_LCD
001517H   00152CH   000016H   BYTE   UNIT     CODE           ?PR?_GET_WTL_VALUE?ADC
00152DH   001542H   000016H   BYTE   UNIT     CODE           ?PR?_LCD_WRITEDATA?TFT_LCD
001543H   001555H   000013H   BYTE   UNIT     CODE           ?PR?MYSYSINIT?MYSYS
001556H   001567H   000012H   BYTE   UNIT     CODE           ?PR?BSP_INIT?MAIN
001568H   001578H   000011H   BYTE   UNIT     CODE           ?PR?_GET_PH_VALUE?ADC
001579H   001586H   00000EH   BYTE   UNIT     CODE           ?PR?LCD_RESET?TFT_LCD
001587H   001591H   00000BH   BYTE   UNIT     CODE           ?PR?_DELAY?DS18B20
001592H   00159BH   00000AH   BYTE   UNIT     CODE           ?PR?_LCD_WRITEINDEX?TFT_LCD
00159CH   0015A4H   000009H   BYTE   UNIT     CODE           ?PR?DELAY1MS?DELAY
0015A5H   0015ACH   000008H   BYTE   UNIT     CODE           ?PR?_SENDDATA?UART2
0015ADH   0015B3H   000007H   BYTE   UNIT     CODE           ?PR?ADC_INIT?ADC
0015B4H   0027B2H   0011FFH   BYTE   UNIT     CONST          ?CO?TFT_LCD
0027B3H   0027D5H   000023H   BYTE   UNIT     CONST          ?CO?MAIN

* * * * * * * * * * *  X D A T A   M E M O R Y  * * * * * * * * * * * * *
000000H   000083H   000084H   BYTE   UNIT     XDATA          ?XD?UART
000084H   000106H   000083H   BYTE   UNIT     XDATA          ?XD?UART2
000107H   00013FH   000039H   BYTE   UNIT     XDATA          ?XD?_DISPLAY_ASCII8X16_COLOR?TFT_LCD
000140H   000172H   000033H   BYTE   UNIT     XDATA          ?XD?_DISPLAY_ASCII8X16?TFT_LCD
000173H   00018AH   000018H   BYTE   UNIT     XDATA          _XDATA_GROUP_
00018BH   00019BH   000011H   BYTE   UNIT     XDATA          ?XD?_GUI_DRAWFONT_GBK16?TFT_LCD
00019CH   0001ABH   000010H   BYTE   UNIT     XDATA          ?XD?AGREEMENT
0001ACH   0001B3H   000008H   BYTE   UNIT     XDATA          ?XD?DS18B20
0001B4H   0001BAH   000007H   BYTE   UNIT     XDATA          ?XD?MYSYS
0001BBH   0001C0H   000006H   BYTE   UNIT     XDATA          ?XD?_PUTPIXEL?TFT_LCD
0001C1H   0001C4H   000004H   BYTE   UNIT     XDATA          ?XD?TASKLIST
0001C5H   0001C7H   000003H   BYTE   UNIT     XDATA          ?XD?_UARTSENDSTRING?UART
0001C8H   0001CAH   000003H   BYTE   UNIT     XDATA          ?XD?_UART2_SENDSTRING?UART2
0001CBH   0001CDH   000003H   BYTE   UNIT     XDATA          ?XD?_UART2SENDDATA?UART2
0001CEH   0001CEH   000001H   BYTE   UNIT     XDATA          ?XD?ADC



OVERLAY MAP OF MODULE:   .\Objects\samartAgr (MYSYS)


FUNCTION/MODULE                       XDATA_GROUP
--> CALLED FUNCTION/MODULE            START  STOP
=================================================
TIMER0/MYSYS                          ----- -----

*** NEW ROOT ************************

UART/UART                             ----- -----

*** NEW ROOT ************************

UART2/UART2                           ----- -----

*** NEW ROOT ************************

?C_C51STARTUP                         ----- -----
  +--> MAIN/MAIN
LX51 LINKER/LOCATER V4.66.66.0                                                        09/27/2018  18:17:15  PAGE 4


  +--> ?C_INITSEG

MAIN/MAIN                             ----- -----
  +--> BSP_INIT/MAIN
  +--> MYTASK_ONE/TASKLIST
  +--> MYTASK_TWO/TASKLIST
  +--> MYTASK_THREE/TASKLIST
  +--> _AGREEMENTPARSE/AGREEMENT
  +--> CLEARBUF/UART

BSP_INIT/MAIN                         ----- -----
  +--> UARTINIT/UART
  +--> UART2INIT/UART2
  +--> MYSYSINIT/MYSYS
  +--> ADC_INIT/ADC
  +--> LCD_INITIAL/TFT_LCD
  +--> DISPLAY_BACKGROUND/MAIN

UARTINIT/UART                         ----- -----

UART2INIT/UART2                       ----- -----

MYSYSINIT/MYSYS                       ----- -----

ADC_INIT/ADC                          ----- -----

LCD_INITIAL/TFT_LCD                   ----- -----
  +--> LCD_RESET/TFT_LCD
  +--> _LCD_WRITEINDEX/TFT_LCD
  +--> _LCD_DELAY_MS/TFT_LCD
  +--> _LCD_WRITEDATA/TFT_LCD

LCD_RESET/TFT_LCD                     ----- -----
  +--> _LCD_DELAY_MS/TFT_LCD

_LCD_DELAY_MS/TFT_LCD                 ----- -----

_LCD_WRITEINDEX/TFT_LCD               ----- -----
  +--> _SPI_WRITEDATA/TFT_LCD

_SPI_WRITEDATA/TFT_LCD                ----- -----

_LCD_WRITEDATA/TFT_LCD                018AH 018AH
  +--> _LCD_WRITEINDEX/TFT_LCD
  +--> _SPI_WRITEDATA/TFT_LCD

DISPLAY_BACKGROUND/MAIN               ----- -----
  +--> _DSP_SINGLE_COLOUR/TFT_LCD
  +--> ?CO?MAIN
  +--> _FAST_DRAWFONT_GBK16/TFT_LCD

_DSP_SINGLE_COLOUR/TFT_LCD            0173H 0174H
  +--> _LCD_SETREGION/TFT_LCD
  +--> _LCD_WRITEDATA_16BIT/TFT_LCD

_LCD_SETREGION/TFT_LCD                0182H 0189H
  +--> _LCD_WRITEDATA/TFT_LCD
  +--> _LCD_WRITEINDEX/TFT_LCD

_LCD_WRITEDATA_16BIT/TFT_LCD          0182H 0182H
  +--> _SPI_WRITEDATA/TFT_LCD

?CO?MAIN                              ----- -----

_FAST_DRAWFONT_GBK16/TFT_LCD          0173H 0181H
LX51 LINKER/LOCATER V4.66.66.0                                                        09/27/2018  18:17:15  PAGE 5


  +--> ?CO?TFT_LCD
  +--> _LCD_SETREGION/TFT_LCD
  +--> _LCD_WRITEDATA_16BIT/TFT_LCD

?CO?TFT_LCD                           ----- -----

MYTASK_ONE/TASKLIST                   0173H 0178H
  +--> _READTEMPERATURE/DS18B20
  +--> _SEND_SENSORDATA/AGREEMENT

_READTEMPERATURE/DS18B20              0179H 017BH
  +--> INIT_DS18B20/DS18B20
  +--> _WRITEONECHAR/DS18B20
  +--> _DELAY/DS18B20
  +--> READONECHAR/DS18B20

INIT_DS18B20/DS18B20                  ----- -----
  +--> _DELAY/DS18B20

_DELAY/DS18B20                        ----- -----

_WRITEONECHAR/DS18B20                 ----- -----
  +--> _DELAY/DS18B20

READONECHAR/DS18B20                   ----- -----
  +--> _DELAY/DS18B20

_SEND_SENSORDATA/AGREEMENT            ----- -----
  +--> _UARTSENDDATA/UART

_UARTSENDDATA/UART                    0179H 017BH
  +--> _PUTCHAR/UART

_PUTCHAR/UART                         ----- -----

MYTASK_TWO/TASKLIST                   0173H 0176H
  +--> _GET_WTL_VALUE/ADC
  +--> _SEND_SENSORDATA/AGREEMENT

_GET_WTL_VALUE/ADC                    0177H 0179H
  +--> _ADC_GETVALUE/ADC

_ADC_GETVALUE/ADC                     ----- -----

MYTASK_THREE/TASKLIST                 0173H 0176H
  +--> _GET_PH_VALUE/ADC
  +--> _SEND_SENSORDATA/AGREEMENT

_GET_PH_VALUE/ADC                     0177H 0179H
  +--> _ADC_GETVALUE/ADC

_AGREEMENTPARSE/AGREEMENT             ----- -----

CLEARBUF/UART                         ----- -----

?C_INITSEG                            ----- -----



PUBLIC SYMBOLS OF MODULE:  .\Objects\samartAgr (MYSYS)


      VALUE       CLASS    TYPE      PUBLIC SYMBOL NAME
      =================================================
      02000107H   XDATA    BYTE      ?_Display_ASCII8X16_Color?BYTE
LX51 LINKER/LOCATER V4.66.66.0                                                        09/27/2018  18:17:15  PAGE 6


      02000173H   XDATA    BYTE      ?_Fast_DrawFont_GBK16?BYTE
      0200018BH   XDATA    BYTE      ?_Gui_DrawFont_GBK16?BYTE
      02000182H   XDATA    BYTE      ?_Lcd_SetRegion?BYTE
      0100005FH   CODE     ---       ?C?CLDOPTR
      01000046H   CODE     ---       ?C?CLDPTR
      00000000H   NUMBER   ---       ?C?CODESEG
      0100009EH   CODE     ---       ?C?CSTOPTR
      0100008CH   CODE     ---       ?C?CSTPTR
      0100014BH   CODE     ---       ?C?IILDX
      01000161H   CODE     ---       ?C?ILDIX
      01000177H   CODE     ---       ?C?LMUL
      010002B1H   CODE     ---       ?C?LSTKXDATA
      010002A5H   CODE     ---       ?C?LSTXDATA
      010002E2H   CODE     ---       ?C?OFFXADD
      01000115H   CODE     ---       ?C?SIDIV
      010000C0H   CODE     ---       ?C?UIDIV
      01000294H   CODE     ---       ?C?ULCMP
      01000202H   CODE     ---       ?C?ULDIV
      00000000H   NUMBER   ---       ?C?XDATASEG
      01000EEDH   CODE     ---       ?C_START
      01000000H   CODE     ---       ?C_STARTUP
      01001255H   CODE     ---       _adc_getValue
      01001145H   CODE     ---       _agreementParse
      01001587H   CODE     ---       _delay
      010014B8H   CODE     ---       _delay_ms
      0100090FH   CODE     ---       _Display_ASCII8X16
      01000576H   CODE     ---       _Display_ASCII8X16_Color
      0100128FH   CODE     ---       _dsp_single_colour
      01000AA7H   CODE     ---       _Fast_DrawFont_GBK16
      01001568H   CODE     ---       _get_PH_value
      01001517H   CODE     ---       _get_WTL_value
      010002EEH   CODE     ---       _Gui_DrawFont_GBK16
      0100143FH   CODE     ---       _lcd_delay_ms
      010011D8H   CODE     ---       _Lcd_SetRegion
      01001534H   CODE     ---       _Lcd_WriteData
      0100149EH   CODE     ---       _LCD_WriteData_16Bit
      01001592H   CODE     ---       _Lcd_WriteIndex
      01000003H   CODE     ---       _Putchar
      010010F6H   CODE     ---       _PutPixel
      01000D81H   CODE     ---       _ReadTemperature
      0100121BH   CODE     ---       _Send_SensorData
      010015A5H   CODE     ---       _SendData
      01001500H   CODE     ---       _SPI_WriteData
      0100000EH   CODE     ---       _STRLEN
      010012F8H   CODE     ---       _UART2_SendString
      01001358H   CODE     ---       _uart2SendData
      0100132BH   CODE     ---       _uartSendData
      010012C5H   CODE     ---       _uartSendString
      0100145FH   CODE     ---       _WriteOneChar
*SFR* 000000D0H.6 DATA     BIT       AC
*SFR* 000000E0H   DATA     BYTE      ACC
*SFR* 000000BCH   DATA     BYTE      ADC_CONTR
      010015ADH   CODE     ---       adc_Init
*SFR* 000000BDH   DATA     BYTE      ADC_RES
*SFR* 000000BEH   DATA     BYTE      ADC_RESL
*SFR* 0000008EH   DATA     BYTE      AUXR
*SFR* 000000A2H   DATA     BYTE      AUXR1
*SFR* 000000F0H   DATA     BYTE      B
*SFR* 000000A0H.4 DATA     BIT       bl
*SFR* 0000009CH   DATA     BYTE      BRT
      01001556H   CODE     ---       bsp_init
      00000020H.0 BIT      BIT       busy
      00000020H.1 BIT      BIT       busy2
*SFR* 000000C8H.1 DATA     BIT       C_T2
      0100147FH   CODE     ---       clearBuf
LX51 LINKER/LOCATER V4.66.66.0                                                        09/27/2018  18:17:15  PAGE 7


      010014E8H   CODE     ---       clearBuf2
      02000082H   XDATA    BYTE      cmd
*SFR* 000000C8H   DATA     BIT       CP_RL2
*SFR* 000000A0H   DATA     BIT       cs
*SFR* 000000D0H.7 DATA     BIT       CY
      0200019CH   XDATA    ---       DataBuf
      020001B1H   XDATA    BYTE      date
      0100159CH   CODE     ---       Delay1ms
      01000F32H   CODE     ---       display_background
*SFR* 00000083H   DATA     BYTE      DPH
*SFR* 00000082H   DATA     BYTE      DPL
*SFR* 000000A0H.2 DATA     BIT       DQ
*SFR* 000000A8H.7 DATA     BIT       EA
*SFR* 000000A8H.4 DATA     BIT       ES
*SFR* 000000A8H.1 DATA     BIT       ET0
*SFR* 000000A8H.3 DATA     BIT       ET1
*SFR* 000000A8H.5 DATA     BIT       ET2
*SFR* 000000A8H   DATA     BIT       EX0
*SFR* 000000A8H.2 DATA     BIT       EX1
*SFR* 000000C8H.3 DATA     BIT       EXEN2
*SFR* 000000C8H.6 DATA     BIT       EXF2
*SFR* 000000D0H.5 DATA     BIT       F0
      00000020H.2 BIT      BIT       fg
      020001B9H   XDATA    BYTE      flag_taskOne
      020001B8H   XDATA    BYTE      flag_taskThree
      020001BAH   XDATA    BYTE      flag_taskTwo
      02000085H   XDATA    BYTE      flag_uart2_rx
      02000000H   XDATA    BYTE      flag_uart_rx
      020001B4H   XDATA    DWORD     heartBeat
      010015B4H   CONST    ---       hz16
*SFR* 000000A8H   DATA     BYTE      IE
*SFR* 00000088H.1 DATA     BIT       IE0
*SFR* 00000088H.3 DATA     BIT       IE1
*SFR* 000000AFH   DATA     BYTE      IE2
      010013AEH   CODE     ---       Init_DS18B20
*SFR* 000000B0H.2 DATA     BIT       INT0
*SFR* 000000B0H.3 DATA     BIT       INT1
*SFR* 00000080H.1 DATA     BIT       IO_PUMP
*SFR* 000000B8H   DATA     BYTE      IP
*SFR* 00000088H   DATA     BIT       IT0
*SFR* 00000088H.2 DATA     BIT       IT1
      0100075EH   CODE     ---       lcd_initial
      01001579H   CODE     ---       Lcd_Reset
      01000FB4H   CODE     ---       main
      01001543H   CODE     ---       mysysinit
      010013D6H   CODE     ---       MyTask_One
      0100141DH   CODE     ---       MyTask_Three
      010013FBH   CODE     ---       MyTask_Two
*SFR* 000000D0H.2 DATA     BIT       OV
*SFR* 000000D0H   DATA     BIT       P
*SFR* 00000080H   DATA     BYTE      P0
*SFR* 00000090H   DATA     BYTE      P1
*SFR* 0000009DH   DATA     BYTE      P1ASF
*SFR* 000000A0H   DATA     BYTE      P2
*SFR* 000000B0H   DATA     BYTE      P3
*SFR* 00000087H   DATA     BYTE      PCON
*SFR* 000000B8H.4 DATA     BIT       PS
*SFR* 000000D0H   DATA     BYTE      PSW
*SFR* 000000B8H.1 DATA     BIT       PT0
*SFR* 000000B8H.3 DATA     BIT       PT1
*SFR* 000000B8H.5 DATA     BIT       PT2
*SFR* 000000B8H   DATA     BIT       PX0
*SFR* 000000B8H.2 DATA     BIT       PX1
*SFR* 00000098H.2 DATA     BIT       RB8
*SFR* 000000CBH   DATA     BYTE      RCAP2H
LX51 LINKER/LOCATER V4.66.66.0                                                        09/27/2018  18:17:15  PAGE 8


*SFR* 000000CAH   DATA     BYTE      RCAP2L
*SFR* 000000C8H.5 DATA     BIT       RCLK
*SFR* 000000B0H.7 DATA     BIT       RD
      01001385H   CODE     ---       ReadOneChar
*SFR* 00000098H.4 DATA     BIT       REN
*SFR* 000000A0H.1 DATA     BIT       reset
*SFR* 00000098H   DATA     BIT       RI
*SFR* 000000A0H.2 DATA     BIT       rs
*SFR* 000000D0H.3 DATA     BIT       RS0
*SFR* 000000D0H.4 DATA     BIT       RS1
*SFR* 000000B0H   DATA     BIT       RXD
*SFR* 0000009BH   DATA     BYTE      S2BUF
*SFR* 0000009AH   DATA     BYTE      S2CON
*SFR* 00000099H   DATA     BYTE      SBUF
*SFR* 000000A0H.5 DATA     BIT       scl
*SFR* 00000098H   DATA     BYTE      SCON
*SFR* 000000A0H.3 DATA     BIT       sda
      020001C1H   XDATA    ---       sdata
      020001AFH   XDATA    WORD      sdate
*SFR* 00000098H.7 DATA     BIT       SM0
*SFR* 00000098H.6 DATA     BIT       SM1
*SFR* 00000098H.5 DATA     BIT       SM2
      020001AAH   XDATA    BYTE      SMARTMODE
*SFR* 00000081H   DATA     BYTE      SP
*SFR* 000000B0H.4 DATA     BIT       T0
*SFR* 000000B0H.5 DATA     BIT       T1
*SFR* 00000090H   DATA     BIT       T2
*SFR* 000000C8H   DATA     BYTE      T2CON
*SFR* 00000090H.1 DATA     BIT       T2EX
*SFR* 00000098H.3 DATA     BIT       TB8
*SFR* 000000C8H.4 DATA     BIT       TCLK
*SFR* 00000088H   DATA     BYTE      TCON
      020001ACH   XDATA    BYTE      tempH
      020001ADH   XDATA    BYTE      tempL
*SFR* 00000088H.5 DATA     BIT       TF0
*SFR* 00000088H.7 DATA     BIT       TF1
*SFR* 000000C8H.7 DATA     BIT       TF2
*SFR* 0000008CH   DATA     BYTE      TH0
*SFR* 0000008DH   DATA     BYTE      TH1
*SFR* 000000CDH   DATA     BYTE      TH2
*SFR* 00000098H.1 DATA     BIT       TI
      01000C37H   CODE     ---       timer0
*SFR* 0000008AH   DATA     BYTE      TL0
*SFR* 0000008BH   DATA     BYTE      TL1
*SFR* 000000CCH   DATA     BYTE      TL2
*SFR* 00000089H   DATA     BYTE      TMOD
*SFR* 00000088H.4 DATA     BIT       TR0
*SFR* 00000088H.6 DATA     BIT       TR1
*SFR* 000000C8H.2 DATA     BIT       TR2
*SFR* 000000B0H.1 DATA     BIT       TXD
      01001092H   CODE     ---       Uart
      01001031H   CODE     ---       Uart2
      02000086H   XDATA    ---       UART2_RX_BUF
      010014D0H   CODE     ---       Uart2Init
      02000105H   XDATA    BYTE      uart2RxCount
      02000106H   XDATA    BYTE      uart2RxSta
      02000084H   XDATA    BYTE      uart2RxTimeOut
      02000001H   XDATA    ---       UART_RX_BUF
      01000026H   CODE     ---       UartInit
      02000080H   XDATA    BYTE      uartRxCount
      02000081H   XDATA    BYTE      uartRxSta
      02000083H   XDATA    BYTE      uartRxTimeOut
      020001ABH   XDATA    BYTE      watl_threshold
      020001CEH   XDATA    BYTE      watl_value
*SFR* 000000B0H.6 DATA     BIT       WR
LX51 LINKER/LOCATER V4.66.66.0                                                        09/27/2018  18:17:15  PAGE 9


      020001AEH   XDATA    BYTE      xiaoshu
      020001B2H   XDATA    BYTE      xiaoshu1
      020001B3H   XDATA    BYTE      xiaoshu2
      010017B2H   CONST    ---       Zk_ASCII8X16



SYMBOL TABLE OF MODULE:  .\Objects\samartAgr (MYSYS)

      VALUE       REP       CLASS    TYPE      SYMBOL NAME
      ====================================================
      ---         MODULE    ---      ---       MYSYS
      020001BAH   PUBLIC    XDATA    BYTE      flag_taskTwo
      020001B9H   PUBLIC    XDATA    BYTE      flag_taskOne
      020001B8H   PUBLIC    XDATA    BYTE      flag_taskThree
      020001B4H   PUBLIC    XDATA    DWORD     heartBeat
      01000C37H   PUBLIC    CODE     ---       timer0
      01001543H   PUBLIC    CODE     ---       mysysinit
      00000080H   SFRSYM    DATA     BYTE      P0
      00000090H   SFRSYM    DATA     BYTE      P1
      000000A0H   SFRSYM    DATA     BYTE      P2
      000000B0H   SFRSYM    DATA     BYTE      P3
      000000B0H.4 SFRSYM    DATA     BIT       T0
      000000D0H.6 SFRSYM    DATA     BIT       AC
      000000B0H.5 SFRSYM    DATA     BIT       T1
      00000090H   SFRSYM    DATA     BIT       T2
      000000A8H.7 SFRSYM    DATA     BIT       EA
      000000A8H   SFRSYM    DATA     BYTE      IE
      000000C8H.6 SFRSYM    DATA     BIT       EXF2
      000000B0H.7 SFRSYM    DATA     BIT       RD
      000000A8H.4 SFRSYM    DATA     BIT       ES
      000000B8H   SFRSYM    DATA     BYTE      IP
      00000098H   SFRSYM    DATA     BIT       RI
      000000B0H.2 SFRSYM    DATA     BIT       INT0
      000000D0H.7 SFRSYM    DATA     BIT       CY
      00000098H.1 SFRSYM    DATA     BIT       TI
      000000B0H.3 SFRSYM    DATA     BIT       INT1
      000000CBH   SFRSYM    DATA     BYTE      RCAP2H
      000000B8H.4 SFRSYM    DATA     BIT       PS
      00000081H   SFRSYM    DATA     BYTE      SP
      00000090H.1 SFRSYM    DATA     BIT       T2EX
      000000D0H.2 SFRSYM    DATA     BIT       OV
      000000CAH   SFRSYM    DATA     BYTE      RCAP2L
      000000C8H.1 SFRSYM    DATA     BIT       C_T2
      000000B0H.6 SFRSYM    DATA     BIT       WR
      000000C8H.5 SFRSYM    DATA     BIT       RCLK
      000000C8H.4 SFRSYM    DATA     BIT       TCLK
      00000099H   SFRSYM    DATA     BYTE      SBUF
      00000087H   SFRSYM    DATA     BYTE      PCON
      00000098H   SFRSYM    DATA     BYTE      SCON
      00000089H   SFRSYM    DATA     BYTE      TMOD
      00000088H   SFRSYM    DATA     BYTE      TCON
      00000088H.1 SFRSYM    DATA     BIT       IE0
      00000088H.3 SFRSYM    DATA     BIT       IE1
      000000F0H   SFRSYM    DATA     BYTE      B
      000000C8H   SFRSYM    DATA     BIT       CP_RL2
      000000E0H   SFRSYM    DATA     BYTE      ACC
      000000A8H.1 SFRSYM    DATA     BIT       ET0
      000000A8H.3 SFRSYM    DATA     BIT       ET1
      00000088H.5 SFRSYM    DATA     BIT       TF0
      000000A8H.5 SFRSYM    DATA     BIT       ET2
      00000088H.7 SFRSYM    DATA     BIT       TF1
      000000C8H.7 SFRSYM    DATA     BIT       TF2
      00000098H.2 SFRSYM    DATA     BIT       RB8
      0000008CH   SFRSYM    DATA     BYTE      TH0
LX51 LINKER/LOCATER V4.66.66.0                                                        09/27/2018  18:17:15  PAGE 10


      000000A8H   SFRSYM    DATA     BIT       EX0
      00000088H   SFRSYM    DATA     BIT       IT0
      0000008DH   SFRSYM    DATA     BYTE      TH1
      00000098H.3 SFRSYM    DATA     BIT       TB8
      000000A8H.2 SFRSYM    DATA     BIT       EX1
      00000088H.2 SFRSYM    DATA     BIT       IT1
      000000CDH   SFRSYM    DATA     BYTE      TH2
      000000D0H   SFRSYM    DATA     BIT       P
      00000098H.7 SFRSYM    DATA     BIT       SM0
      0000008AH   SFRSYM    DATA     BYTE      TL0
      00000098H.6 SFRSYM    DATA     BIT       SM1
      0000008BH   SFRSYM    DATA     BYTE      TL1
      00000098H.5 SFRSYM    DATA     BIT       SM2
      000000CCH   SFRSYM    DATA     BYTE      TL2
      000000B8H.1 SFRSYM    DATA     BIT       PT0
      000000B8H.3 SFRSYM    DATA     BIT       PT1
      000000D0H.3 SFRSYM    DATA     BIT       RS0
      000000B8H.5 SFRSYM    DATA     BIT       PT2
      00000088H.4 SFRSYM    DATA     BIT       TR0
      000000D0H.4 SFRSYM    DATA     BIT       RS1
      00000088H.6 SFRSYM    DATA     BIT       TR1
      000000C8H.2 SFRSYM    DATA     BIT       TR2
      000000B8H   SFRSYM    DATA     BIT       PX0
      000000B8H.2 SFRSYM    DATA     BIT       PX1
      00000083H   SFRSYM    DATA     BYTE      DPH
      00000082H   SFRSYM    DATA     BYTE      DPL
      000000C8H.3 SFRSYM    DATA     BIT       EXEN2
      00000098H.4 SFRSYM    DATA     BIT       REN
      000000C8H   SFRSYM    DATA     BYTE      T2CON
      000000B0H   SFRSYM    DATA     BIT       RXD
      000000B0H.1 SFRSYM    DATA     BIT       TXD
      000000D0H.5 SFRSYM    DATA     BIT       F0
      000000D0H   SFRSYM    DATA     BYTE      PSW

      01001543H   BLOCK     CODE     ---       LVL=0
      01001543H   LINE      CODE     ---       #10
      01001543H   LINE      CODE     ---       #11
      01001543H   LINE      CODE     ---       #12
      01001546H   LINE      CODE     ---       #13
      01001549H   LINE      CODE     ---       #14
      0100154CH   LINE      CODE     ---       #15
      0100154FH   LINE      CODE     ---       #16
      01001551H   LINE      CODE     ---       #17
      01001553H   LINE      CODE     ---       #18
      01001555H   LINE      CODE     ---       #19
      ---         BLOCKEND  ---      ---       LVL=0

      01000C37H   BLOCK     CODE     ---       LVL=0
      01000C37H   LINE      CODE     ---       #23
      01000C54H   LINE      CODE     ---       #25
      01000C57H   LINE      CODE     ---       #26
      01000C5AH   LINE      CODE     ---       #28
      01000C96H   LINE      CODE     ---       #29
      01000C9DH   LINE      CODE     ---       #31
      01000CC7H   LINE      CODE     ---       #32
      01000CCCH   LINE      CODE     ---       #34
      01000CF6H   LINE      CODE     ---       #35
      01000CFBH   LINE      CODE     ---       #37
      01000D25H   LINE      CODE     ---       #38
      01000D2AH   LINE      CODE     ---       #41
      01000D30H   LINE      CODE     ---       #42
      01000D30H   LINE      CODE     ---       #43
      01000D3EH   LINE      CODE     ---       #45
      01000D3EH   LINE      CODE     ---       #46
      01000D43H   LINE      CODE     ---       #47
LX51 LINKER/LOCATER V4.66.66.0                                                        09/27/2018  18:17:15  PAGE 11


      01000D48H   LINE      CODE     ---       #48
      01000D48H   LINE      CODE     ---       #49
      01000D48H   LINE      CODE     ---       #50
      01000D4EH   LINE      CODE     ---       #51
      01000D4EH   LINE      CODE     ---       #52
      01000D5CH   LINE      CODE     ---       #54
      01000D5CH   LINE      CODE     ---       #55
      01000D61H   LINE      CODE     ---       #56
      01000D66H   LINE      CODE     ---       #57
      01000D66H   LINE      CODE     ---       #58
      01000D66H   LINE      CODE     ---       #59
      ---         BLOCKEND  ---      ---       LVL=0

      ---         MODULE    ---      ---       TASKLIST
      020001C1H   PUBLIC    XDATA    ---       sdata
      0100141DH   PUBLIC    CODE     ---       MyTask_Three
      010013FBH   PUBLIC    CODE     ---       MyTask_Two
      010013D6H   PUBLIC    CODE     ---       MyTask_One
      00000080H   SFRSYM    DATA     BYTE      P0
      00000090H   SFRSYM    DATA     BYTE      P1
      000000A0H   SFRSYM    DATA     BYTE      P2
      000000B0H   SFRSYM    DATA     BYTE      P3
      000000B0H.4 SFRSYM    DATA     BIT       T0
      000000D0H.6 SFRSYM    DATA     BIT       AC
      000000B0H.5 SFRSYM    DATA     BIT       T1
      00000090H   SFRSYM    DATA     BIT       T2
      000000A8H.7 SFRSYM    DATA     BIT       EA
      000000A8H   SFRSYM    DATA     BYTE      IE
      000000BDH   SFRSYM    DATA     BYTE      ADC_RES
      000000C8H.6 SFRSYM    DATA     BIT       EXF2
      000000B0H.7 SFRSYM    DATA     BIT       RD
      000000A8H.4 SFRSYM    DATA     BIT       ES
      000000B8H   SFRSYM    DATA     BYTE      IP
      00000098H   SFRSYM    DATA     BIT       RI
      000000B0H.2 SFRSYM    DATA     BIT       INT0
      000000D0H.7 SFRSYM    DATA     BIT       CY
      00000098H.1 SFRSYM    DATA     BIT       TI
      000000B0H.3 SFRSYM    DATA     BIT       INT1
      000000CBH   SFRSYM    DATA     BYTE      RCAP2H
      000000B8H.4 SFRSYM    DATA     BIT       PS
      00000081H   SFRSYM    DATA     BYTE      SP
      00000090H.1 SFRSYM    DATA     BIT       T2EX
      000000D0H.2 SFRSYM    DATA     BIT       OV
      000000A0H.1 SFRSYM    DATA     BIT       reset
      000000CAH   SFRSYM    DATA     BYTE      RCAP2L
      000000C8H.1 SFRSYM    DATA     BIT       C_T2
      000000B0H.6 SFRSYM    DATA     BIT       WR
      000000C8H.5 SFRSYM    DATA     BIT       RCLK
      000000C8H.4 SFRSYM    DATA     BIT       TCLK
      000000BCH   SFRSYM    DATA     BYTE      ADC_CONTR
      00000099H   SFRSYM    DATA     BYTE      SBUF
      00000087H   SFRSYM    DATA     BYTE      PCON
      00000098H   SFRSYM    DATA     BYTE      SCON
      00000089H   SFRSYM    DATA     BYTE      TMOD
      00000088H   SFRSYM    DATA     BYTE      TCON
      000000A0H.3 SFRSYM    DATA     BIT       sda
      00000088H.1 SFRSYM    DATA     BIT       IE0
      00000088H.3 SFRSYM    DATA     BIT       IE1
      000000F0H   SFRSYM    DATA     BYTE      B
      000000A0H.5 SFRSYM    DATA     BIT       scl
      000000C8H   SFRSYM    DATA     BIT       CP_RL2
      000000E0H   SFRSYM    DATA     BYTE      ACC
      000000A8H.1 SFRSYM    DATA     BIT       ET0
      000000A8H.3 SFRSYM    DATA     BIT       ET1
      00000088H.5 SFRSYM    DATA     BIT       TF0
LX51 LINKER/LOCATER V4.66.66.0                                                        09/27/2018  18:17:15  PAGE 12


      000000A8H.5 SFRSYM    DATA     BIT       ET2
      00000088H.7 SFRSYM    DATA     BIT       TF1
      000000C8H.7 SFRSYM    DATA     BIT       TF2
      00000098H.2 SFRSYM    DATA     BIT       RB8
      0000008CH   SFRSYM    DATA     BYTE      TH0
      000000A8H   SFRSYM    DATA     BIT       EX0
      00000088H   SFRSYM    DATA     BIT       IT0
      0000008DH   SFRSYM    DATA     BYTE      TH1
      000000A0H.4 SFRSYM    DATA     BIT       bl
      00000098H.3 SFRSYM    DATA     BIT       TB8
      000000A8H.2 SFRSYM    DATA     BIT       EX1
      00000088H.2 SFRSYM    DATA     BIT       IT1
      000000CDH   SFRSYM    DATA     BYTE      TH2
      000000D0H   SFRSYM    DATA     BIT       P
      00000098H.7 SFRSYM    DATA     BIT       SM0
      0000008AH   SFRSYM    DATA     BYTE      TL0
      00000098H.6 SFRSYM    DATA     BIT       SM1
      0000008BH   SFRSYM    DATA     BYTE      TL1
      00000098H.5 SFRSYM    DATA     BIT       SM2
      000000CCH   SFRSYM    DATA     BYTE      TL2
      000000B8H.1 SFRSYM    DATA     BIT       PT0
      000000B8H.3 SFRSYM    DATA     BIT       PT1
      000000D0H.3 SFRSYM    DATA     BIT       RS0
      000000A0H   SFRSYM    DATA     BIT       cs
      000000B8H.5 SFRSYM    DATA     BIT       PT2
      00000088H.4 SFRSYM    DATA     BIT       TR0
      000000D0H.4 SFRSYM    DATA     BIT       RS1
      00000088H.6 SFRSYM    DATA     BIT       TR1
      000000C8H.2 SFRSYM    DATA     BIT       TR2
      000000B8H   SFRSYM    DATA     BIT       PX0
      000000B8H.2 SFRSYM    DATA     BIT       PX1
      0000009DH   SFRSYM    DATA     BYTE      P1ASF
      00000083H   SFRSYM    DATA     BYTE      DPH
      000000BEH   SFRSYM    DATA     BYTE      ADC_RESL
      00000082H   SFRSYM    DATA     BYTE      DPL
      000000C8H.3 SFRSYM    DATA     BIT       EXEN2
      000000A0H.2 SFRSYM    DATA     BIT       rs
      00000098H.4 SFRSYM    DATA     BIT       REN
      000000C8H   SFRSYM    DATA     BYTE      T2CON
      000000B0H   SFRSYM    DATA     BIT       RXD
      000000B0H.1 SFRSYM    DATA     BIT       TXD
      000000D0H.5 SFRSYM    DATA     BIT       F0
      000000D0H   SFRSYM    DATA     BYTE      PSW

      010013D6H   BLOCK     CODE     ---       LVL=0
      010013D6H   BLOCK     CODE     NEAR LAB  LVL=1
      02000173H   SYMBOL    XDATA    ---       tempstr
      00000004H   SYMBOL    DATA     WORD      tempvalue
      ---         BLOCKEND  ---      ---       LVL=1
      010013D6H   LINE      CODE     ---       #9
      010013D6H   LINE      CODE     ---       #10
      010013D6H   LINE      CODE     ---       #13
      010013E1H   LINE      CODE     ---       #16
      010013E6H   LINE      CODE     ---       #17
      010013E8H   LINE      CODE     ---       #18
      010013EBH   LINE      CODE     ---       #19
      010013EEH   LINE      CODE     ---       #20
      ---         BLOCKEND  ---      ---       LVL=0

      010013FBH   BLOCK     CODE     ---       LVL=0
      010013FBH   BLOCK     CODE     NEAR LAB  LVL=1
      02000173H   SYMBOL    XDATA    ---       str
      00000007H   SYMBOL    DATA     BYTE      waterl
      ---         BLOCKEND  ---      ---       LVL=1
      010013FBH   LINE      CODE     ---       #23
LX51 LINKER/LOCATER V4.66.66.0                                                        09/27/2018  18:17:15  PAGE 13


      010013FBH   LINE      CODE     ---       #24
      010013FBH   LINE      CODE     ---       #27
      01001404H   LINE      CODE     ---       #30
      01001409H   LINE      CODE     ---       #31
      0100140BH   LINE      CODE     ---       #32
      0100140DH   LINE      CODE     ---       #33
      01001410H   LINE      CODE     ---       #34
      ---         BLOCKEND  ---      ---       LVL=0

      0100141DH   BLOCK     CODE     ---       LVL=0
      0100141DH   BLOCK     CODE     NEAR LAB  LVL=1
      02000173H   SYMBOL    XDATA    ---       str
      00000007H   SYMBOL    DATA     BYTE      ph
      ---         BLOCKEND  ---      ---       LVL=1
      0100141DH   LINE      CODE     ---       #36
      0100141DH   LINE      CODE     ---       #37
      0100141DH   LINE      CODE     ---       #40
      01001426H   LINE      CODE     ---       #43
      0100142BH   LINE      CODE     ---       #44
      0100142DH   LINE      CODE     ---       #45
      0100142FH   LINE      CODE     ---       #46
      01001432H   LINE      CODE     ---       #47
      ---         BLOCKEND  ---      ---       LVL=0

      ---         MODULE    ---      ---       AGREEMENT
      020001ABH   PUBLIC    XDATA    BYTE      watl_threshold
      020001AAH   PUBLIC    XDATA    BYTE      SMARTMODE
      0200019CH   PUBLIC    XDATA    ---       DataBuf
      01001145H   PUBLIC    CODE     ---       _agreementParse
      0100121BH   PUBLIC    CODE     ---       _Send_SensorData
      00000080H   SFRSYM    DATA     BYTE      P0
      00000090H   SFRSYM    DATA     BYTE      P1
      000000A0H   SFRSYM    DATA     BYTE      P2
      000000B0H   SFRSYM    DATA     BYTE      P3
      000000B0H.4 SFRSYM    DATA     BIT       T0
      000000D0H.6 SFRSYM    DATA     BIT       AC
      000000B0H.5 SFRSYM    DATA     BIT       T1
      00000090H   SFRSYM    DATA     BIT       T2
      000000A8H.7 SFRSYM    DATA     BIT       EA
      000000A8H   SFRSYM    DATA     BYTE      IE
      000000C8H.6 SFRSYM    DATA     BIT       EXF2
      000000B0H.7 SFRSYM    DATA     BIT       RD
      000000A8H.4 SFRSYM    DATA     BIT       ES
      000000B8H   SFRSYM    DATA     BYTE      IP
      00000098H   SFRSYM    DATA     BIT       RI
      000000B0H.2 SFRSYM    DATA     BIT       INT0
      000000D0H.7 SFRSYM    DATA     BIT       CY
      00000098H.1 SFRSYM    DATA     BIT       TI
      000000B0H.3 SFRSYM    DATA     BIT       INT1
      000000CBH   SFRSYM    DATA     BYTE      RCAP2H
      000000B8H.4 SFRSYM    DATA     BIT       PS
      00000081H   SFRSYM    DATA     BYTE      SP
      00000090H.1 SFRSYM    DATA     BIT       T2EX
      000000D0H.2 SFRSYM    DATA     BIT       OV
      000000CAH   SFRSYM    DATA     BYTE      RCAP2L
      000000C8H.1 SFRSYM    DATA     BIT       C_T2
      000000B0H.6 SFRSYM    DATA     BIT       WR
      000000C8H.5 SFRSYM    DATA     BIT       RCLK
      000000C8H.4 SFRSYM    DATA     BIT       TCLK
      00000099H   SFRSYM    DATA     BYTE      SBUF
      00000087H   SFRSYM    DATA     BYTE      PCON
      00000098H   SFRSYM    DATA     BYTE      SCON
      00000089H   SFRSYM    DATA     BYTE      TMOD
      00000088H   SFRSYM    DATA     BYTE      TCON
      00000080H.1 SFRSYM    DATA     BIT       IO_PUMP
LX51 LINKER/LOCATER V4.66.66.0                                                        09/27/2018  18:17:15  PAGE 14


      00000088H.1 SFRSYM    DATA     BIT       IE0
      00000088H.3 SFRSYM    DATA     BIT       IE1
      000000F0H   SFRSYM    DATA     BYTE      B
      000000C8H   SFRSYM    DATA     BIT       CP_RL2
      000000E0H   SFRSYM    DATA     BYTE      ACC
      000000A8H.1 SFRSYM    DATA     BIT       ET0
      000000A8H.3 SFRSYM    DATA     BIT       ET1
      00000088H.5 SFRSYM    DATA     BIT       TF0
      000000A8H.5 SFRSYM    DATA     BIT       ET2
      00000088H.7 SFRSYM    DATA     BIT       TF1
      000000C8H.7 SFRSYM    DATA     BIT       TF2
      00000098H.2 SFRSYM    DATA     BIT       RB8
      0000008CH   SFRSYM    DATA     BYTE      TH0
      000000A8H   SFRSYM    DATA     BIT       EX0
      00000088H   SFRSYM    DATA     BIT       IT0
      0000008DH   SFRSYM    DATA     BYTE      TH1
      00000098H.3 SFRSYM    DATA     BIT       TB8
      000000A8H.2 SFRSYM    DATA     BIT       EX1
      00000088H.2 SFRSYM    DATA     BIT       IT1
      000000CDH   SFRSYM    DATA     BYTE      TH2
      000000D0H   SFRSYM    DATA     BIT       P
      00000098H.7 SFRSYM    DATA     BIT       SM0
      0000008AH   SFRSYM    DATA     BYTE      TL0
      00000098H.6 SFRSYM    DATA     BIT       SM1
      0000008BH   SFRSYM    DATA     BYTE      TL1
      00000098H.5 SFRSYM    DATA     BIT       SM2
      000000CCH   SFRSYM    DATA     BYTE      TL2
      000000B8H.1 SFRSYM    DATA     BIT       PT0
      000000B8H.3 SFRSYM    DATA     BIT       PT1
      000000D0H.3 SFRSYM    DATA     BIT       RS0
      000000B8H.5 SFRSYM    DATA     BIT       PT2
      00000088H.4 SFRSYM    DATA     BIT       TR0
      000000D0H.4 SFRSYM    DATA     BIT       RS1
      00000088H.6 SFRSYM    DATA     BIT       TR1
      000000C8H.2 SFRSYM    DATA     BIT       TR2
      000000B8H   SFRSYM    DATA     BIT       PX0
      000000B8H.2 SFRSYM    DATA     BIT       PX1
      00000083H   SFRSYM    DATA     BYTE      DPH
      00000082H   SFRSYM    DATA     BYTE      DPL
      000000C8H.3 SFRSYM    DATA     BIT       EXEN2
      00000098H.4 SFRSYM    DATA     BIT       REN
      000000C8H   SFRSYM    DATA     BYTE      T2CON
      000000B0H   SFRSYM    DATA     BIT       RXD
      000000B0H.1 SFRSYM    DATA     BIT       TXD
      000000D0H.5 SFRSYM    DATA     BIT       F0
      000000D0H   SFRSYM    DATA     BYTE      PSW

      0100121BH   BLOCK     CODE     ---       LVL=0
      00000007H   SYMBOL    DATA     BYTE      _SensorType
      00000005H   SYMBOL    DATA     BYTE      _SenserIndex
      00000001H   SYMBOL    DATA     ---       _pData
      0100121BH   LINE      CODE     ---       #11
      0100121BH   LINE      CODE     ---       #12
      0100121BH   LINE      CODE     ---       #13
      01001220H   LINE      CODE     ---       #14
      01001227H   LINE      CODE     ---       #15
      01001231H   LINE      CODE     ---       #16
      0100123BH   LINE      CODE     ---       #17
      01001245H   LINE      CODE     ---       #18
      0100124AH   LINE      CODE     ---       #20
      ---         BLOCKEND  ---      ---       LVL=0

      01001145H   BLOCK     CODE     ---       LVL=0
      00000001H   SYMBOL    DATA     ---       str
      01001145H   LINE      CODE     ---       #23
LX51 LINKER/LOCATER V4.66.66.0                                                        09/27/2018  18:17:15  PAGE 15


      01001145H   LINE      CODE     ---       #24
      01001145H   LINE      CODE     ---       #25
      0100115FH   LINE      CODE     ---       #26
      0100115FH   LINE      CODE     ---       #27
      01001169H   LINE      CODE     ---       #28
      01001169H   LINE      CODE     ---       #29
      01001173H   LINE      CODE     ---       #31
      0100117DH   LINE      CODE     ---       #32
      0100117DH   LINE      CODE     ---       #34
      01001181H   LINE      CODE     ---       #35
      01001181H   LINE      CODE     ---       #36
      0100118BH   LINE      CODE     ---       #37
      0100118BH   LINE      CODE     ---       #38
      0100118BH   LINE      CODE     ---       #39
      01001191H   LINE      CODE     ---       #40
      01001191H   LINE      CODE     ---       #42
      01001193H   LINE      CODE     ---       #43
      01001193H   LINE      CODE     ---       #44
      01001193H   LINE      CODE     ---       #45
      01001193H   LINE      CODE     ---       #46
      01001193H   LINE      CODE     ---       #47
      01001193H   LINE      CODE     ---       #48
      01001193H   LINE      CODE     ---       #49
      ---         BLOCKEND  ---      ---       LVL=0

      ---         MODULE    ---      ---       IO
      00000080H   SFRSYM    DATA     BYTE      P0
      00000090H   SFRSYM    DATA     BYTE      P1
      000000A0H   SFRSYM    DATA     BYTE      P2
      000000B0H   SFRSYM    DATA     BYTE      P3
      000000B0H.4 SFRSYM    DATA     BIT       T0
      000000D0H.6 SFRSYM    DATA     BIT       AC
      000000B0H.5 SFRSYM    DATA     BIT       T1
      00000090H   SFRSYM    DATA     BIT       T2
      000000A8H.7 SFRSYM    DATA     BIT       EA
      000000A8H   SFRSYM    DATA     BYTE      IE
      000000C8H.6 SFRSYM    DATA     BIT       EXF2
      000000B0H.7 SFRSYM    DATA     BIT       RD
      000000A8H.4 SFRSYM    DATA     BIT       ES
      000000B8H   SFRSYM    DATA     BYTE      IP
      00000098H   SFRSYM    DATA     BIT       RI
      000000B0H.2 SFRSYM    DATA     BIT       INT0
      000000D0H.7 SFRSYM    DATA     BIT       CY
      00000098H.1 SFRSYM    DATA     BIT       TI
      000000B0H.3 SFRSYM    DATA     BIT       INT1
      000000CBH   SFRSYM    DATA     BYTE      RCAP2H
      000000B8H.4 SFRSYM    DATA     BIT       PS
      00000081H   SFRSYM    DATA     BYTE      SP
      00000090H.1 SFRSYM    DATA     BIT       T2EX
      000000D0H.2 SFRSYM    DATA     BIT       OV
      000000CAH   SFRSYM    DATA     BYTE      RCAP2L
      000000C8H.1 SFRSYM    DATA     BIT       C_T2
      000000B0H.6 SFRSYM    DATA     BIT       WR
      000000C8H.5 SFRSYM    DATA     BIT       RCLK
      000000C8H.4 SFRSYM    DATA     BIT       TCLK
      00000099H   SFRSYM    DATA     BYTE      SBUF
      00000087H   SFRSYM    DATA     BYTE      PCON
      00000098H   SFRSYM    DATA     BYTE      SCON
      00000089H   SFRSYM    DATA     BYTE      TMOD
      00000088H   SFRSYM    DATA     BYTE      TCON
      00000080H.1 SFRSYM    DATA     BIT       IO_PUMP
      00000088H.1 SFRSYM    DATA     BIT       IE0
      00000088H.3 SFRSYM    DATA     BIT       IE1
      000000F0H   SFRSYM    DATA     BYTE      B
      000000C8H   SFRSYM    DATA     BIT       CP_RL2
LX51 LINKER/LOCATER V4.66.66.0                                                        09/27/2018  18:17:15  PAGE 16


      000000E0H   SFRSYM    DATA     BYTE      ACC
      000000A8H.1 SFRSYM    DATA     BIT       ET0
      000000A8H.3 SFRSYM    DATA     BIT       ET1
      00000088H.5 SFRSYM    DATA     BIT       TF0
      000000A8H.5 SFRSYM    DATA     BIT       ET2
      00000088H.7 SFRSYM    DATA     BIT       TF1
      000000C8H.7 SFRSYM    DATA     BIT       TF2
      00000098H.2 SFRSYM    DATA     BIT       RB8
      0000008CH   SFRSYM    DATA     BYTE      TH0
      000000A8H   SFRSYM    DATA     BIT       EX0
      00000088H   SFRSYM    DATA     BIT       IT0
      0000008DH   SFRSYM    DATA     BYTE      TH1
      00000098H.3 SFRSYM    DATA     BIT       TB8
      000000A8H.2 SFRSYM    DATA     BIT       EX1
      00000088H.2 SFRSYM    DATA     BIT       IT1
      000000CDH   SFRSYM    DATA     BYTE      TH2
      000000D0H   SFRSYM    DATA     BIT       P
      00000098H.7 SFRSYM    DATA     BIT       SM0
      0000008AH   SFRSYM    DATA     BYTE      TL0
      00000098H.6 SFRSYM    DATA     BIT       SM1
      0000008BH   SFRSYM    DATA     BYTE      TL1
      00000098H.5 SFRSYM    DATA     BIT       SM2
      000000CCH   SFRSYM    DATA     BYTE      TL2
      000000B8H.1 SFRSYM    DATA     BIT       PT0
      000000B8H.3 SFRSYM    DATA     BIT       PT1
      000000D0H.3 SFRSYM    DATA     BIT       RS0
      000000B8H.5 SFRSYM    DATA     BIT       PT2
      00000088H.4 SFRSYM    DATA     BIT       TR0
      000000D0H.4 SFRSYM    DATA     BIT       RS1
      00000088H.6 SFRSYM    DATA     BIT       TR1
      000000C8H.2 SFRSYM    DATA     BIT       TR2
      000000B8H   SFRSYM    DATA     BIT       PX0
      000000B8H.2 SFRSYM    DATA     BIT       PX1
      00000083H   SFRSYM    DATA     BYTE      DPH
      00000082H   SFRSYM    DATA     BYTE      DPL
      000000C8H.3 SFRSYM    DATA     BIT       EXEN2
      00000098H.4 SFRSYM    DATA     BIT       REN
      000000C8H   SFRSYM    DATA     BYTE      T2CON
      000000B0H   SFRSYM    DATA     BIT       RXD
      000000B0H.1 SFRSYM    DATA     BIT       TXD
      000000D0H.5 SFRSYM    DATA     BIT       F0
      000000D0H   SFRSYM    DATA     BYTE      PSW

      ---         MODULE    ---      ---       DELAY
      010014B8H   PUBLIC    CODE     ---       _delay_ms
      0100159CH   PUBLIC    CODE     ---       Delay1ms
      00000080H   SFRSYM    DATA     BYTE      P0
      00000090H   SFRSYM    DATA     BYTE      P1
      000000A0H   SFRSYM    DATA     BYTE      P2
      000000B0H   SFRSYM    DATA     BYTE      P3
      000000B0H.4 SFRSYM    DATA     BIT       T0
      000000D0H.6 SFRSYM    DATA     BIT       AC
      000000B0H.5 SFRSYM    DATA     BIT       T1
      00000090H   SFRSYM    DATA     BIT       T2
      000000A8H.7 SFRSYM    DATA     BIT       EA
      000000A8H   SFRSYM    DATA     BYTE      IE
      000000C8H.6 SFRSYM    DATA     BIT       EXF2
      000000B0H.7 SFRSYM    DATA     BIT       RD
      000000A8H.4 SFRSYM    DATA     BIT       ES
      000000B8H   SFRSYM    DATA     BYTE      IP
      00000098H   SFRSYM    DATA     BIT       RI
      000000B0H.2 SFRSYM    DATA     BIT       INT0
      000000D0H.7 SFRSYM    DATA     BIT       CY
      00000098H.1 SFRSYM    DATA     BIT       TI
      000000B0H.3 SFRSYM    DATA     BIT       INT1
LX51 LINKER/LOCATER V4.66.66.0                                                        09/27/2018  18:17:15  PAGE 17


      000000CBH   SFRSYM    DATA     BYTE      RCAP2H
      000000B8H.4 SFRSYM    DATA     BIT       PS
      00000081H   SFRSYM    DATA     BYTE      SP
      00000090H.1 SFRSYM    DATA     BIT       T2EX
      000000D0H.2 SFRSYM    DATA     BIT       OV
      000000CAH   SFRSYM    DATA     BYTE      RCAP2L
      000000C8H.1 SFRSYM    DATA     BIT       C_T2
      000000B0H.6 SFRSYM    DATA     BIT       WR
      000000C8H.5 SFRSYM    DATA     BIT       RCLK
      000000C8H.4 SFRSYM    DATA     BIT       TCLK
      00000099H   SFRSYM    DATA     BYTE      SBUF
      00000087H   SFRSYM    DATA     BYTE      PCON
      00000098H   SFRSYM    DATA     BYTE      SCON
      00000089H   SFRSYM    DATA     BYTE      TMOD
      00000088H   SFRSYM    DATA     BYTE      TCON
      00000088H.1 SFRSYM    DATA     BIT       IE0
      00000088H.3 SFRSYM    DATA     BIT       IE1
      000000F0H   SFRSYM    DATA     BYTE      B
      000000C8H   SFRSYM    DATA     BIT       CP_RL2
      000000E0H   SFRSYM    DATA     BYTE      ACC
      000000A8H.1 SFRSYM    DATA     BIT       ET0
      000000A8H.3 SFRSYM    DATA     BIT       ET1
      00000088H.5 SFRSYM    DATA     BIT       TF0
      000000A8H.5 SFRSYM    DATA     BIT       ET2
      00000088H.7 SFRSYM    DATA     BIT       TF1
      000000C8H.7 SFRSYM    DATA     BIT       TF2
      00000098H.2 SFRSYM    DATA     BIT       RB8
      0000008CH   SFRSYM    DATA     BYTE      TH0
      000000A8H   SFRSYM    DATA     BIT       EX0
      00000088H   SFRSYM    DATA     BIT       IT0
      0000008DH   SFRSYM    DATA     BYTE      TH1
      00000098H.3 SFRSYM    DATA     BIT       TB8
      000000A8H.2 SFRSYM    DATA     BIT       EX1
      00000088H.2 SFRSYM    DATA     BIT       IT1
      000000CDH   SFRSYM    DATA     BYTE      TH2
      000000D0H   SFRSYM    DATA     BIT       P
      00000098H.7 SFRSYM    DATA     BIT       SM0
      0000008AH   SFRSYM    DATA     BYTE      TL0
      00000098H.6 SFRSYM    DATA     BIT       SM1
      0000008BH   SFRSYM    DATA     BYTE      TL1
      00000098H.5 SFRSYM    DATA     BIT       SM2
      000000CCH   SFRSYM    DATA     BYTE      TL2
      000000B8H.1 SFRSYM    DATA     BIT       PT0
      000000B8H.3 SFRSYM    DATA     BIT       PT1
      000000D0H.3 SFRSYM    DATA     BIT       RS0
      000000B8H.5 SFRSYM    DATA     BIT       PT2
      00000088H.4 SFRSYM    DATA     BIT       TR0
      000000D0H.4 SFRSYM    DATA     BIT       RS1
      00000088H.6 SFRSYM    DATA     BIT       TR1
      000000C8H.2 SFRSYM    DATA     BIT       TR2
      000000B8H   SFRSYM    DATA     BIT       PX0
      000000B8H.2 SFRSYM    DATA     BIT       PX1
      00000083H   SFRSYM    DATA     BYTE      DPH
      00000082H   SFRSYM    DATA     BYTE      DPL
      000000C8H.3 SFRSYM    DATA     BIT       EXEN2
      00000098H.4 SFRSYM    DATA     BIT       REN
      000000C8H   SFRSYM    DATA     BYTE      T2CON
      000000B0H   SFRSYM    DATA     BIT       RXD
      000000B0H.1 SFRSYM    DATA     BIT       TXD
      000000D0H.5 SFRSYM    DATA     BIT       F0
      000000D0H   SFRSYM    DATA     BYTE      PSW

      0100159CH   BLOCK     CODE     ---       LVL=0
      0100159CH   BLOCK     CODE     NEAR LAB  LVL=1
      00000007H   SYMBOL    DATA     BYTE      i
LX51 LINKER/LOCATER V4.66.66.0                                                        09/27/2018  18:17:15  PAGE 18


      00000006H   SYMBOL    DATA     BYTE      j
      ---         BLOCKEND  ---      ---       LVL=1
      0100159CH   LINE      CODE     ---       #3
      0100159CH   LINE      CODE     ---       #4
      0100159CH   LINE      CODE     ---       #7
      0100159EH   LINE      CODE     ---       #8
      010015A0H   LINE      CODE     ---       #10
      010015A0H   LINE      CODE     ---       #11
      010015A2H   LINE      CODE     ---       #12
      010015A4H   LINE      CODE     ---       #13
      ---         BLOCKEND  ---      ---       LVL=0

      010014B8H   BLOCK     CODE     ---       LVL=0
      00000006H   SYMBOL    DATA     WORD      ms
      010014B8H   BLOCK     CODE     NEAR LAB  LVL=1
      00000004H   SYMBOL    DATA     WORD      i
      ---         BLOCKEND  ---      ---       LVL=1
      010014B8H   LINE      CODE     ---       #15
      010014B8H   LINE      CODE     ---       #16
      010014B8H   LINE      CODE     ---       #18
      010014C5H   LINE      CODE     ---       #19
      010014CFH   LINE      CODE     ---       #20
      ---         BLOCKEND  ---      ---       LVL=0

      ---         MODULE    ---      ---       UART
      02000083H   PUBLIC    XDATA    BYTE      uartRxTimeOut
      00000020H.0 PUBLIC    BIT      BIT       busy
      02000082H   PUBLIC    XDATA    BYTE      cmd
      02000081H   PUBLIC    XDATA    BYTE      uartRxSta
      02000080H   PUBLIC    XDATA    BYTE      uartRxCount
      02000001H   PUBLIC    XDATA    ---       UART_RX_BUF
      02000000H   PUBLIC    XDATA    BYTE      flag_uart_rx
      0100147FH   PUBLIC    CODE     ---       clearBuf
      0100132BH   PUBLIC    CODE     ---       _uartSendData
      010012C5H   PUBLIC    CODE     ---       _uartSendString
      01000003H   PUBLIC    CODE     ---       _Putchar
      01001092H   PUBLIC    CODE     ---       Uart
      01000026H   PUBLIC    CODE     ---       UartInit
      00000080H   SFRSYM    DATA     BYTE      P0
      00000090H   SFRSYM    DATA     BYTE      P1
      000000A0H   SFRSYM    DATA     BYTE      P2
      000000B0H   SFRSYM    DATA     BYTE      P3
      000000B0H.4 SFRSYM    DATA     BIT       T0
      000000D0H.6 SFRSYM    DATA     BIT       AC
      000000B0H.5 SFRSYM    DATA     BIT       T1
      00000090H   SFRSYM    DATA     BIT       T2
      000000A8H.7 SFRSYM    DATA     BIT       EA
      000000A8H   SFRSYM    DATA     BYTE      IE
      000000C8H.6 SFRSYM    DATA     BIT       EXF2
      000000B0H.7 SFRSYM    DATA     BIT       RD
      000000A8H.4 SFRSYM    DATA     BIT       ES
      000000B8H   SFRSYM    DATA     BYTE      IP
      00000098H   SFRSYM    DATA     BIT       RI
      000000B0H.2 SFRSYM    DATA     BIT       INT0
      000000D0H.7 SFRSYM    DATA     BIT       CY
      00000098H.1 SFRSYM    DATA     BIT       TI
      000000B0H.3 SFRSYM    DATA     BIT       INT1
      000000CBH   SFRSYM    DATA     BYTE      RCAP2H
      000000B8H.4 SFRSYM    DATA     BIT       PS
      00000081H   SFRSYM    DATA     BYTE      SP
      00000090H.1 SFRSYM    DATA     BIT       T2EX
      000000D0H.2 SFRSYM    DATA     BIT       OV
      000000CAH   SFRSYM    DATA     BYTE      RCAP2L
      000000C8H.1 SFRSYM    DATA     BIT       C_T2
      000000B0H.6 SFRSYM    DATA     BIT       WR
LX51 LINKER/LOCATER V4.66.66.0                                                        09/27/2018  18:17:15  PAGE 19


      000000C8H.5 SFRSYM    DATA     BIT       RCLK
      000000C8H.4 SFRSYM    DATA     BIT       TCLK
      00000099H   SFRSYM    DATA     BYTE      SBUF
      00000087H   SFRSYM    DATA     BYTE      PCON
      00000098H   SFRSYM    DATA     BYTE      SCON
      00000089H   SFRSYM    DATA     BYTE      TMOD
      00000088H   SFRSYM    DATA     BYTE      TCON
      00000088H.1 SFRSYM    DATA     BIT       IE0
      00000088H.3 SFRSYM    DATA     BIT       IE1
      000000F0H   SFRSYM    DATA     BYTE      B
      000000C8H   SFRSYM    DATA     BIT       CP_RL2
      000000E0H   SFRSYM    DATA     BYTE      ACC
      000000A8H.1 SFRSYM    DATA     BIT       ET0
      000000A8H.3 SFRSYM    DATA     BIT       ET1
      00000088H.5 SFRSYM    DATA     BIT       TF0
      000000A8H.5 SFRSYM    DATA     BIT       ET2
      00000088H.7 SFRSYM    DATA     BIT       TF1
      000000C8H.7 SFRSYM    DATA     BIT       TF2
      00000098H.2 SFRSYM    DATA     BIT       RB8
      0000008CH   SFRSYM    DATA     BYTE      TH0
      000000A8H   SFRSYM    DATA     BIT       EX0
      00000088H   SFRSYM    DATA     BIT       IT0
      0000008DH   SFRSYM    DATA     BYTE      TH1
      00000098H.3 SFRSYM    DATA     BIT       TB8
      000000A8H.2 SFRSYM    DATA     BIT       EX1
      00000088H.2 SFRSYM    DATA     BIT       IT1
      000000CDH   SFRSYM    DATA     BYTE      TH2
      000000D0H   SFRSYM    DATA     BIT       P
      00000098H.7 SFRSYM    DATA     BIT       SM0
      0000008AH   SFRSYM    DATA     BYTE      TL0
      00000098H.6 SFRSYM    DATA     BIT       SM1
      0000008BH   SFRSYM    DATA     BYTE      TL1
      00000098H.5 SFRSYM    DATA     BIT       SM2
      000000CCH   SFRSYM    DATA     BYTE      TL2
      000000B8H.1 SFRSYM    DATA     BIT       PT0
      000000B8H.3 SFRSYM    DATA     BIT       PT1
      000000D0H.3 SFRSYM    DATA     BIT       RS0
      000000B8H.5 SFRSYM    DATA     BIT       PT2
      00000088H.4 SFRSYM    DATA     BIT       TR0
      000000D0H.4 SFRSYM    DATA     BIT       RS1
      00000088H.6 SFRSYM    DATA     BIT       TR1
      000000C8H.2 SFRSYM    DATA     BIT       TR2
      000000B8H   SFRSYM    DATA     BIT       PX0
      000000B8H.2 SFRSYM    DATA     BIT       PX1
      00000083H   SFRSYM    DATA     BYTE      DPH
      00000082H   SFRSYM    DATA     BYTE      DPL
      000000C8H.3 SFRSYM    DATA     BIT       EXEN2
      00000098H.4 SFRSYM    DATA     BIT       REN
      000000C8H   SFRSYM    DATA     BYTE      T2CON
      000000B0H   SFRSYM    DATA     BIT       RXD
      000000B0H.1 SFRSYM    DATA     BIT       TXD
      000000D0H.5 SFRSYM    DATA     BIT       F0
      000000D0H   SFRSYM    DATA     BYTE      PSW

      01000026H   BLOCK     CODE     ---       LVL=0
      01000026H   LINE      CODE     ---       #12
      01000026H   LINE      CODE     ---       #13
      01000026H   LINE      CODE     ---       #14
      01000029H   LINE      CODE     ---       #15
      0100002CH   LINE      CODE     ---       #16
      0100002FH   LINE      CODE     ---       #17
      01000032H   LINE      CODE     ---       #18
      01000035H   LINE      CODE     ---       #19
      01000038H   LINE      CODE     ---       #20
      0100003AH   LINE      CODE     ---       #21
LX51 LINKER/LOCATER V4.66.66.0                                                        09/27/2018  18:17:15  PAGE 20


      0100003CH   LINE      CODE     ---       #22
      0100003EH   LINE      CODE     ---       #23
      01000040H   LINE      CODE     ---       #24
      ---         BLOCKEND  ---      ---       LVL=0

      01001092H   BLOCK     CODE     ---       LVL=0
      01001092H   LINE      CODE     ---       #29
      0100109FH   LINE      CODE     ---       #31
      010010A2H   LINE      CODE     ---       #32
      010010A2H   LINE      CODE     ---       #33
      010010A4H   LINE      CODE     ---       #34
      010010AFH   LINE      CODE     ---       #35
      010010B8H   LINE      CODE     ---       #36
      010010B8H   LINE      CODE     ---       #37
      010010BEH   LINE      CODE     ---       #38
      010010D2H   LINE      CODE     ---       #39
      010010D4H   LINE      CODE     ---       #40
      010010DAH   LINE      CODE     ---       #41
      010010DFH   LINE      CODE     ---       #42
      010010DFH   LINE      CODE     ---       #43
      010010DFH   LINE      CODE     ---       #44
      010010E2H   LINE      CODE     ---       #45
      010010E2H   LINE      CODE     ---       #46
      010010E4H   LINE      CODE     ---       #47
      010010E6H   LINE      CODE     ---       #48
      010010E6H   LINE      CODE     ---       #49
      ---         BLOCKEND  ---      ---       LVL=0

      01000003H   BLOCK     CODE     ---       LVL=0
      00000007H   SYMBOL    DATA     CHAR      dat
      01000003H   LINE      CODE     ---       #55
      01000003H   LINE      CODE     ---       #56
      01000003H   LINE      CODE     ---       #57
      01000005H   LINE      CODE     ---       #58
      01000007H   LINE      CODE     ---       #59
      0100000AH   LINE      CODE     ---       #60
      ---         BLOCKEND  ---      ---       LVL=0

      010012C5H   BLOCK     CODE     ---       LVL=0
      020001C5H   SYMBOL    XDATA    ---       s
      010012C5H   LINE      CODE     ---       #65
      010012D0H   LINE      CODE     ---       #66
      010012D0H   LINE      CODE     ---       #67
      010012E0H   LINE      CODE     ---       #68
      010012E0H   LINE      CODE     ---       #69
      010012F5H   LINE      CODE     ---       #70
      010012F7H   LINE      CODE     ---       #71
      ---         BLOCKEND  ---      ---       LVL=0

      0100132BH   BLOCK     CODE     ---       LVL=0
      02000179H   SYMBOL    XDATA    ---       buffer
      00000005H   SYMBOL    DATA     BYTE      datalen
      01001336H   BLOCK     CODE     NEAR LAB  LVL=1
      00000006H   SYMBOL    DATA     BYTE      i
      ---         BLOCKEND  ---      ---       LVL=1
      0100132BH   LINE      CODE     ---       #73
      01001336H   LINE      CODE     ---       #74
      01001336H   LINE      CODE     ---       #76
      0100133DH   LINE      CODE     ---       #77
      01001357H   LINE      CODE     ---       #78
      ---         BLOCKEND  ---      ---       LVL=0

      0100147FH   BLOCK     CODE     ---       LVL=0
      0100147FH   BLOCK     CODE     NEAR LAB  LVL=1
      00000006H   SYMBOL    DATA     INT       i
LX51 LINKER/LOCATER V4.66.66.0                                                        09/27/2018  18:17:15  PAGE 21


      ---         BLOCKEND  ---      ---       LVL=1
      0100147FH   LINE      CODE     ---       #80
      0100147FH   LINE      CODE     ---       #81
      0100147FH   LINE      CODE     ---       #83
      01001482H   LINE      CODE     ---       #84
      01001482H   LINE      CODE     ---       #85
      0100148EH   LINE      CODE     ---       #86
      01001492H   LINE      CODE     ---       #87
      0100149DH   LINE      CODE     ---       #88
      ---         BLOCKEND  ---      ---       LVL=0

      ---         MODULE    ---      ---       UART2
      00000020H.1 PUBLIC    BIT      BIT       busy2
      02000106H   PUBLIC    XDATA    BYTE      uart2RxSta
      02000105H   PUBLIC    XDATA    BYTE      uart2RxCount
      02000086H   PUBLIC    XDATA    ---       UART2_RX_BUF
      02000085H   PUBLIC    XDATA    BYTE      flag_uart2_rx
      02000084H   PUBLIC    XDATA    BYTE      uart2RxTimeOut
      010014E8H   PUBLIC    CODE     ---       clearBuf2
      01001358H   PUBLIC    CODE     ---       _uart2SendData
      010012F8H   PUBLIC    CODE     ---       _UART2_SendString
      010015A5H   PUBLIC    CODE     ---       _SendData
      01001031H   PUBLIC    CODE     ---       Uart2
      010014D0H   PUBLIC    CODE     ---       Uart2Init
      00000080H   SFRSYM    DATA     BYTE      P0
      00000090H   SFRSYM    DATA     BYTE      P1
      000000A0H   SFRSYM    DATA     BYTE      P2
      000000B0H   SFRSYM    DATA     BYTE      P3
      000000B0H.4 SFRSYM    DATA     BIT       T0
      000000D0H.6 SFRSYM    DATA     BIT       AC
      000000B0H.5 SFRSYM    DATA     BIT       T1
      00000090H   SFRSYM    DATA     BIT       T2
      000000A8H.7 SFRSYM    DATA     BIT       EA
      000000A8H   SFRSYM    DATA     BYTE      IE
      000000C8H.6 SFRSYM    DATA     BIT       EXF2
      000000B0H.7 SFRSYM    DATA     BIT       RD
      000000A8H.4 SFRSYM    DATA     BIT       ES
      000000B8H   SFRSYM    DATA     BYTE      IP
      00000098H   SFRSYM    DATA     BIT       RI
      000000B0H.2 SFRSYM    DATA     BIT       INT0
      000000D0H.7 SFRSYM    DATA     BIT       CY
      00000098H.1 SFRSYM    DATA     BIT       TI
      000000B0H.3 SFRSYM    DATA     BIT       INT1
      000000CBH   SFRSYM    DATA     BYTE      RCAP2H
      000000B8H.4 SFRSYM    DATA     BIT       PS
      00000081H   SFRSYM    DATA     BYTE      SP
      00000090H.1 SFRSYM    DATA     BIT       T2EX
      000000D0H.2 SFRSYM    DATA     BIT       OV
      000000CAH   SFRSYM    DATA     BYTE      RCAP2L
      000000C8H.1 SFRSYM    DATA     BIT       C_T2
      000000B0H.6 SFRSYM    DATA     BIT       WR
      000000C8H.5 SFRSYM    DATA     BIT       RCLK
      000000C8H.4 SFRSYM    DATA     BIT       TCLK
      00000099H   SFRSYM    DATA     BYTE      SBUF
      00000087H   SFRSYM    DATA     BYTE      PCON
      00000098H   SFRSYM    DATA     BYTE      SCON
      00000089H   SFRSYM    DATA     BYTE      TMOD
      00000088H   SFRSYM    DATA     BYTE      TCON
      00000088H.1 SFRSYM    DATA     BIT       IE0
      00000088H.3 SFRSYM    DATA     BIT       IE1
      000000AFH   SFRSYM    DATA     BYTE      IE2
      0000008EH   SFRSYM    DATA     BYTE      AUXR
      000000F0H   SFRSYM    DATA     BYTE      B
      000000C8H   SFRSYM    DATA     BIT       CP_RL2
      000000E0H   SFRSYM    DATA     BYTE      ACC
LX51 LINKER/LOCATER V4.66.66.0                                                        09/27/2018  18:17:15  PAGE 22


      000000A8H.1 SFRSYM    DATA     BIT       ET0
      000000A8H.3 SFRSYM    DATA     BIT       ET1
      00000088H.5 SFRSYM    DATA     BIT       TF0
      000000A8H.5 SFRSYM    DATA     BIT       ET2
      00000088H.7 SFRSYM    DATA     BIT       TF1
      000000C8H.7 SFRSYM    DATA     BIT       TF2
      00000098H.2 SFRSYM    DATA     BIT       RB8
      0000008CH   SFRSYM    DATA     BYTE      TH0
      000000A8H   SFRSYM    DATA     BIT       EX0
      00000088H   SFRSYM    DATA     BIT       IT0
      0000008DH   SFRSYM    DATA     BYTE      TH1
      00000098H.3 SFRSYM    DATA     BIT       TB8
      000000A8H.2 SFRSYM    DATA     BIT       EX1
      00000088H.2 SFRSYM    DATA     BIT       IT1
      000000CDH   SFRSYM    DATA     BYTE      TH2
      000000D0H   SFRSYM    DATA     BIT       P
      00000098H.7 SFRSYM    DATA     BIT       SM0
      0000008AH   SFRSYM    DATA     BYTE      TL0
      00000098H.6 SFRSYM    DATA     BIT       SM1
      0000008BH   SFRSYM    DATA     BYTE      TL1
      00000098H.5 SFRSYM    DATA     BIT       SM2
      000000CCH   SFRSYM    DATA     BYTE      TL2
      000000B8H.1 SFRSYM    DATA     BIT       PT0
      000000B8H.3 SFRSYM    DATA     BIT       PT1
      000000D0H.3 SFRSYM    DATA     BIT       RS0
      000000B8H.5 SFRSYM    DATA     BIT       PT2
      00000088H.4 SFRSYM    DATA     BIT       TR0
      000000D0H.4 SFRSYM    DATA     BIT       RS1
      00000088H.6 SFRSYM    DATA     BIT       TR1
      000000C8H.2 SFRSYM    DATA     BIT       TR2
      000000B8H   SFRSYM    DATA     BIT       PX0
      000000B8H.2 SFRSYM    DATA     BIT       PX1
      00000083H   SFRSYM    DATA     BYTE      DPH
      00000082H   SFRSYM    DATA     BYTE      DPL
      0000009BH   SFRSYM    DATA     BYTE      S2BUF
      000000C8H.3 SFRSYM    DATA     BIT       EXEN2
      00000098H.4 SFRSYM    DATA     BIT       REN
      0000009AH   SFRSYM    DATA     BYTE      S2CON
      000000C8H   SFRSYM    DATA     BYTE      T2CON
      0000009CH   SFRSYM    DATA     BYTE      BRT
      000000B0H   SFRSYM    DATA     BIT       RXD
      000000B0H.1 SFRSYM    DATA     BIT       TXD
      000000A2H   SFRSYM    DATA     BYTE      AUXR1
      000000D0H.5 SFRSYM    DATA     BIT       F0
      000000D0H   SFRSYM    DATA     BYTE      PSW

      010014D0H   BLOCK     CODE     ---       LVL=0
      010014D0H   LINE      CODE     ---       #17
      010014D0H   LINE      CODE     ---       #18
      010014D0H   LINE      CODE     ---       #19
      010014D3H   LINE      CODE     ---       #20
      010014DBH   LINE      CODE     ---       #21
      010014DEH   LINE      CODE     ---       #23
      010014E1H   LINE      CODE     ---       #24
      010014E4H   LINE      CODE     ---       #26
      010014E7H   LINE      CODE     ---       #27
      ---         BLOCKEND  ---      ---       LVL=0

      01001031H   BLOCK     CODE     ---       LVL=0
      01001031H   LINE      CODE     ---       #32
      0100103CH   LINE      CODE     ---       #34
      01001041H   LINE      CODE     ---       #35
      01001041H   LINE      CODE     ---       #36
      01001044H   LINE      CODE     ---       #37
      0100104FH   LINE      CODE     ---       #38
LX51 LINKER/LOCATER V4.66.66.0                                                        09/27/2018  18:17:15  PAGE 23


      01001058H   LINE      CODE     ---       #39
      0100105EH   LINE      CODE     ---       #40
      01001072H   LINE      CODE     ---       #41
      01001074H   LINE      CODE     ---       #42
      0100107AH   LINE      CODE     ---       #43
      0100107FH   LINE      CODE     ---       #44
      0100107FH   LINE      CODE     ---       #45
      0100107FH   LINE      CODE     ---       #46
      01001084H   LINE      CODE     ---       #47
      01001084H   LINE      CODE     ---       #48
      01001087H   LINE      CODE     ---       #49
      01001089H   LINE      CODE     ---       #50
      01001089H   LINE      CODE     ---       #51
      ---         BLOCKEND  ---      ---       LVL=0

      010015A5H   BLOCK     CODE     ---       LVL=0
      00000007H   SYMBOL    DATA     BYTE      dat
      010015A5H   LINE      CODE     ---       #56
      010015A5H   LINE      CODE     ---       #57
      010015A5H   LINE      CODE     ---       #58
      010015A7H   LINE      CODE     ---       #59
      010015A9H   LINE      CODE     ---       #60
      010015ACH   LINE      CODE     ---       #61
      ---         BLOCKEND  ---      ---       LVL=0

      010012F8H   BLOCK     CODE     ---       LVL=0
      020001C8H   SYMBOL    XDATA    ---       s
      010012F8H   LINE      CODE     ---       #66
      01001303H   LINE      CODE     ---       #67
      01001303H   LINE      CODE     ---       #68
      01001313H   LINE      CODE     ---       #69
      01001313H   LINE      CODE     ---       #70
      01001328H   LINE      CODE     ---       #71
      0100132AH   LINE      CODE     ---       #72
      ---         BLOCKEND  ---      ---       LVL=0

      01001358H   BLOCK     CODE     ---       LVL=0
      020001CBH   SYMBOL    XDATA    ---       buffer
      00000005H   SYMBOL    DATA     BYTE      datalen
      01001363H   BLOCK     CODE     NEAR LAB  LVL=1
      00000006H   SYMBOL    DATA     BYTE      i
      ---         BLOCKEND  ---      ---       LVL=1
      01001358H   LINE      CODE     ---       #74
      01001363H   LINE      CODE     ---       #75
      01001363H   LINE      CODE     ---       #77
      0100136AH   LINE      CODE     ---       #78
      01001384H   LINE      CODE     ---       #79
      ---         BLOCKEND  ---      ---       LVL=0

      010014E8H   BLOCK     CODE     ---       LVL=0
      010014E8H   BLOCK     CODE     NEAR LAB  LVL=1
      00000007H   SYMBOL    DATA     BYTE      i
      ---         BLOCKEND  ---      ---       LVL=1
      010014E8H   LINE      CODE     ---       #81
      010014E8H   LINE      CODE     ---       #83
      010014EAH   LINE      CODE     ---       #84
      010014F6H   LINE      CODE     ---       #85
      010014FAH   LINE      CODE     ---       #86
      010014FFH   LINE      CODE     ---       #87
      ---         BLOCKEND  ---      ---       LVL=0

      ---         MODULE    ---      ---       ADC
      020001CEH   PUBLIC    XDATA    BYTE      watl_value
      01001568H   PUBLIC    CODE     ---       _get_PH_value
      01001517H   PUBLIC    CODE     ---       _get_WTL_value
LX51 LINKER/LOCATER V4.66.66.0                                                        09/27/2018  18:17:15  PAGE 24


      01001255H   PUBLIC    CODE     ---       _adc_getValue
      010015ADH   PUBLIC    CODE     ---       adc_Init
      00000080H   SFRSYM    DATA     BYTE      P0
      00000090H   SFRSYM    DATA     BYTE      P1
      000000A0H   SFRSYM    DATA     BYTE      P2
      000000B0H   SFRSYM    DATA     BYTE      P3
      000000B0H.4 SFRSYM    DATA     BIT       T0
      000000D0H.6 SFRSYM    DATA     BIT       AC
      000000B0H.5 SFRSYM    DATA     BIT       T1
      00000090H   SFRSYM    DATA     BIT       T2
      000000A8H.7 SFRSYM    DATA     BIT       EA
      000000A8H   SFRSYM    DATA     BYTE      IE
      000000BDH   SFRSYM    DATA     BYTE      ADC_RES
      000000C8H.6 SFRSYM    DATA     BIT       EXF2
      000000B0H.7 SFRSYM    DATA     BIT       RD
      000000A8H.4 SFRSYM    DATA     BIT       ES
      000000B8H   SFRSYM    DATA     BYTE      IP
      00000098H   SFRSYM    DATA     BIT       RI
      000000B0H.2 SFRSYM    DATA     BIT       INT0
      000000D0H.7 SFRSYM    DATA     BIT       CY
      00000098H.1 SFRSYM    DATA     BIT       TI
      000000B0H.3 SFRSYM    DATA     BIT       INT1
      000000CBH   SFRSYM    DATA     BYTE      RCAP2H
      000000B8H.4 SFRSYM    DATA     BIT       PS
      00000081H   SFRSYM    DATA     BYTE      SP
      00000090H.1 SFRSYM    DATA     BIT       T2EX
      000000D0H.2 SFRSYM    DATA     BIT       OV
      000000CAH   SFRSYM    DATA     BYTE      RCAP2L
      000000C8H.1 SFRSYM    DATA     BIT       C_T2
      000000B0H.6 SFRSYM    DATA     BIT       WR
      000000C8H.5 SFRSYM    DATA     BIT       RCLK
      000000C8H.4 SFRSYM    DATA     BIT       TCLK
      000000BCH   SFRSYM    DATA     BYTE      ADC_CONTR
      00000099H   SFRSYM    DATA     BYTE      SBUF
      00000087H   SFRSYM    DATA     BYTE      PCON
      00000098H   SFRSYM    DATA     BYTE      SCON
      00000089H   SFRSYM    DATA     BYTE      TMOD
      00000088H   SFRSYM    DATA     BYTE      TCON
      00000088H.1 SFRSYM    DATA     BIT       IE0
      00000088H.3 SFRSYM    DATA     BIT       IE1
      000000F0H   SFRSYM    DATA     BYTE      B
      000000C8H   SFRSYM    DATA     BIT       CP_RL2
      000000E0H   SFRSYM    DATA     BYTE      ACC
      000000A8H.1 SFRSYM    DATA     BIT       ET0
      000000A8H.3 SFRSYM    DATA     BIT       ET1
      00000088H.5 SFRSYM    DATA     BIT       TF0
      000000A8H.5 SFRSYM    DATA     BIT       ET2
      00000088H.7 SFRSYM    DATA     BIT       TF1
      000000C8H.7 SFRSYM    DATA     BIT       TF2
      00000098H.2 SFRSYM    DATA     BIT       RB8
      0000008CH   SFRSYM    DATA     BYTE      TH0
      000000A8H   SFRSYM    DATA     BIT       EX0
      00000088H   SFRSYM    DATA     BIT       IT0
      0000008DH   SFRSYM    DATA     BYTE      TH1
      00000098H.3 SFRSYM    DATA     BIT       TB8
      000000A8H.2 SFRSYM    DATA     BIT       EX1
      00000088H.2 SFRSYM    DATA     BIT       IT1
      000000CDH   SFRSYM    DATA     BYTE      TH2
      000000D0H   SFRSYM    DATA     BIT       P
      00000098H.7 SFRSYM    DATA     BIT       SM0
      0000008AH   SFRSYM    DATA     BYTE      TL0
      00000098H.6 SFRSYM    DATA     BIT       SM1
      0000008BH   SFRSYM    DATA     BYTE      TL1
      00000098H.5 SFRSYM    DATA     BIT       SM2
      000000CCH   SFRSYM    DATA     BYTE      TL2
LX51 LINKER/LOCATER V4.66.66.0                                                        09/27/2018  18:17:15  PAGE 25


      000000B8H.1 SFRSYM    DATA     BIT       PT0
      000000B8H.3 SFRSYM    DATA     BIT       PT1
      000000D0H.3 SFRSYM    DATA     BIT       RS0
      000000B8H.5 SFRSYM    DATA     BIT       PT2
      00000088H.4 SFRSYM    DATA     BIT       TR0
      000000D0H.4 SFRSYM    DATA     BIT       RS1
      00000088H.6 SFRSYM    DATA     BIT       TR1
      000000C8H.2 SFRSYM    DATA     BIT       TR2
      000000B8H   SFRSYM    DATA     BIT       PX0
      000000B8H.2 SFRSYM    DATA     BIT       PX1
      0000009DH   SFRSYM    DATA     BYTE      P1ASF
      00000083H   SFRSYM    DATA     BYTE      DPH
      000000BEH   SFRSYM    DATA     BYTE      ADC_RESL
      00000082H   SFRSYM    DATA     BYTE      DPL
      000000C8H.3 SFRSYM    DATA     BIT       EXEN2
      00000098H.4 SFRSYM    DATA     BIT       REN
      000000C8H   SFRSYM    DATA     BYTE      T2CON
      000000B0H   SFRSYM    DATA     BIT       RXD
      000000B0H.1 SFRSYM    DATA     BIT       TXD
      000000D0H.5 SFRSYM    DATA     BIT       F0
      000000D0H   SFRSYM    DATA     BYTE      PSW

      010015ADH   BLOCK     CODE     ---       LVL=0
      010015ADH   LINE      CODE     ---       #5
      010015ADH   LINE      CODE     ---       #6
      010015ADH   LINE      CODE     ---       #7
      010015B0H   LINE      CODE     ---       #8
      010015B3H   LINE      CODE     ---       #9
      ---         BLOCKEND  ---      ---       LVL=0

      01001255H   BLOCK     CODE     ---       LVL=0
      00000007H   SYMBOL    DATA     BYTE      channel
      01001255H   BLOCK     CODE     NEAR LAB  LVL=1
      00000004H   SYMBOL    DATA     WORD      adc
      00000006H   SYMBOL    DATA     BYTE      i
      ---         BLOCKEND  ---      ---       LVL=1
      01001255H   LINE      CODE     ---       #11
      01001255H   LINE      CODE     ---       #12
      01001255H   LINE      CODE     ---       #14
      01001257H   LINE      CODE     ---       #16
      0100125AH   LINE      CODE     ---       #17
      0100125CH   LINE      CODE     ---       #19
      01001265H   LINE      CODE     ---       #20
      01001265H   LINE      CODE     ---       #21
      0100126AH   LINE      CODE     ---       #22
      0100126AH   LINE      CODE     ---       #23
      0100126DH   LINE      CODE     ---       #24
      01001273H   LINE      CODE     ---       #25
      01001286H   LINE      CODE     ---       #26
      01001288H   LINE      CODE     ---       #27
      01001288H   LINE      CODE     ---       #28
      0100128AH   LINE      CODE     ---       #29
      0100128EH   LINE      CODE     ---       #30
      ---         BLOCKEND  ---      ---       LVL=0

      01001517H   BLOCK     CODE     ---       LVL=0
      02000177H   SYMBOL    XDATA    ---       str
      01001517H   LINE      CODE     ---       #33
      01001522H   LINE      CODE     ---       #34
      01001522H   LINE      CODE     ---       #35
      0100152CH   LINE      CODE     ---       #37
      0100152CH   LINE      CODE     ---       #38
      ---         BLOCKEND  ---      ---       LVL=0

      01001568H   BLOCK     CODE     ---       LVL=0
LX51 LINKER/LOCATER V4.66.66.0                                                        09/27/2018  18:17:15  PAGE 26


      02000177H   SYMBOL    XDATA    ---       str
      01001573H   BLOCK     CODE     NEAR LAB  LVL=1
      00000007H   SYMBOL    DATA     BYTE      sdata
      ---         BLOCKEND  ---      ---       LVL=1
      01001568H   LINE      CODE     ---       #40
      01001573H   LINE      CODE     ---       #41
      01001573H   LINE      CODE     ---       #43
      01001578H   LINE      CODE     ---       #45
      01001578H   LINE      CODE     ---       #46
      ---         BLOCKEND  ---      ---       LVL=0

      ---         MODULE    ---      ---       MAIN
      01000F32H   PUBLIC    CODE     ---       display_background
      01001556H   PUBLIC    CODE     ---       bsp_init
      01000FB4H   PUBLIC    CODE     ---       main
      00000080H   SFRSYM    DATA     BYTE      P0
      00000090H   SFRSYM    DATA     BYTE      P1
      000000A0H   SFRSYM    DATA     BYTE      P2
      000000B0H   SFRSYM    DATA     BYTE      P3
      000000B0H.4 SFRSYM    DATA     BIT       T0
      000000D0H.6 SFRSYM    DATA     BIT       AC
      000000B0H.5 SFRSYM    DATA     BIT       T1
      00000090H   SFRSYM    DATA     BIT       T2
      000000A8H.7 SFRSYM    DATA     BIT       EA
      000000A8H   SFRSYM    DATA     BYTE      IE
      000000BDH   SFRSYM    DATA     BYTE      ADC_RES
      000000C8H.6 SFRSYM    DATA     BIT       EXF2
      000000B0H.7 SFRSYM    DATA     BIT       RD
      000000A8H.4 SFRSYM    DATA     BIT       ES
      000000B8H   SFRSYM    DATA     BYTE      IP
      00000098H   SFRSYM    DATA     BIT       RI
      000000B0H.2 SFRSYM    DATA     BIT       INT0
      000000D0H.7 SFRSYM    DATA     BIT       CY
      00000098H.1 SFRSYM    DATA     BIT       TI
      000000B0H.3 SFRSYM    DATA     BIT       INT1
      000000CBH   SFRSYM    DATA     BYTE      RCAP2H
      000000B8H.4 SFRSYM    DATA     BIT       PS
      00000081H   SFRSYM    DATA     BYTE      SP
      00000090H.1 SFRSYM    DATA     BIT       T2EX
      000000D0H.2 SFRSYM    DATA     BIT       OV
      000000A0H.1 SFRSYM    DATA     BIT       reset
      000000CAH   SFRSYM    DATA     BYTE      RCAP2L
      000000C8H.1 SFRSYM    DATA     BIT       C_T2
      000000B0H.6 SFRSYM    DATA     BIT       WR
      000000C8H.5 SFRSYM    DATA     BIT       RCLK
      000000C8H.4 SFRSYM    DATA     BIT       TCLK
      000000BCH   SFRSYM    DATA     BYTE      ADC_CONTR
      00000099H   SFRSYM    DATA     BYTE      SBUF
      00000087H   SFRSYM    DATA     BYTE      PCON
      00000098H   SFRSYM    DATA     BYTE      SCON
      00000089H   SFRSYM    DATA     BYTE      TMOD
      00000088H   SFRSYM    DATA     BYTE      TCON
      000000A0H.3 SFRSYM    DATA     BIT       sda
      00000080H.1 SFRSYM    DATA     BIT       IO_PUMP
      00000088H.1 SFRSYM    DATA     BIT       IE0
      00000088H.3 SFRSYM    DATA     BIT       IE1
      000000F0H   SFRSYM    DATA     BYTE      B
      000000A0H.5 SFRSYM    DATA     BIT       scl
      000000C8H   SFRSYM    DATA     BIT       CP_RL2
      000000E0H   SFRSYM    DATA     BYTE      ACC
      000000A8H.1 SFRSYM    DATA     BIT       ET0
      000000A8H.3 SFRSYM    DATA     BIT       ET1
      00000088H.5 SFRSYM    DATA     BIT       TF0
      000000A8H.5 SFRSYM    DATA     BIT       ET2
      00000088H.7 SFRSYM    DATA     BIT       TF1
LX51 LINKER/LOCATER V4.66.66.0                                                        09/27/2018  18:17:15  PAGE 27


      000000C8H.7 SFRSYM    DATA     BIT       TF2
      00000098H.2 SFRSYM    DATA     BIT       RB8
      0000008CH   SFRSYM    DATA     BYTE      TH0
      000000A8H   SFRSYM    DATA     BIT       EX0
      00000088H   SFRSYM    DATA     BIT       IT0
      0000008DH   SFRSYM    DATA     BYTE      TH1
      000000A0H.4 SFRSYM    DATA     BIT       bl
      00000098H.3 SFRSYM    DATA     BIT       TB8
      000000A8H.2 SFRSYM    DATA     BIT       EX1
      00000088H.2 SFRSYM    DATA     BIT       IT1
      000000CDH   SFRSYM    DATA     BYTE      TH2
      000000D0H   SFRSYM    DATA     BIT       P
      00000098H.7 SFRSYM    DATA     BIT       SM0
      0000008AH   SFRSYM    DATA     BYTE      TL0
      00000098H.6 SFRSYM    DATA     BIT       SM1
      0000008BH   SFRSYM    DATA     BYTE      TL1
      00000098H.5 SFRSYM    DATA     BIT       SM2
      000000CCH   SFRSYM    DATA     BYTE      TL2
      000000B8H.1 SFRSYM    DATA     BIT       PT0
      000000B8H.3 SFRSYM    DATA     BIT       PT1
      000000D0H.3 SFRSYM    DATA     BIT       RS0
      000000A0H   SFRSYM    DATA     BIT       cs
      000000B8H.5 SFRSYM    DATA     BIT       PT2
      00000088H.4 SFRSYM    DATA     BIT       TR0
      000000D0H.4 SFRSYM    DATA     BIT       RS1
      00000088H.6 SFRSYM    DATA     BIT       TR1
      000000C8H.2 SFRSYM    DATA     BIT       TR2
      000000B8H   SFRSYM    DATA     BIT       PX0
      000000B8H.2 SFRSYM    DATA     BIT       PX1
      0000009DH   SFRSYM    DATA     BYTE      P1ASF
      00000083H   SFRSYM    DATA     BYTE      DPH
      000000BEH   SFRSYM    DATA     BYTE      ADC_RESL
      00000082H   SFRSYM    DATA     BYTE      DPL
      000000C8H.3 SFRSYM    DATA     BIT       EXEN2
      000000A0H.2 SFRSYM    DATA     BIT       rs
      00000098H.4 SFRSYM    DATA     BIT       REN
      000000C8H   SFRSYM    DATA     BYTE      T2CON
      000000B0H   SFRSYM    DATA     BIT       RXD
      000000B0H.1 SFRSYM    DATA     BIT       TXD
      000000D0H.5 SFRSYM    DATA     BIT       F0
      000000D0H   SFRSYM    DATA     BYTE      PSW

      01000FB4H   BLOCK     CODE     ---       LVL=0
      01000FB4H   LINE      CODE     ---       #15
      01000FB4H   LINE      CODE     ---       #16
      01000FB4H   LINE      CODE     ---       #17
      01000FB7H   LINE      CODE     ---       #18
      01000FB7H   LINE      CODE     ---       #19
      01000FB7H   LINE      CODE     ---       #20
      01000FBDH   LINE      CODE     ---       #21
      01000FBDH   LINE      CODE     ---       #22
      01000FC0H   LINE      CODE     ---       #23
      01000FC5H   LINE      CODE     ---       #24
      01000FC5H   LINE      CODE     ---       #25
      01000FCBH   LINE      CODE     ---       #26
      01000FCBH   LINE      CODE     ---       #27
      01000FCEH   LINE      CODE     ---       #28
      01000FD3H   LINE      CODE     ---       #29
      01000FD3H   LINE      CODE     ---       #30
      01000FD9H   LINE      CODE     ---       #31
      01000FD9H   LINE      CODE     ---       #32
      01000FDCH   LINE      CODE     ---       #33
      01000FE1H   LINE      CODE     ---       #34
      01000FE1H   LINE      CODE     ---       #36
      01000FE7H   LINE      CODE     ---       #37
LX51 LINKER/LOCATER V4.66.66.0                                                        09/27/2018  18:17:15  PAGE 28


      01000FE7H   LINE      CODE     ---       #38
      01000FEDH   LINE      CODE     ---       #39
      01000FEDH   LINE      CODE     ---       #40
      01000FF6H   LINE      CODE     ---       #41
      01000FF9H   LINE      CODE     ---       #42
      01000FFEH   LINE      CODE     ---       #43
      01001002H   LINE      CODE     ---       #44
      01001002H   LINE      CODE     ---       #45
      01001013H   LINE      CODE     ---       #46
      01001015H   LINE      CODE     ---       #47
      01001017H   LINE      CODE     ---       #48
      01001017H   LINE      CODE     ---       #49
      0100101DH   LINE      CODE     ---       #50
      0100101DH   LINE      CODE     ---       #52
      01001026H   LINE      CODE     ---       #53
      0100102BH   LINE      CODE     ---       #54
      0100102FH   LINE      CODE     ---       #55
      0100102FH   LINE      CODE     ---       #56
      0100102FH   LINE      CODE     ---       #57
      ---         BLOCKEND  ---      ---       LVL=0

      01001556H   BLOCK     CODE     ---       LVL=0
      01001556H   LINE      CODE     ---       #60
      01001556H   LINE      CODE     ---       #61
      01001556H   LINE      CODE     ---       #62
      01001559H   LINE      CODE     ---       #63
      0100155CH   LINE      CODE     ---       #64
      0100155FH   LINE      CODE     ---       #65
      01001562H   LINE      CODE     ---       #66
      01001565H   LINE      CODE     ---       #67
      ---         BLOCKEND  ---      ---       LVL=0

      01000F32H   BLOCK     CODE     ---       LVL=0
      01000F32H   LINE      CODE     ---       #69
      01000F32H   LINE      CODE     ---       #70
      01000F32H   LINE      CODE     ---       #71
      01000F39H   LINE      CODE     ---       #72
      01000F5AH   LINE      CODE     ---       #73
      01000F78H   LINE      CODE     ---       #74
      01000F96H   LINE      CODE     ---       #75
      ---         BLOCKEND  ---      ---       LVL=0

      ---         MODULE    ---      ---       TFT_LCD
      010017B2H   PUBLIC    CONST    ---       Zk_ASCII8X16
      010015B4H   PUBLIC    CONST    ---       hz16
      0200018BH   PUBLIC    XDATA    BYTE      ?_Gui_DrawFont_GBK16?BYTE
      010002EEH   PUBLIC    CODE     ---       _Gui_DrawFont_GBK16
      02000173H   PUBLIC    XDATA    BYTE      ?_Fast_DrawFont_GBK16?BYTE
      01000AA7H   PUBLIC    CODE     ---       _Fast_DrawFont_GBK16
      0100090FH   PUBLIC    CODE     ---       _Display_ASCII8X16
      02000107H   PUBLIC    XDATA    BYTE      ?_Display_ASCII8X16_Color?BYTE
      01000576H   PUBLIC    CODE     ---       _Display_ASCII8X16_Color
      0100128FH   PUBLIC    CODE     ---       _dsp_single_colour
      010010F6H   PUBLIC    CODE     ---       _PutPixel
      02000182H   PUBLIC    XDATA    BYTE      ?_Lcd_SetRegion?BYTE
      010011D8H   PUBLIC    CODE     ---       _Lcd_SetRegion
      0100075EH   PUBLIC    CODE     ---       lcd_initial
      01001579H   PUBLIC    CODE     ---       Lcd_Reset
      0100149EH   PUBLIC    CODE     ---       _LCD_WriteData_16Bit
      01001534H   PUBLIC    CODE     ---       _Lcd_WriteData
      01001592H   PUBLIC    CODE     ---       _Lcd_WriteIndex
      01001500H   PUBLIC    CODE     ---       _SPI_WriteData
      0100143FH   PUBLIC    CODE     ---       _lcd_delay_ms
      00000080H   SFRSYM    DATA     BYTE      P0
      00000090H   SFRSYM    DATA     BYTE      P1
LX51 LINKER/LOCATER V4.66.66.0                                                        09/27/2018  18:17:15  PAGE 29


      000000A0H   SFRSYM    DATA     BYTE      P2
      000000B0H   SFRSYM    DATA     BYTE      P3
      000000B0H.4 SFRSYM    DATA     BIT       T0
      000000D0H.6 SFRSYM    DATA     BIT       AC
      000000B0H.5 SFRSYM    DATA     BIT       T1
      00000090H   SFRSYM    DATA     BIT       T2
      000000A8H.7 SFRSYM    DATA     BIT       EA
      000000A8H   SFRSYM    DATA     BYTE      IE
      000000C8H.6 SFRSYM    DATA     BIT       EXF2
      000000B0H.7 SFRSYM    DATA     BIT       RD
      000000A8H.4 SFRSYM    DATA     BIT       ES
      000000B8H   SFRSYM    DATA     BYTE      IP
      00000098H   SFRSYM    DATA     BIT       RI
      000000B0H.2 SFRSYM    DATA     BIT       INT0
      000000D0H.7 SFRSYM    DATA     BIT       CY
      00000098H.1 SFRSYM    DATA     BIT       TI
      000000B0H.3 SFRSYM    DATA     BIT       INT1
      000000CBH   SFRSYM    DATA     BYTE      RCAP2H
      000000B8H.4 SFRSYM    DATA     BIT       PS
      00000081H   SFRSYM    DATA     BYTE      SP
      00000090H.1 SFRSYM    DATA     BIT       T2EX
      000000D0H.2 SFRSYM    DATA     BIT       OV
      000000A0H.1 SFRSYM    DATA     BIT       reset
      000000CAH   SFRSYM    DATA     BYTE      RCAP2L
      000000C8H.1 SFRSYM    DATA     BIT       C_T2
      000000B0H.6 SFRSYM    DATA     BIT       WR
      000000C8H.5 SFRSYM    DATA     BIT       RCLK
      000000C8H.4 SFRSYM    DATA     BIT       TCLK
      00000099H   SFRSYM    DATA     BYTE      SBUF
      00000087H   SFRSYM    DATA     BYTE      PCON
      00000098H   SFRSYM    DATA     BYTE      SCON
      00000089H   SFRSYM    DATA     BYTE      TMOD
      00000088H   SFRSYM    DATA     BYTE      TCON
      000000A0H.3 SFRSYM    DATA     BIT       sda
      00000088H.1 SFRSYM    DATA     BIT       IE0
      00000088H.3 SFRSYM    DATA     BIT       IE1
      000000F0H   SFRSYM    DATA     BYTE      B
      000000A0H.5 SFRSYM    DATA     BIT       scl
      000000C8H   SFRSYM    DATA     BIT       CP_RL2
      000000E0H   SFRSYM    DATA     BYTE      ACC
      000000A8H.1 SFRSYM    DATA     BIT       ET0
      000000A8H.3 SFRSYM    DATA     BIT       ET1
      00000088H.5 SFRSYM    DATA     BIT       TF0
      000000A8H.5 SFRSYM    DATA     BIT       ET2
      00000088H.7 SFRSYM    DATA     BIT       TF1
      000000C8H.7 SFRSYM    DATA     BIT       TF2
      00000098H.2 SFRSYM    DATA     BIT       RB8
      0000008CH   SFRSYM    DATA     BYTE      TH0
      000000A8H   SFRSYM    DATA     BIT       EX0
      00000088H   SFRSYM    DATA     BIT       IT0
      0000008DH   SFRSYM    DATA     BYTE      TH1
      000000A0H.4 SFRSYM    DATA     BIT       bl
      00000098H.3 SFRSYM    DATA     BIT       TB8
      000000A8H.2 SFRSYM    DATA     BIT       EX1
      00000088H.2 SFRSYM    DATA     BIT       IT1
      000000CDH   SFRSYM    DATA     BYTE      TH2
      000000D0H   SFRSYM    DATA     BIT       P
      00000098H.7 SFRSYM    DATA     BIT       SM0
      0000008AH   SFRSYM    DATA     BYTE      TL0
      00000098H.6 SFRSYM    DATA     BIT       SM1
      0000008BH   SFRSYM    DATA     BYTE      TL1
      00000098H.5 SFRSYM    DATA     BIT       SM2
      000000CCH   SFRSYM    DATA     BYTE      TL2
      000000B8H.1 SFRSYM    DATA     BIT       PT0
      000000B8H.3 SFRSYM    DATA     BIT       PT1
LX51 LINKER/LOCATER V4.66.66.0                                                        09/27/2018  18:17:15  PAGE 30


      000000D0H.3 SFRSYM    DATA     BIT       RS0
      000000A0H   SFRSYM    DATA     BIT       cs
      000000B8H.5 SFRSYM    DATA     BIT       PT2
      00000088H.4 SFRSYM    DATA     BIT       TR0
      000000D0H.4 SFRSYM    DATA     BIT       RS1
      00000088H.6 SFRSYM    DATA     BIT       TR1
      000000C8H.2 SFRSYM    DATA     BIT       TR2
      000000B8H   SFRSYM    DATA     BIT       PX0
      000000B8H.2 SFRSYM    DATA     BIT       PX1
      00000083H   SFRSYM    DATA     BYTE      DPH
      00000082H   SFRSYM    DATA     BYTE      DPL
      000000C8H.3 SFRSYM    DATA     BIT       EXEN2
      000000A0H.2 SFRSYM    DATA     BIT       rs
      00000098H.4 SFRSYM    DATA     BIT       REN
      000000C8H   SFRSYM    DATA     BYTE      T2CON
      000000B0H   SFRSYM    DATA     BIT       RXD
      000000B0H.1 SFRSYM    DATA     BIT       TXD
      000000D0H.5 SFRSYM    DATA     BIT       F0
      000000D0H   SFRSYM    DATA     BYTE      PSW

      0100143FH   BLOCK     CODE     ---       LVL=0
      00000006H   SYMBOL    DATA     WORD      time
      0100143FH   BLOCK     CODE     NEAR LAB  LVL=1
      00000004H   SYMBOL    DATA     WORD      i
      00000002H   SYMBOL    DATA     WORD      j
      ---         BLOCKEND  ---      ---       LVL=1
      0100143FH   LINE      CODE     ---       #360
      0100143FH   LINE      CODE     ---       #361
      0100143FH   LINE      CODE     ---       #363
      01001449H   LINE      CODE     ---       #364
      0100145EH   LINE      CODE     ---       #365
      ---         BLOCKEND  ---      ---       LVL=0

      01001500H   BLOCK     CODE     ---       LVL=0
      00000007H   SYMBOL    DATA     BYTE      Data
      01001500H   BLOCK     CODE     NEAR LAB  LVL=1
      00000006H   SYMBOL    DATA     BYTE      i
      ---         BLOCKEND  ---      ---       LVL=1
      01001500H   LINE      CODE     ---       #369
      01001500H   LINE      CODE     ---       #370
      01001500H   LINE      CODE     ---       #371
      01001500H   LINE      CODE     ---       #372
      01001502H   LINE      CODE     ---       #373
      01001502H   LINE      CODE     ---       #374
      01001506H   LINE      CODE     ---       #375
      0100150AH   LINE      CODE     ---       #376
      0100150CH   LINE      CODE     ---       #377
      0100150EH   LINE      CODE     ---       #378
      01001510H   LINE      CODE     ---       #379
      01001514H   LINE      CODE     ---       #380
      01001516H   LINE      CODE     ---       #381
      ---         BLOCKEND  ---      ---       LVL=0

      01001592H   BLOCK     CODE     ---       LVL=0
      00000007H   SYMBOL    DATA     BYTE      Data
      01001592H   LINE      CODE     ---       #383
      01001592H   LINE      CODE     ---       #384
      01001592H   LINE      CODE     ---       #386
      01001594H   LINE      CODE     ---       #387
      01001596H   LINE      CODE     ---       #388
      01001599H   LINE      CODE     ---       #389
      0100159BH   LINE      CODE     ---       #390
      ---         BLOCKEND  ---      ---       LVL=0

      0100152DH   BLOCK     CODE     ---       LVL=0
LX51 LINKER/LOCATER V4.66.66.0                                                        09/27/2018  18:17:15  PAGE 31


      ---         BLOCKEND  ---      ---       LVL=0

      01001534H   BLOCK     CODE     ---       LVL=0
      00000007H   SYMBOL    DATA     BYTE      Data
      0200018AH   SYMBOL    XDATA    BYTE      i
      01001534H   BLOCK     CODE     NEAR LAB  LVL=1
      0200018AH   SYMBOL    XDATA    BYTE      i
      ---         BLOCKEND  ---      ---       LVL=1
      01001534H   LINE      CODE     ---       #392
      01001534H   LINE      CODE     ---       #393
      01001534H   LINE      CODE     ---       #394
      01001539H   LINE      CODE     ---       #395
      0100153BH   LINE      CODE     ---       #396
      0100153DH   LINE      CODE     ---       #397
      01001540H   LINE      CODE     ---       #398
      01001542H   LINE      CODE     ---       #399
      ---         BLOCKEND  ---      ---       LVL=0

      0100149EH   BLOCK     CODE     ---       LVL=0
      00000004H   SYMBOL    DATA     WORD      Data
      010014A2H   BLOCK     CODE     NEAR LAB  LVL=1
      02000182H   SYMBOL    XDATA    BYTE      i
      ---         BLOCKEND  ---      ---       LVL=1
      0100149EH   LINE      CODE     ---       #401
      010014A2H   LINE      CODE     ---       #402
      010014A2H   LINE      CODE     ---       #403
      010014A7H   LINE      CODE     ---       #404
      010014A9H   LINE      CODE     ---       #405
      010014ABH   LINE      CODE     ---       #406
      010014B0H   LINE      CODE     ---       #407
      010014B5H   LINE      CODE     ---       #408
      010014B7H   LINE      CODE     ---       #410
      ---         BLOCKEND  ---      ---       LVL=0

      01001579H   BLOCK     CODE     ---       LVL=0
      01001579H   LINE      CODE     ---       #412
      01001579H   LINE      CODE     ---       #413
      01001579H   LINE      CODE     ---       #414
      0100157BH   LINE      CODE     ---       #415
      01001582H   LINE      CODE     ---       #416
      01001584H   LINE      CODE     ---       #417
      ---         BLOCKEND  ---      ---       LVL=0

      0100075EH   BLOCK     CODE     ---       LVL=0
      0100075EH   LINE      CODE     ---       #421
      0100075EH   LINE      CODE     ---       #422
      0100075EH   LINE      CODE     ---       #423
      01000761H   LINE      CODE     ---       #426
      01000766H   LINE      CODE     ---       #427
      0100076DH   LINE      CODE     ---       #430
      01000772H   LINE      CODE     ---       #431
      01000777H   LINE      CODE     ---       #432
      0100077CH   LINE      CODE     ---       #433
      01000781H   LINE      CODE     ---       #435
      01000786H   LINE      CODE     ---       #436
      0100078BH   LINE      CODE     ---       #437
      01000790H   LINE      CODE     ---       #438
      01000795H   LINE      CODE     ---       #440
      0100079AH   LINE      CODE     ---       #441
      0100079FH   LINE      CODE     ---       #442
      010007A4H   LINE      CODE     ---       #443
      010007A9H   LINE      CODE     ---       #444
      010007AEH   LINE      CODE     ---       #445
      010007B3H   LINE      CODE     ---       #446
      010007B8H   LINE      CODE     ---       #448
LX51 LINKER/LOCATER V4.66.66.0                                                        09/27/2018  18:17:15  PAGE 32


      010007BDH   LINE      CODE     ---       #449
      010007C2H   LINE      CODE     ---       #452
      010007C7H   LINE      CODE     ---       #453
      010007CCH   LINE      CODE     ---       #454
      010007D1H   LINE      CODE     ---       #455
      010007D6H   LINE      CODE     ---       #456
      010007DBH   LINE      CODE     ---       #457
      010007E0H   LINE      CODE     ---       #459
      010007E5H   LINE      CODE     ---       #460
      010007EAH   LINE      CODE     ---       #461
      010007EFH   LINE      CODE     ---       #463
      010007F4H   LINE      CODE     ---       #464
      010007F9H   LINE      CODE     ---       #465
      010007FEH   LINE      CODE     ---       #466
      01000803H   LINE      CODE     ---       #467
      01000808H   LINE      CODE     ---       #468
      0100080DH   LINE      CODE     ---       #470
      01000812H   LINE      CODE     ---       #471
      01000817H   LINE      CODE     ---       #473
      0100081CH   LINE      CODE     ---       #477
      01000821H   LINE      CODE     ---       #480
      01000826H   LINE      CODE     ---       #481
      0100082BH   LINE      CODE     ---       #482
      01000830H   LINE      CODE     ---       #483
      01000835H   LINE      CODE     ---       #484
      0100083AH   LINE      CODE     ---       #485
      0100083FH   LINE      CODE     ---       #486
      01000844H   LINE      CODE     ---       #487
      01000849H   LINE      CODE     ---       #488
      0100084EH   LINE      CODE     ---       #489
      01000853H   LINE      CODE     ---       #490
      01000858H   LINE      CODE     ---       #491
      0100085DH   LINE      CODE     ---       #492
      01000862H   LINE      CODE     ---       #493
      01000867H   LINE      CODE     ---       #494
      0100086CH   LINE      CODE     ---       #495
      01000871H   LINE      CODE     ---       #496
      01000876H   LINE      CODE     ---       #498
      0100087BH   LINE      CODE     ---       #499
      01000880H   LINE      CODE     ---       #500
      01000885H   LINE      CODE     ---       #501
      0100088AH   LINE      CODE     ---       #502
      0100088FH   LINE      CODE     ---       #503
      01000894H   LINE      CODE     ---       #504
      01000899H   LINE      CODE     ---       #505
      0100089EH   LINE      CODE     ---       #506
      010008A3H   LINE      CODE     ---       #507
      010008A8H   LINE      CODE     ---       #508
      010008ADH   LINE      CODE     ---       #509
      010008B2H   LINE      CODE     ---       #510
      010008B7H   LINE      CODE     ---       #511
      010008BCH   LINE      CODE     ---       #512
      010008C1H   LINE      CODE     ---       #513
      010008C6H   LINE      CODE     ---       #514
      010008CBH   LINE      CODE     ---       #516
      010008CBH   LINE      CODE     ---       #517
      010008CEH   LINE      CODE     ---       #518
      010008D3H   LINE      CODE     ---       #519
      010008D8H   LINE      CODE     ---       #520
      010008DDH   LINE      CODE     ---       #522
      010008DFH   LINE      CODE     ---       #523
      010008E2H   LINE      CODE     ---       #524
      010008E7H   LINE      CODE     ---       #525
      010008ECH   LINE      CODE     ---       #526
      010008F1H   LINE      CODE     ---       #528
LX51 LINKER/LOCATER V4.66.66.0                                                        09/27/2018  18:17:15  PAGE 33


      010008F6H   LINE      CODE     ---       #529
      010008FBH   LINE      CODE     ---       #530
      010008FDH   LINE      CODE     ---       #531
      01000900H   LINE      CODE     ---       #533
      01000905H   LINE      CODE     ---       #534
      0100090AH   LINE      CODE     ---       #537
      ---         BLOCKEND  ---      ---       LVL=0

      010011D8H   BLOCK     CODE     ---       LVL=0
      02000182H   SYMBOL    XDATA    WORD      x_start
      00000004H   SYMBOL    DATA     WORD      y_start
      00000002H   SYMBOL    DATA     WORD      x_end
      02000188H   SYMBOL    XDATA    WORD      y_end
      010011D8H   LINE      CODE     ---       #549
      010011E0H   LINE      CODE     ---       #550
      010011E0H   LINE      CODE     ---       #565
      010011E0H   LINE      CODE     ---       #566
      010011E3H   LINE      CODE     ---       #567
      010011EEH   LINE      CODE     ---       #568
      010011F3H   LINE      CODE     ---       #569
      010011FAH   LINE      CODE     ---       #571
      010011FCH   LINE      CODE     ---       #572
      010011FFH   LINE      CODE     ---       #573
      01001206H   LINE      CODE     ---       #574
      0100120BH   LINE      CODE     ---       #575
      01001216H   LINE      CODE     ---       #577
      ---         BLOCKEND  ---      ---       LVL=0

      010010F1H   BLOCK     CODE     ---       LVL=0
      ---         BLOCKEND  ---      ---       LVL=0

      010010F6H   BLOCK     CODE     ---       LVL=0
      020001BBH   SYMBOL    XDATA    WORD      x_start
      020001BDH   SYMBOL    XDATA    WORD      y_start
      020001BFH   SYMBOL    XDATA    WORD      color
      010010F6H   LINE      CODE     ---       #581
      0100110EH   LINE      CODE     ---       #582
      0100110EH   LINE      CODE     ---       #583
      0100113AH   LINE      CODE     ---       #584
      ---         BLOCKEND  ---      ---       LVL=0

      0100128FH   BLOCK     CODE     ---       LVL=0
      02000173H   SYMBOL    XDATA    INT       color
      01001297H   BLOCK     CODE     NEAR LAB  LVL=1
      00000003H   SYMBOL    DATA     BYTE      i
      00000002H   SYMBOL    DATA     BYTE      j
      ---         BLOCKEND  ---      ---       LVL=1
      0100128FH   LINE      CODE     ---       #590
      01001297H   LINE      CODE     ---       #591
      01001297H   LINE      CODE     ---       #593
      010012ABH   LINE      CODE     ---       #594
      010012ADH   LINE      CODE     ---       #595
      010012AFH   LINE      CODE     ---       #596
      010012C4H   LINE      CODE     ---       #597
      ---         BLOCKEND  ---      ---       LVL=0

      01000576H   BLOCK     CODE     ---       LVL=0
      02000107H   SYMBOL    XDATA    WORD      x0
      02000109H   SYMBOL    XDATA    WORD      y0
      0200010BH   SYMBOL    XDATA    ---       s
      0200010EH   SYMBOL    XDATA    WORD      forecolor
      02000110H   SYMBOL    XDATA    WORD      backgroundcolor
      0100058DH   BLOCK     CODE     NEAR LAB  LVL=1
      02000112H   SYMBOL    XDATA    INT       i
      00000002H   SYMBOL    DATA     INT       j
LX51 LINKER/LOCATER V4.66.66.0                                                        09/27/2018  18:17:15  PAGE 34


      00000004H   SYMBOL    DATA     INT       k
      02000114H   SYMBOL    XDATA    INT       x
      02000116H   SYMBOL    XDATA    INT       y
      02000118H   SYMBOL    XDATA    INT       xx
      00000007H   SYMBOL    DATA     BYTE      qm
      0200011AH   SYMBOL    XDATA    LONG      ulOffset
      0200011EH   SYMBOL    XDATA    ---       ywbuf
      0200013EH   SYMBOL    XDATA    ---       temp
      ---         BLOCKEND  ---      ---       LVL=1
      01000576H   LINE      CODE     ---       #601
      0100058DH   LINE      CODE     ---       #602
      0100058DH   LINE      CODE     ---       #611
      010005B3H   LINE      CODE     ---       #612
      010005B3H   LINE      CODE     ---       #613
      010005CBH   LINE      CODE     ---       #614
      010005CBH   LINE      CODE     ---       #615
      010005D0H   LINE      CODE     ---       #616
      010005D4H   LINE      CODE     ---       #618
      010005D4H   LINE      CODE     ---       #620
      010005D4H   LINE      CODE     ---       #621
      010005EEH   LINE      CODE     ---       #623
      01000600H   LINE      CODE     ---       #625
      01000603H   LINE      CODE     ---       #626
      01000603H   LINE      CODE     ---       #627
      0100062AH   LINE      CODE     ---       #628
      01000635H   LINE      CODE     ---       #630
      0100063CH   LINE      CODE     ---       #631
      0100063CH   LINE      CODE     ---       #632
      01000658H   LINE      CODE     ---       #633
      01000658H   LINE      CODE     ---       #634
      0100065FH   LINE      CODE     ---       #636
      0100068EH   LINE      CODE     ---       #637
      0100068EH   LINE      CODE     ---       #638
      010006BEH   LINE      CODE     ---       #639
      010006CDH   LINE      CODE     ---       #640
      010006CFH   LINE      CODE     ---       #642
      010006CFH   LINE      CODE     ---       #643
      010006FFH   LINE      CODE     ---       #644
      01000719H   LINE      CODE     ---       #645
      01000719H   LINE      CODE     ---       #646
      0100072AH   LINE      CODE     ---       #647
      0100074CH   LINE      CODE     ---       #648
      0100074CH   LINE      CODE     ---       #649
      0100075DH   LINE      CODE     ---       #650
      ---         BLOCKEND  ---      ---       LVL=0

      0100090FH   BLOCK     CODE     ---       LVL=0
      02000140H   SYMBOL    XDATA    WORD      x0
      02000142H   SYMBOL    XDATA    WORD      y0
      02000144H   SYMBOL    XDATA    ---       s
      01000926H   BLOCK     CODE     NEAR LAB  LVL=1
      02000147H   SYMBOL    XDATA    INT       i
      00000002H   SYMBOL    DATA     INT       j
      00000004H   SYMBOL    DATA     INT       k
      02000149H   SYMBOL    XDATA    INT       x
      0200014BH   SYMBOL    XDATA    INT       y
      00000006H   SYMBOL    DATA     INT       xx
      00000007H   SYMBOL    DATA     BYTE      qm
      0200014DH   SYMBOL    XDATA    LONG      ulOffset
      02000151H   SYMBOL    XDATA    ---       ywbuf
      02000171H   SYMBOL    XDATA    ---       temp
      ---         BLOCKEND  ---      ---       LVL=1
      0100090FH   LINE      CODE     ---       #653
      01000926H   LINE      CODE     ---       #654
      01000926H   LINE      CODE     ---       #663
LX51 LINKER/LOCATER V4.66.66.0                                                        09/27/2018  18:17:15  PAGE 35


      0100094AH   LINE      CODE     ---       #664
      0100094AH   LINE      CODE     ---       #665
      01000962H   LINE      CODE     ---       #666
      01000962H   LINE      CODE     ---       #667
      01000967H   LINE      CODE     ---       #668
      0100096BH   LINE      CODE     ---       #670
      0100096BH   LINE      CODE     ---       #672
      0100096BH   LINE      CODE     ---       #673
      01000983H   LINE      CODE     ---       #675
      01000995H   LINE      CODE     ---       #677
      01000998H   LINE      CODE     ---       #678
      01000998H   LINE      CODE     ---       #679
      010009BFH   LINE      CODE     ---       #680
      010009CAH   LINE      CODE     ---       #682
      010009D1H   LINE      CODE     ---       #683
      010009D1H   LINE      CODE     ---       #684
      010009EDH   LINE      CODE     ---       #685
      010009EDH   LINE      CODE     ---       #686
      010009F4H   LINE      CODE     ---       #688
      01000A23H   LINE      CODE     ---       #689
      01000A23H   LINE      CODE     ---       #690
      01000A4CH   LINE      CODE     ---       #691
      01000A5FH   LINE      CODE     ---       #692
      01000A5FH   LINE      CODE     ---       #699
      01000A70H   LINE      CODE     ---       #700
      01000A92H   LINE      CODE     ---       #702
      01000A92H   LINE      CODE     ---       #703
      01000AA6H   LINE      CODE     ---       #704
      ---         BLOCKEND  ---      ---       LVL=0

      01000AA7H   BLOCK     CODE     ---       LVL=0
      02000173H   SYMBOL    XDATA    WORD      x
      02000175H   SYMBOL    XDATA    WORD      y
      02000177H   SYMBOL    XDATA    WORD      fc
      02000179H   SYMBOL    XDATA    WORD      bc
      0200017BH   SYMBOL    XDATA    ---       s
      01000ABBH   BLOCK     CODE     NEAR LAB  LVL=1
      00000003H   SYMBOL    DATA     BYTE      i
      00000002H   SYMBOL    DATA     BYTE      j
      0200017EH   SYMBOL    XDATA    WORD      k
      02000180H   SYMBOL    XDATA    WORD      HZnum
      ---         BLOCKEND  ---      ---       LVL=1
      01000AA7H   LINE      CODE     ---       #707
      01000ABBH   LINE      CODE     ---       #708
      01000ABBH   LINE      CODE     ---       #712
      01000AC4H   LINE      CODE     ---       #713
      01000AD7H   LINE      CODE     ---       #714
      01000AD7H   LINE      CODE     ---       #715
      01000ADFH   LINE      CODE     ---       #716
      01000ADFH   LINE      CODE     ---       #717
      01000AFFH   LINE      CODE     ---       #718
      01000AFFH   LINE      CODE     ---       #719
      01000B4FH   LINE      CODE     ---       #720
      01000B85H   LINE      CODE     ---       #721
      01000B87H   LINE      CODE     ---       #722
      01000B87H   LINE      CODE     ---       #723
      01000B89H   LINE      CODE     ---       #724
      01000B89H   LINE      CODE     ---       #725
      01000BD2H   LINE      CODE     ---       #727
      01000BD2H   LINE      CODE     ---       #728
      01000BF1H   LINE      CODE     ---       #729
      01000BF1H   LINE      CODE     ---       #730
      01000BF7H   LINE      CODE     ---       #731
      01000BFDH   LINE      CODE     ---       #734
      01000BFDH   LINE      CODE     ---       #735
LX51 LINKER/LOCATER V4.66.66.0                                                        09/27/2018  18:17:15  PAGE 36


      01000C0EH   LINE      CODE     ---       #736
      01000C26H   LINE      CODE     ---       #737
      01000C29H   LINE      CODE     ---       #741
      01000C33H   LINE      CODE     ---       #743
      01000C36H   LINE      CODE     ---       #744
      ---         BLOCKEND  ---      ---       LVL=0

      010002EEH   BLOCK     CODE     ---       LVL=0
      0200018BH   SYMBOL    XDATA    WORD      x
      0200018DH   SYMBOL    XDATA    WORD      y
      0200018FH   SYMBOL    XDATA    WORD      fc
      02000191H   SYMBOL    XDATA    WORD      bc
      02000193H   SYMBOL    XDATA    ---       s
      01000304H   BLOCK     CODE     NEAR LAB  LVL=1
      02000196H   SYMBOL    XDATA    BYTE      i
      02000197H   SYMBOL    XDATA    BYTE      j
      02000198H   SYMBOL    XDATA    WORD      k
      0200019AH   SYMBOL    XDATA    WORD      x0
      ---         BLOCKEND  ---      ---       LVL=1
      010002EEH   LINE      CODE     ---       #747
      01000304H   LINE      CODE     ---       #748
      01000304H   LINE      CODE     ---       #751
      0100030CH   LINE      CODE     ---       #753
      0100031FH   LINE      CODE     ---       #754
      0100031FH   LINE      CODE     ---       #755
      01000327H   LINE      CODE     ---       #756
      01000327H   LINE      CODE     ---       #757
      01000341H   LINE      CODE     ---       #758
      01000341H   LINE      CODE     ---       #759
      01000393H   LINE      CODE     ---       #760
      01000393H   LINE      CODE     ---       #761
      01000397H   LINE      CODE     ---       #762
      01000397H   LINE      CODE     ---       #763
      0100039CH   LINE      CODE     ---       #764
      0100039CH   LINE      CODE     ---       #765
      0100040FH   LINE      CODE     ---       #766
      0100040FH   LINE      CODE     ---       #767
      0100044DH   LINE      CODE     ---       #768
      0100044DH   LINE      CODE     ---       #769
      0100045CH   LINE      CODE     ---       #770
      01000461H   LINE      CODE     ---       #771
      01000461H   LINE      CODE     ---       #772
      010004DAH   LINE      CODE     ---       #774
      010004DAH   LINE      CODE     ---       #775
      0100051EH   LINE      CODE     ---       #776
      0100051EH   LINE      CODE     ---       #777
      0100052DH   LINE      CODE     ---       #778
      0100053CH   LINE      CODE     ---       #779
      0100053CH   LINE      CODE     ---       #780
      0100054DH   LINE      CODE     ---       #781
      01000565H   LINE      CODE     ---       #782
      01000568H   LINE      CODE     ---       #784
      01000572H   LINE      CODE     ---       #786
      01000575H   LINE      CODE     ---       #787
      ---         BLOCKEND  ---      ---       LVL=0

      ---         MODULE    ---      ---       DS18B20
      00000020H.2 PUBLIC    BIT      BIT       fg
      020001B3H   PUBLIC    XDATA    BYTE      xiaoshu2
      020001B2H   PUBLIC    XDATA    BYTE      xiaoshu1
      020001B1H   PUBLIC    XDATA    BYTE      date
      020001AFH   PUBLIC    XDATA    WORD      sdate
      020001AEH   PUBLIC    XDATA    BYTE      xiaoshu
      020001ADH   PUBLIC    XDATA    BYTE      tempL
      020001ACH   PUBLIC    XDATA    BYTE      tempH
LX51 LINKER/LOCATER V4.66.66.0                                                        09/27/2018  18:17:15  PAGE 37


      01000D81H   PUBLIC    CODE     ---       _ReadTemperature
      0100145FH   PUBLIC    CODE     ---       _WriteOneChar
      01001385H   PUBLIC    CODE     ---       ReadOneChar
      010013AEH   PUBLIC    CODE     ---       Init_DS18B20
      01001587H   PUBLIC    CODE     ---       _delay
      00000080H   SFRSYM    DATA     BYTE      P0
      00000090H   SFRSYM    DATA     BYTE      P1
      000000A0H   SFRSYM    DATA     BYTE      P2
      000000B0H   SFRSYM    DATA     BYTE      P3
      000000B0H.4 SFRSYM    DATA     BIT       T0
      000000D0H.6 SFRSYM    DATA     BIT       AC
      000000B0H.5 SFRSYM    DATA     BIT       T1
      00000090H   SFRSYM    DATA     BIT       T2
      000000A8H.7 SFRSYM    DATA     BIT       EA
      000000A8H   SFRSYM    DATA     BYTE      IE
      000000A0H.2 SFRSYM    DATA     BIT       DQ
      000000C8H.6 SFRSYM    DATA     BIT       EXF2
      000000B0H.7 SFRSYM    DATA     BIT       RD
      000000A8H.4 SFRSYM    DATA     BIT       ES
      000000B8H   SFRSYM    DATA     BYTE      IP
      00000098H   SFRSYM    DATA     BIT       RI
      000000B0H.2 SFRSYM    DATA     BIT       INT0
      000000D0H.7 SFRSYM    DATA     BIT       CY
      00000098H.1 SFRSYM    DATA     BIT       TI
      000000B0H.3 SFRSYM    DATA     BIT       INT1
      000000CBH   SFRSYM    DATA     BYTE      RCAP2H
      000000B8H.4 SFRSYM    DATA     BIT       PS
      00000081H   SFRSYM    DATA     BYTE      SP
      00000090H.1 SFRSYM    DATA     BIT       T2EX
      000000D0H.2 SFRSYM    DATA     BIT       OV
      000000CAH   SFRSYM    DATA     BYTE      RCAP2L
      000000C8H.1 SFRSYM    DATA     BIT       C_T2
      000000B0H.6 SFRSYM    DATA     BIT       WR
      000000C8H.5 SFRSYM    DATA     BIT       RCLK
      000000C8H.4 SFRSYM    DATA     BIT       TCLK
      00000099H   SFRSYM    DATA     BYTE      SBUF
      00000087H   SFRSYM    DATA     BYTE      PCON
      00000098H   SFRSYM    DATA     BYTE      SCON
      00000089H   SFRSYM    DATA     BYTE      TMOD
      00000088H   SFRSYM    DATA     BYTE      TCON
      00000088H.1 SFRSYM    DATA     BIT       IE0
      00000088H.3 SFRSYM    DATA     BIT       IE1
      000000F0H   SFRSYM    DATA     BYTE      B
      000000C8H   SFRSYM    DATA     BIT       CP_RL2
      000000E0H   SFRSYM    DATA     BYTE      ACC
      000000A8H.1 SFRSYM    DATA     BIT       ET0
      000000A8H.3 SFRSYM    DATA     BIT       ET1
      00000088H.5 SFRSYM    DATA     BIT       TF0
      000000A8H.5 SFRSYM    DATA     BIT       ET2
      00000088H.7 SFRSYM    DATA     BIT       TF1
      000000C8H.7 SFRSYM    DATA     BIT       TF2
      00000098H.2 SFRSYM    DATA     BIT       RB8
      0000008CH   SFRSYM    DATA     BYTE      TH0
      000000A8H   SFRSYM    DATA     BIT       EX0
      00000088H   SFRSYM    DATA     BIT       IT0
      0000008DH   SFRSYM    DATA     BYTE      TH1
      00000098H.3 SFRSYM    DATA     BIT       TB8
      000000A8H.2 SFRSYM    DATA     BIT       EX1
      00000088H.2 SFRSYM    DATA     BIT       IT1
      000000CDH   SFRSYM    DATA     BYTE      TH2
      000000D0H   SFRSYM    DATA     BIT       P
      00000098H.7 SFRSYM    DATA     BIT       SM0
      0000008AH   SFRSYM    DATA     BYTE      TL0
      00000098H.6 SFRSYM    DATA     BIT       SM1
      0000008BH   SFRSYM    DATA     BYTE      TL1
LX51 LINKER/LOCATER V4.66.66.0                                                        09/27/2018  18:17:15  PAGE 38


      00000098H.5 SFRSYM    DATA     BIT       SM2
      000000CCH   SFRSYM    DATA     BYTE      TL2
      000000B8H.1 SFRSYM    DATA     BIT       PT0
      000000B8H.3 SFRSYM    DATA     BIT       PT1
      000000D0H.3 SFRSYM    DATA     BIT       RS0
      000000B8H.5 SFRSYM    DATA     BIT       PT2
      00000088H.4 SFRSYM    DATA     BIT       TR0
      000000D0H.4 SFRSYM    DATA     BIT       RS1
      00000088H.6 SFRSYM    DATA     BIT       TR1
      000000C8H.2 SFRSYM    DATA     BIT       TR2
      000000B8H   SFRSYM    DATA     BIT       PX0
      000000B8H.2 SFRSYM    DATA     BIT       PX1
      00000083H   SFRSYM    DATA     BYTE      DPH
      00000082H   SFRSYM    DATA     BYTE      DPL
      000000C8H.3 SFRSYM    DATA     BIT       EXEN2
      00000098H.4 SFRSYM    DATA     BIT       REN
      000000C8H   SFRSYM    DATA     BYTE      T2CON
      000000B0H   SFRSYM    DATA     BIT       RXD
      000000B0H.1 SFRSYM    DATA     BIT       TXD
      000000D0H.5 SFRSYM    DATA     BIT       F0
      000000D0H   SFRSYM    DATA     BYTE      PSW

      01001587H   BLOCK     CODE     ---       LVL=0
      00000006H   SYMBOL    DATA     WORD      i
      01001587H   LINE      CODE     ---       #23
      01001587H   LINE      CODE     ---       #24
      01001587H   LINE      CODE     ---       #25
      01001591H   LINE      CODE     ---       #26
      ---         BLOCKEND  ---      ---       LVL=0

      010013AEH   BLOCK     CODE     ---       LVL=0
      010013AEH   BLOCK     CODE     NEAR LAB  LVL=1
      00000005H   SYMBOL    DATA     BYTE      x
      ---         BLOCKEND  ---      ---       LVL=1
      010013AEH   LINE      CODE     ---       #34
      010013AEH   LINE      CODE     ---       #35
      010013AEH   LINE      CODE     ---       #36
      010013B0H   LINE      CODE     ---       #37
      010013B2H   LINE      CODE     ---       #38
      010013B8H   LINE      CODE     ---       #39
      010013BAH   LINE      CODE     ---       #40
      010013C1H   LINE      CODE     ---       #41
      010013C3H   LINE      CODE     ---       #42
      010013CAH   LINE      CODE     ---       #43
      010013CFH   LINE      CODE     ---       #44
      ---         BLOCKEND  ---      ---       LVL=0

      01001385H   BLOCK     CODE     ---       LVL=0
      01001385H   BLOCK     CODE     NEAR LAB  LVL=1
      00000005H   SYMBOL    DATA     BYTE      i
      00000003H   SYMBOL    DATA     BYTE      dat
      ---         BLOCKEND  ---      ---       LVL=1
      01001385H   LINE      CODE     ---       #54
      01001385H   LINE      CODE     ---       #55
      01001385H   LINE      CODE     ---       #56
      01001386H   LINE      CODE     ---       #57
      01001387H   LINE      CODE     ---       #58
      01001389H   LINE      CODE     ---       #59
      01001389H   LINE      CODE     ---       #60
      0100138BH   LINE      CODE     ---       #61
      01001392H   LINE      CODE     ---       #62
      01001394H   LINE      CODE     ---       #63
      01001398H   LINE      CODE     ---       #64
      0100139AH   LINE      CODE     ---       #65
      0100139DH   LINE      CODE     ---       #66
LX51 LINKER/LOCATER V4.66.66.0                                                        09/27/2018  18:17:15  PAGE 39


      010013A0H   LINE      CODE     ---       #67
      010013A7H   LINE      CODE     ---       #68
      010013A9H   LINE      CODE     ---       #69
      010013ADH   LINE      CODE     ---       #70
      ---         BLOCKEND  ---      ---       LVL=0

      0100145FH   BLOCK     CODE     ---       LVL=0
      00000005H   SYMBOL    DATA     BYTE      dat
      01001461H   BLOCK     CODE     NEAR LAB  LVL=1
      00000003H   SYMBOL    DATA     BYTE      i
      ---         BLOCKEND  ---      ---       LVL=1
      0100145FH   LINE      CODE     ---       #80
      01001461H   LINE      CODE     ---       #81
      01001461H   LINE      CODE     ---       #82
      01001461H   LINE      CODE     ---       #83
      01001463H   LINE      CODE     ---       #84
      01001463H   LINE      CODE     ---       #85
      01001465H   LINE      CODE     ---       #86
      01001469H   LINE      CODE     ---       #87
      01001470H   LINE      CODE     ---       #88
      01001472H   LINE      CODE     ---       #89
      01001476H   LINE      CODE     ---       #90
      01001478H   LINE      CODE     ---       #91
      ---         BLOCKEND  ---      ---       LVL=0

      01000D81H   BLOCK     CODE     ---       LVL=0
      02000179H   SYMBOL    XDATA    ---       tempstr
      01000D81H   LINE      CODE     ---       #102
      01000D8CH   LINE      CODE     ---       #103
      01000D8CH   LINE      CODE     ---       #104
      01000D8FH   LINE      CODE     ---       #105
      01000D94H   LINE      CODE     ---       #106
      01000D99H   LINE      CODE     ---       #107
      01000DA0H   LINE      CODE     ---       #108
      01000DA3H   LINE      CODE     ---       #109
      01000DA8H   LINE      CODE     ---       #110
      01000DADH   LINE      CODE     ---       #111
      01000DB5H   LINE      CODE     ---       #112
      01000DBDH   LINE      CODE     ---       #113
      01000DC2H   LINE      CODE     ---       #114
      01000DC2H   LINE      CODE     ---       #115
      01000DC6H   LINE      CODE     ---       #116
      01000DCDH   LINE      CODE     ---       #117
      01000DCFH   LINE      CODE     ---       #118
      01000DCFH   LINE      CODE     ---       #119
      01000DEEH   LINE      CODE     ---       #120
      01000E07H   LINE      CODE     ---       #121
      01000E22H   LINE      CODE     ---       #122
      01000E2FH   LINE      CODE     ---       #124
      01000E4FH   LINE      CODE     ---       #125
      01000E74H   LINE      CODE     ---       #126
      01000E7CH   LINE      CODE     ---       #127
      01000E8EH   LINE      CODE     ---       #128
      01000E96H   LINE      CODE     ---       #129
      01000E9DH   LINE      CODE     ---       #131
      01000EA5H   LINE      CODE     ---       #132
      ---         BLOCKEND  ---      ---       LVL=0

      ---         MODULE    ---      ---       ?C_STARTUP
      01000000H   PUBLIC    CODE     ---       ?C_STARTUP

      ---         MODULE    ---      ---       ?C?CLDPTR
      01000046H   PUBLIC    CODE     ---       ?C?CLDPTR

      ---         MODULE    ---      ---       ?C?CLDOPTR
LX51 LINKER/LOCATER V4.66.66.0                                                        09/27/2018  18:17:15  PAGE 40


      0100005FH   PUBLIC    CODE     ---       ?C?CLDOPTR

      ---         MODULE    ---      ---       ?C?CSTPTR
      0100008CH   PUBLIC    CODE     ---       ?C?CSTPTR

      ---         MODULE    ---      ---       ?C?CSTOPTR
      0100009EH   PUBLIC    CODE     ---       ?C?CSTOPTR

      ---         MODULE    ---      ---       ?C?UIDIV
      010000C0H   PUBLIC    CODE     ---       ?C?UIDIV

      ---         MODULE    ---      ---       ?C?SIDIV
      01000115H   PUBLIC    CODE     ---       ?C?SIDIV

      ---         MODULE    ---      ---       ?C?IILDX
      0100014BH   PUBLIC    CODE     ---       ?C?IILDX

      ---         MODULE    ---      ---       ?C?ILDIX
      01000161H   PUBLIC    CODE     ---       ?C?ILDIX

      ---         MODULE    ---      ---       ?C?LMUL
      01000177H   PUBLIC    CODE     ---       ?C?LMUL

      ---         MODULE    ---      ---       ?C?ULDIV
      01000202H   PUBLIC    CODE     ---       ?C?ULDIV

      ---         MODULE    ---      ---       ?C?ULCMP
      01000294H   PUBLIC    CODE     ---       ?C?ULCMP

      ---         MODULE    ---      ---       ?C?LSTXDATA
      010002A5H   PUBLIC    CODE     ---       ?C?LSTXDATA

      ---         MODULE    ---      ---       ?C?LSTKXDATA
      010002B1H   PUBLIC    CODE     ---       ?C?LSTKXDATA

      ---         MODULE    ---      ---       ?C?OFFXADD
      010002E2H   PUBLIC    CODE     ---       ?C?OFFXADD

      ---         MODULE    ---      ---       STRLEN
      0100000EH   PUBLIC    CODE     ---       _STRLEN

      ---         MODULE    ---      ---       ?C_INIT
      01000EEDH   PUBLIC    CODE     ---       ?C_START



*** WARNING L57: UNCALLED FUNCTION, IGNORED FOR OVERLAY PROCESS
    NAME:    _DELAY_MS/DELAY

*** WARNING L57: UNCALLED FUNCTION, IGNORED FOR OVERLAY PROCESS
    NAME:    _UARTSENDSTRING/UART

*** WARNING L57: UNCALLED FUNCTION, IGNORED FOR OVERLAY PROCESS
    NAME:    _UART2_SENDSTRING/UART2

*** WARNING L57: UNCALLED FUNCTION, IGNORED FOR OVERLAY PROCESS
    NAME:    _UART2SENDDATA/UART2

*** WARNING L57: UNCALLED FUNCTION, IGNORED FOR OVERLAY PROCESS
    NAME:    CLEARBUF2/UART2

*** WARNING L57: UNCALLED FUNCTION, IGNORED FOR OVERLAY PROCESS
    NAME:    _DISPLAY_ASCII8X16_COLOR/TFT_LCD

*** WARNING L57: UNCALLED FUNCTION, IGNORED FOR OVERLAY PROCESS
LX51 LINKER/LOCATER V4.66.66.0                                                        09/27/2018  18:17:15  PAGE 41


    NAME:    _DISPLAY_ASCII8X16/TFT_LCD

*** WARNING L57: UNCALLED FUNCTION, IGNORED FOR OVERLAY PROCESS
    NAME:    _GUI_DRAWFONT_GBK16/TFT_LCD

Program Size: data=17.3 xdata=463 const=4642 code=5554
LX51 RUN COMPLETE.  8 WARNING(S),  0 ERROR(S)
