LX51 LINKER/LOCATER V4.66.66.0                                                          09/28/2018  16:54:19  PAGE 1


LX51 LINKER/LOCATER V4.66.66.0, INVOKED BY:
C:\KEIL_V5\C51\BIN\LX51.EXE .\Objects\mysys.obj, .\Objects\tasklist.obj, .\Objects\agreement.obj, .\Objects\io.obj, .\Ob
>> jects\delay.obj, .\Objects\uart.obj, .\Objects\uart2.obj, .\Objects\adc.obj, .\Objects\main.obj, .\Objects\TFT_LCD.ob
>> j, .\Objects\DS18B20.obj TO .\Objects\samartAgr PRINT (.\Listings\samartAgr.map)


CPU MODE:     8051 MODE
MEMORY MODEL: LARGE


INPUT MODULES INCLUDED:
  .\Objects\mysys.obj (MYSYS)
         COMMENT TYPE 0: C51 V9.56.0.0
  .\Objects\tasklist.obj (TASKLIST)
         COMMENT TYPE 0: C51 V9.56.0.0
  .\Objects\agreement.obj (AGREEMENT)
         COMMENT TYPE 0: C51 V9.56.0.0
  .\Objects\io.obj (IO)
         COMMENT TYPE 0: C51 V9.56.0.0
  .\Objects\delay.obj (DELAY)
         COMMENT TYPE 0: C51 V9.56.0.0
  .\Objects\uart.obj (UART)
         COMMENT TYPE 0: C51 V9.56.0.0
  .\Objects\uart2.obj (UART2)
         COMMENT TYPE 0: C51 V9.56.0.0
  .\Objects\adc.obj (ADC)
         COMMENT TYPE 0: C51 V9.56.0.0
  .\Objects\main.obj (MAIN)
         COMMENT TYPE 0: C51 V9.56.0.0
  .\Objects\TFT_LCD.obj (TFT_LCD)
         COMMENT TYPE 0: C51 V9.56.0.0
  .\Objects\DS18B20.obj (DS18B20)
         COMMENT TYPE 0: C51 V9.56.0.0
  C:\KEIL_V5\C51\LIB\C51L.LIB (?C_STARTUP)
         COMMENT TYPE 1: A51 / ASM51 Assembler
  C:\KEIL_V5\C51\LIB\C51L.LIB (?C?CLDPTR)
         COMMENT TYPE 1: A51 / ASM51 Assembler
  C:\KEIL_V5\C51\LIB\C51L.LIB (?C?CLDOPTR)
         COMMENT TYPE 1: A51 / ASM51 Assembler
  C:\KEIL_V5\C51\LIB\C51L.LIB (?C?CSTPTR)
         COMMENT TYPE 1: A51 / ASM51 Assembler
  C:\KEIL_V5\C51\LIB\C51L.LIB (?C?CSTOPTR)
         COMMENT TYPE 1: A51 / ASM51 Assembler
  C:\KEIL_V5\C51\LIB\C51L.LIB (?C?UIDIV)
         COMMENT TYPE 1: A51 / ASM51 Assembler
  C:\KEIL_V5\C51\LIB\C51L.LIB (?C?SIDIV)
         COMMENT TYPE 1: A51 / ASM51 Assembler
  C:\KEIL_V5\C51\LIB\C51L.LIB (?C?IILDX)
         COMMENT TYPE 1: A51 / ASM51 Assembler
  C:\KEIL_V5\C51\LIB\C51L.LIB (?C?ILDIX)
         COMMENT TYPE 1: A51 / ASM51 Assembler
  C:\KEIL_V5\C51\LIB\C51L.LIB (?C?LMUL)
         COMMENT TYPE 1: A51 / ASM51 Assembler
  C:\KEIL_V5\C51\LIB\C51L.LIB (?C?ULDIV)
         COMMENT TYPE 1: A51 / ASM51 Assembler
  C:\KEIL_V5\C51\LIB\C51L.LIB (?C?ULCMP)
         COMMENT TYPE 1: A51 / ASM51 Assembler
  C:\KEIL_V5\C51\LIB\C51L.LIB (?C?LSTXDATA)
         COMMENT TYPE 1: A51 / ASM51 Assembler
  C:\KEIL_V5\C51\LIB\C51L.LIB (?C?LSTKXDATA)
         COMMENT TYPE 1: A51 / ASM51 Assembler
  C:\KEIL_V5\C51\LIB\C51L.LIB (?C?OFFXADD)
         COMMENT TYPE 1: A51 / ASM51 Assembler
  C:\KEIL_V5\C51\LIB\C51L.LIB (STRLEN)
         COMMENT TYPE 1: A51 / ASM51 Assembler
  C:\KEIL_V5\C51\LIB\C51L.LIB (?C_INIT)
LX51 LINKER/LOCATER V4.66.66.0                                                        09/28/2018  16:54:19  PAGE 2


         COMMENT TYPE 1: A51 / ASM51 Assembler


ACTIVE MEMORY CLASSES OF MODULE:  .\Objects\samartAgr (MYSYS)

BASE        START       END         USED      MEMORY CLASS
==========================================================
C:000000H   C:000000H   C:00FFFFH   0018BAH   CODE
X:000000H   X:000000H   X:00FFFFH   0001D4H   XDATA
C:000000H   C:000000H   C:00FFFFH   00124AH   CONST
I:000020H.0 I:000020H.0 I:00002FH.7 000000H.3 BIT
I:000000H   I:000000H   I:0000FFH   000001H   IDATA
I:000000H   I:000000H   I:00007FH   000010H   DATA


MEMORY MAP OF MODULE:  .\Objects\samartAgr (MYSYS)


START     STOP      LENGTH    ALIGN  RELOC    MEMORY CLASS   SEGMENT NAME
=========================================================================

* * * * * * * * * * *   D A T A   M E M O R Y   * * * * * * * * * * * * *
000000H   000007H   000008H   ---    AT..     DATA           "REG BANK 0"
000008H   00000FH   000008H   ---    AT..     DATA           "REG BANK 1"
000010H.0 00001FH.7 000010H.0 ---    ---      **GAP**
000020H.0 000020H.0 000000H.1 BIT    UNIT     BIT            ?BI?UART
000020H.1 000020H.1 000000H.1 BIT    UNIT     BIT            ?BI?UART2
000020H.2 000020H.2 000000H.1 BIT    UNIT     BIT            ?BI?DS18B20
000020H.3 000020H   000000H.5 ---    ---      **GAP**
000021H   000021H   000001H   BYTE   UNIT     IDATA          ?STACK

* * * * * * * * * * *   C O D E   M E M O R Y   * * * * * * * * * * * * *
000000H   000002H   000003H   ---    OFFS..   CODE           ?CO??C_STARTUP?0
000003H   00000AH   000008H   BYTE   UNIT     CODE           ?PR?_PUTCHAR?UART
00000BH   00000DH   000003H   BYTE   OFFS..   CODE           ?MYSYS?0000B
00000EH   000022H   000015H   BYTE   UNIT     CODE           ?PR?_STRLEN?STRLEN
000023H   000025H   000003H   BYTE   OFFS..   CODE           ?UART?00023
000026H   000040H   00001BH   BYTE   UNIT     CODE           ?PR?UARTINIT?UART
000041H   000042H   000002H   ---    ---      **GAP**
000043H   000045H   000003H   BYTE   OFFS..   CODE           ?UART2?00043
000046H   0002EDH   0002A8H   BYTE   UNIT     CODE           ?C?LIB_CODE
0002EEH   000575H   000288H   BYTE   UNIT     CODE           ?PR?_GUI_DRAWFONT_GBK16?TFT_LCD
000576H   00075DH   0001E8H   BYTE   UNIT     CODE           ?PR?_DISPLAY_ASCII8X16_COLOR?TFT_LCD
00075EH   00090EH   0001B1H   BYTE   UNIT     CODE           ?PR?LCD_INITIAL?TFT_LCD
00090FH   000AA6H   000198H   BYTE   UNIT     CODE           ?PR?_DISPLAY_ASCII8X16?TFT_LCD
000AA7H   000C36H   000190H   BYTE   UNIT     CODE           ?PR?_FAST_DRAWFONT_GBK16?TFT_LCD
000C37H   000DAFH   000179H   BYTE   UNIT     CODE           ?PR?TIMER0?MYSYS
000DB0H   000ED4H   000125H   BYTE   UNIT     CODE           ?PR?_READTEMPERATURE?DS18B20
000ED5H   000FA8H   0000D4H   BYTE   UNIT     CODE           ?PR?_GET_WTL_VALUE?ADC
000FA9H   001078H   0000D0H   BYTE   UNIT     CODE           ?PR?_GET_LIGHT_VALUE?ADC
001079H   00111EH   0000A6H   BYTE   UNIT     CODE           ?PR?MAIN?MAIN
00111FH   0011BEH   0000A0H   BYTE   UNIT     CODE           ?PR?DISPLAY_BACKGROUND?MAIN
0011BFH   00124AH   00008CH   BYTE   UNIT     CODE           ?C_C51STARTUP
00124BH   0012C7H   00007DH   BYTE   UNIT     CODE           ?PR?_AGREEMENTPARSE?AGREEMENT
0012C8H   001328H   000061H   BYTE   UNIT     CODE           ?PR?UART2?UART2
001329H   001387H   00005FH   BYTE   UNIT     CODE           ?PR?UART?UART
001388H   0013E3H   00005CH   BYTE   UNIT     CODE           ?C_INITSEG
0013E4H   001438H   000055H   BYTE   UNIT     CODE           ?PR?MYTASK_ONE?TASKLIST
001439H   00148CH   000054H   BYTE   UNIT     CODE           ?PR?_PUTPIXEL?TFT_LCD
00148DH   0014DBH   00004FH   BYTE   UNIT     CODE           ?PR?MYTASK_TWO?TASKLIST
0014DCH   001525H   00004AH   BYTE   UNIT     CODE           ?PR?MYTASK_THREE?TASKLIST
001526H   00156FH   00004AH   BYTE   UNIT     CODE           ?PR?MYTASK_FOUR?TASKLIST
001570H   0015B2H   000043H   BYTE   UNIT     CODE           ?PR?_LCD_SETREGION?TFT_LCD
0015B3H   0015ECH   00003AH   BYTE   UNIT     CODE           ?PR?_SEND_SENSORDATA?AGREEMENT
0015EDH   001626H   00003AH   BYTE   UNIT     CODE           ?PR?_ADC_GETVALUE?ADC
LX51 LINKER/LOCATER V4.66.66.0                                                        09/28/2018  16:54:19  PAGE 3


001627H   00165CH   000036H   BYTE   UNIT     CODE           ?PR?_DSP_SINGLE_COLOUR?TFT_LCD
00165DH   00168FH   000033H   BYTE   UNIT     CODE           ?PR?_UARTSENDSTRING?UART
001690H   0016C2H   000033H   BYTE   UNIT     CODE           ?PR?_UART2_SENDSTRING?UART2
0016C3H   0016EFH   00002DH   BYTE   UNIT     CODE           ?PR?_UARTSENDDATA?UART
0016F0H   00171CH   00002DH   BYTE   UNIT     CODE           ?PR?_UART2SENDDATA?UART2
00171DH   001745H   000029H   BYTE   UNIT     CODE           ?PR?READONECHAR?DS18B20
001746H   00176DH   000028H   BYTE   UNIT     CODE           ?PR?INIT_DS18B20?DS18B20
00176EH   00178DH   000020H   BYTE   UNIT     CODE           ?PR?_LCD_DELAY_MS?TFT_LCD
00178EH   0017ADH   000020H   BYTE   UNIT     CODE           ?PR?_WRITEONECHAR?DS18B20
0017AEH   0017CCH   00001FH   BYTE   UNIT     CODE           ?PR?CLEARBUF?UART
0017CDH   0017E6H   00001AH   BYTE   UNIT     CODE           ?PR?_LCD_WRITEDATA_16BIT?TFT_LCD
0017E7H   0017FEH   000018H   BYTE   UNIT     CODE           ?PR?_DELAY_MS?DELAY
0017FFH   001816H   000018H   BYTE   UNIT     CODE           ?PR?UART2INIT?UART2
001817H   00182EH   000018H   BYTE   UNIT     CODE           ?PR?CLEARBUF2?UART2
00182FH   001845H   000017H   BYTE   UNIT     CODE           ?PR?_SPI_WRITEDATA?TFT_LCD
001846H   00185BH   000016H   BYTE   UNIT     CODE           ?PR?_LCD_WRITEDATA?TFT_LCD
00185CH   00186EH   000013H   BYTE   UNIT     CODE           ?PR?MYSYSINIT?MYSYS
00186FH   001880H   000012H   BYTE   UNIT     CODE           ?PR?BSP_INIT?MAIN
001881H   00188EH   00000EH   BYTE   UNIT     CODE           ?PR?LCD_RESET?TFT_LCD
00188FH   001899H   00000BH   BYTE   UNIT     CODE           ?PR?_DELAY?DS18B20
00189AH   0018A3H   00000AH   BYTE   UNIT     CODE           ?PR?_LCD_WRITEINDEX?TFT_LCD
0018A4H   0018ACH   000009H   BYTE   UNIT     CODE           ?PR?DELAY1MS?DELAY
0018ADH   0018B4H   000008H   BYTE   UNIT     CODE           ?PR?_SENDDATA?UART2
0018B5H   0018BBH   000007H   BYTE   UNIT     CODE           ?PR?ADC_INIT?ADC
0018BCH   002ADCH   001221H   BYTE   UNIT     CONST          ?CO?TFT_LCD
002ADDH   002AFDH   000021H   BYTE   UNIT     CONST          ?CO?MAIN
002AFEH   002B05H   000008H   BYTE   UNIT     CONST          ?CO?TASKLIST

* * * * * * * * * * *  X D A T A   M E M O R Y  * * * * * * * * * * * * *
000000H   000083H   000084H   BYTE   UNIT     XDATA          ?XD?UART
000084H   000106H   000083H   BYTE   UNIT     XDATA          ?XD?UART2
000107H   000154H   00004EH   BYTE   UNIT     XDATA          _XDATA_GROUP_
000155H   000187H   000033H   BYTE   UNIT     XDATA          ?XD?_DISPLAY_ASCII8X16?TFT_LCD
000188H   00019CH   000015H   BYTE   UNIT     XDATA          ?XD?AGREEMENT
00019DH   0001ADH   000011H   BYTE   UNIT     XDATA          ?XD?_GUI_DRAWFONT_GBK16?TFT_LCD
0001AEH   0001B5H   000008H   BYTE   UNIT     XDATA          ?XD?MYSYS
0001B6H   0001BDH   000008H   BYTE   UNIT     XDATA          ?XD?DS18B20
0001BEH   0001C3H   000006H   BYTE   UNIT     XDATA          ?XD?TASKLIST
0001C4H   0001C9H   000006H   BYTE   UNIT     XDATA          ?XD?_GET_LIGHT_VALUE?ADC
0001CAH   0001CCH   000003H   BYTE   UNIT     XDATA          ?XD?_UARTSENDSTRING?UART
0001CDH   0001CFH   000003H   BYTE   UNIT     XDATA          ?XD?_UART2_SENDSTRING?UART2
0001D0H   0001D2H   000003H   BYTE   UNIT     XDATA          ?XD?_UART2SENDDATA?UART2
0001D3H   0001D3H   000001H   BYTE   UNIT     XDATA          ?XD?ADC



OVERLAY MAP OF MODULE:   .\Objects\samartAgr (MYSYS)


FUNCTION/MODULE                       XDATA_GROUP
--> CALLED FUNCTION/MODULE            START  STOP
=================================================
TIMER0/MYSYS                          ----- -----

*** NEW ROOT ************************

UART/UART                             ----- -----

*** NEW ROOT ************************

UART2/UART2                           ----- -----

*** NEW ROOT ************************

?C_C51STARTUP                         ----- -----
LX51 LINKER/LOCATER V4.66.66.0                                                        09/28/2018  16:54:19  PAGE 4


  +--> MAIN/MAIN
  +--> ?C_INITSEG

MAIN/MAIN                             ----- -----
  +--> BSP_INIT/MAIN
  +--> MYTASK_ONE/TASKLIST
  +--> MYTASK_TWO/TASKLIST
  +--> MYTASK_THREE/TASKLIST
  +--> MYTASK_FOUR/TASKLIST
  +--> _AGREEMENTPARSE/AGREEMENT

BSP_INIT/MAIN                         ----- -----
  +--> UARTINIT/UART
  +--> UART2INIT/UART2
  +--> MYSYSINIT/MYSYS
  +--> ADC_INIT/ADC
  +--> LCD_INITIAL/TFT_LCD
  +--> DISPLAY_BACKGROUND/MAIN

UARTINIT/UART                         ----- -----

UART2INIT/UART2                       ----- -----

MYSYSINIT/MYSYS                       ----- -----

ADC_INIT/ADC                          ----- -----

LCD_INITIAL/TFT_LCD                   ----- -----
  +--> LCD_RESET/TFT_LCD
  +--> _LCD_WRITEINDEX/TFT_LCD
  +--> _LCD_DELAY_MS/TFT_LCD
  +--> _LCD_WRITEDATA/TFT_LCD

LCD_RESET/TFT_LCD                     ----- -----
  +--> _LCD_DELAY_MS/TFT_LCD

_LCD_DELAY_MS/TFT_LCD                 ----- -----

_LCD_WRITEINDEX/TFT_LCD               ----- -----
  +--> _SPI_WRITEDATA/TFT_LCD

_SPI_WRITEDATA/TFT_LCD                ----- -----

_LCD_WRITEDATA/TFT_LCD                0154H 0154H
  +--> _LCD_WRITEINDEX/TFT_LCD
  +--> _SPI_WRITEDATA/TFT_LCD

DISPLAY_BACKGROUND/MAIN               ----- -----
  +--> _DSP_SINGLE_COLOUR/TFT_LCD
  +--> ?CO?MAIN
  +--> _FAST_DRAWFONT_GBK16/TFT_LCD

_DSP_SINGLE_COLOUR/TFT_LCD            0107H 0108H
  +--> _LCD_SETREGION/TFT_LCD
  +--> _LCD_WRITEDATA_16BIT/TFT_LCD

_LCD_SETREGION/TFT_LCD                014CH 0153H
  +--> _LCD_WRITEDATA/TFT_LCD
  +--> _LCD_WRITEINDEX/TFT_LCD

_LCD_WRITEDATA_16BIT/TFT_LCD          014CH 014CH
  +--> _SPI_WRITEDATA/TFT_LCD

?CO?MAIN                              ----- -----

LX51 LINKER/LOCATER V4.66.66.0                                                        09/28/2018  16:54:19  PAGE 5


_FAST_DRAWFONT_GBK16/TFT_LCD          0107H 0115H
  +--> ?CO?TFT_LCD
  +--> _LCD_SETREGION/TFT_LCD
  +--> _LCD_WRITEDATA_16BIT/TFT_LCD

?CO?TFT_LCD                           ----- -----

MYTASK_ONE/TASKLIST                   0107H 010CH
  +--> _READTEMPERATURE/DS18B20
  +--> _DISPLAY_ASCII8X16_COLOR/TFT_LCD
  +--> _SEND_SENSORDATA/AGREEMENT

_READTEMPERATURE/DS18B20              010DH 010FH
  +--> INIT_DS18B20/DS18B20
  +--> _WRITEONECHAR/DS18B20
  +--> _DELAY/DS18B20
  +--> READONECHAR/DS18B20

INIT_DS18B20/DS18B20                  ----- -----
  +--> _DELAY/DS18B20

_DELAY/DS18B20                        ----- -----

_WRITEONECHAR/DS18B20                 ----- -----
  +--> _DELAY/DS18B20

READONECHAR/DS18B20                   ----- -----
  +--> _DELAY/DS18B20

_DISPLAY_ASCII8X16_COLOR/TFT_LCD      010DH 0145H
  +--> _STRLEN/STRLEN
  +--> ?CO?TFT_LCD
  +--> _PUTPIXEL/TFT_LCD

_STRLEN/STRLEN                        ----- -----

_PUTPIXEL/TFT_LCD                     0146H 014BH
  +--> _LCD_SETREGION/TFT_LCD
  +--> _LCD_WRITEDATA_16BIT/TFT_LCD

_SEND_SENSORDATA/AGREEMENT            ----- -----
  +--> _UARTSENDDATA/UART

_UARTSENDDATA/UART                    010DH 010FH
  +--> _PUTCHAR/UART

_PUTCHAR/UART                         ----- -----

MYTASK_TWO/TASKLIST                   0107H 010CH
  +--> _GET_WTL_VALUE/ADC
  +--> _DISPLAY_ASCII8X16_COLOR/TFT_LCD
  +--> _SEND_SENSORDATA/AGREEMENT

_GET_WTL_VALUE/ADC                    010DH 0111H
  +--> _ADC_GETVALUE/ADC

_ADC_GETVALUE/ADC                     ----- -----

MYTASK_THREE/TASKLIST                 ----- -----
  +--> ?CO?TASKLIST
  +--> _DISPLAY_ASCII8X16_COLOR/TFT_LCD
  +--> _SEND_SENSORDATA/AGREEMENT

?CO?TASKLIST                          ----- -----

LX51 LINKER/LOCATER V4.66.66.0                                                        09/28/2018  16:54:19  PAGE 6


MYTASK_FOUR/TASKLIST                  ----- -----
  +--> ?CO?TASKLIST
  +--> _DISPLAY_ASCII8X16_COLOR/TFT_LCD
  +--> _SEND_SENSORDATA/AGREEMENT

_AGREEMENTPARSE/AGREEMENT             ----- -----

?C_INITSEG                            ----- -----



PUBLIC SYMBOLS OF MODULE:  .\Objects\samartAgr (MYSYS)


      VALUE       CLASS    TYPE      PUBLIC SYMBOL NAME
      =================================================
      0200010DH   XDATA    BYTE      ?_Display_ASCII8X16_Color?BYTE
      02000107H   XDATA    BYTE      ?_Fast_DrawFont_GBK16?BYTE
      0200019DH   XDATA    BYTE      ?_Gui_DrawFont_GBK16?BYTE
      0200014CH   XDATA    BYTE      ?_Lcd_SetRegion?BYTE
      0100005FH   CODE     ---       ?C?CLDOPTR
      01000046H   CODE     ---       ?C?CLDPTR
      00000000H   NUMBER   ---       ?C?CODESEG
      0100009EH   CODE     ---       ?C?CSTOPTR
      0100008CH   CODE     ---       ?C?CSTPTR
      0100014BH   CODE     ---       ?C?IILDX
      01000161H   CODE     ---       ?C?ILDIX
      01000177H   CODE     ---       ?C?LMUL
      010002B1H   CODE     ---       ?C?LSTKXDATA
      010002A5H   CODE     ---       ?C?LSTXDATA
      010002E2H   CODE     ---       ?C?OFFXADD
      01000115H   CODE     ---       ?C?SIDIV
      010000C0H   CODE     ---       ?C?UIDIV
      01000294H   CODE     ---       ?C?ULCMP
      01000202H   CODE     ---       ?C?ULDIV
      00000000H   NUMBER   ---       ?C?XDATASEG
      01001206H   CODE     ---       ?C_START
      01000000H   CODE     ---       ?C_STARTUP
      010015EDH   CODE     ---       _adc_getValue
      0100124BH   CODE     ---       _agreementParse
      0100188FH   CODE     ---       _delay
      010017E7H   CODE     ---       _delay_ms
      0100090FH   CODE     ---       _Display_ASCII8X16
      01000576H   CODE     ---       _Display_ASCII8X16_Color
      01001627H   CODE     ---       _dsp_single_colour
      01000AA7H   CODE     ---       _Fast_DrawFont_GBK16
      01000FA9H   CODE     ---       _get_Light_value
      01000ED5H   CODE     ---       _get_WTL_value
      010002EEH   CODE     ---       _Gui_DrawFont_GBK16
      0100176EH   CODE     ---       _lcd_delay_ms
      01001570H   CODE     ---       _Lcd_SetRegion
      0100184DH   CODE     ---       _Lcd_WriteData
      010017CDH   CODE     ---       _LCD_WriteData_16Bit
      0100189AH   CODE     ---       _Lcd_WriteIndex
      01000003H   CODE     ---       _Putchar
      0100143EH   CODE     ---       _PutPixel
      01000DB0H   CODE     ---       _ReadTemperature
      010015B3H   CODE     ---       _Send_SensorData
      010018ADH   CODE     ---       _SendData
      0100182FH   CODE     ---       _SPI_WriteData
      0100000EH   CODE     ---       _STRLEN
      01001690H   CODE     ---       _UART2_SendString
      010016F0H   CODE     ---       _uart2SendData
      010016C3H   CODE     ---       _uartSendData
      0100165DH   CODE     ---       _uartSendString
LX51 LINKER/LOCATER V4.66.66.0                                                        09/28/2018  16:54:19  PAGE 7


      0100178EH   CODE     ---       _WriteOneChar
*SFR* 000000D0H.6 DATA     BIT       AC
*SFR* 000000E0H   DATA     BYTE      ACC
*SFR* 000000BCH   DATA     BYTE      ADC_CONTR
      010018B5H   CODE     ---       adc_Init
*SFR* 000000BDH   DATA     BYTE      ADC_RES
*SFR* 000000BEH   DATA     BYTE      ADC_RESL
*SFR* 0000008EH   DATA     BYTE      AUXR
*SFR* 000000A2H   DATA     BYTE      AUXR1
*SFR* 000000F0H   DATA     BYTE      B
*SFR* 000000A0H.4 DATA     BIT       bl
*SFR* 0000009CH   DATA     BYTE      BRT
      0100186FH   CODE     ---       bsp_init
      00000020H.0 BIT      BIT       busy
      00000020H.1 BIT      BIT       busy2
*SFR* 000000C8H.1 DATA     BIT       C_T2
      010017AEH   CODE     ---       clearBuf
      01001817H   CODE     ---       clearBuf2
      02000082H   XDATA    BYTE      cmd
*SFR* 000000C8H   DATA     BIT       CP_RL2
*SFR* 000000A0H   DATA     BIT       cs
*SFR* 000000D0H.7 DATA     BIT       CY
      02000188H   XDATA    ---       DataBuf
      020001BBH   XDATA    BYTE      date
      010018A4H   CODE     ---       Delay1ms
      0100111FH   CODE     ---       display_background
*SFR* 00000083H   DATA     BYTE      DPH
*SFR* 00000082H   DATA     BYTE      DPL
*SFR* 000000A0H.2 DATA     BIT       DQ
*SFR* 000000A8H.7 DATA     BIT       EA
*SFR* 000000A8H.4 DATA     BIT       ES
*SFR* 000000A8H.1 DATA     BIT       ET0
*SFR* 000000A8H.3 DATA     BIT       ET1
*SFR* 000000A8H.5 DATA     BIT       ET2
*SFR* 000000A8H   DATA     BIT       EX0
*SFR* 000000A8H.2 DATA     BIT       EX1
*SFR* 000000C8H.3 DATA     BIT       EXEN2
*SFR* 000000C8H.6 DATA     BIT       EXF2
*SFR* 000000D0H.5 DATA     BIT       F0
      00000020H.2 BIT      BIT       fg
      020001B3H   XDATA    BYTE      flag_taskFour
      020001B4H   XDATA    BYTE      flag_taskOne
      020001B2H   XDATA    BYTE      flag_taskThree
      020001B5H   XDATA    BYTE      flag_taskTwo
      02000085H   XDATA    BYTE      flag_uart2_rx
      02000000H   XDATA    BYTE      flag_uart_rx
      020001AEH   XDATA    DWORD     heartBeat
      010018BCH   CONST    ---       hz16
*SFR* 000000A8H   DATA     BYTE      IE
*SFR* 00000088H.1 DATA     BIT       IE0
*SFR* 00000088H.3 DATA     BIT       IE1
*SFR* 000000AFH   DATA     BYTE      IE2
      01001746H   CODE     ---       Init_DS18B20
*SFR* 000000B0H.2 DATA     BIT       INT0
*SFR* 000000B0H.3 DATA     BIT       INT1
*SFR* 00000080H.2 DATA     BIT       IO_LAMP
*SFR* 00000080H.1 DATA     BIT       IO_PUMP
*SFR* 000000B8H   DATA     BYTE      IP
*SFR* 00000088H   DATA     BIT       IT0
*SFR* 00000088H.2 DATA     BIT       IT1
      0100075EH   CODE     ---       lcd_initial
      01001881H   CODE     ---       Lcd_Reset
      01001079H   CODE     ---       main
      0100185CH   CODE     ---       mysysinit
      01001526H   CODE     ---       MyTask_Four
LX51 LINKER/LOCATER V4.66.66.0                                                        09/28/2018  16:54:19  PAGE 8


      010013E4H   CODE     ---       MyTask_One
      010014DCH   CODE     ---       MyTask_Three
      0100148DH   CODE     ---       MyTask_Two
*SFR* 000000D0H.2 DATA     BIT       OV
*SFR* 000000D0H   DATA     BIT       P
*SFR* 00000080H   DATA     BYTE      P0
*SFR* 00000090H   DATA     BYTE      P1
*SFR* 0000009DH   DATA     BYTE      P1ASF
*SFR* 000000A0H   DATA     BYTE      P2
*SFR* 000000B0H   DATA     BYTE      P3
*SFR* 00000087H   DATA     BYTE      PCON
*SFR* 000000B8H.4 DATA     BIT       PS
*SFR* 000000D0H   DATA     BYTE      PSW
*SFR* 000000B8H.1 DATA     BIT       PT0
*SFR* 000000B8H.3 DATA     BIT       PT1
*SFR* 000000B8H.5 DATA     BIT       PT2
*SFR* 000000B8H   DATA     BIT       PX0
*SFR* 000000B8H.2 DATA     BIT       PX1
*SFR* 00000098H.2 DATA     BIT       RB8
*SFR* 000000CBH   DATA     BYTE      RCAP2H
*SFR* 000000CAH   DATA     BYTE      RCAP2L
*SFR* 000000C8H.5 DATA     BIT       RCLK
*SFR* 000000B0H.7 DATA     BIT       RD
      0100171DH   CODE     ---       ReadOneChar
*SFR* 00000098H.4 DATA     BIT       REN
*SFR* 000000A0H.1 DATA     BIT       reset
*SFR* 00000098H   DATA     BIT       RI
*SFR* 000000A0H.2 DATA     BIT       rs
*SFR* 000000D0H.3 DATA     BIT       RS0
*SFR* 000000D0H.4 DATA     BIT       RS1
*SFR* 000000B0H   DATA     BIT       RXD
*SFR* 0000009BH   DATA     BYTE      S2BUF
*SFR* 0000009AH   DATA     BYTE      S2CON
*SFR* 00000099H   DATA     BYTE      SBUF
*SFR* 000000A0H.5 DATA     BIT       scl
*SFR* 00000098H   DATA     BYTE      SCON
*SFR* 000000A0H.3 DATA     BIT       sda
      020001BEH   XDATA    ---       sdata
*SFR* 00000098H.7 DATA     BIT       SM0
*SFR* 00000098H.6 DATA     BIT       SM1
*SFR* 00000098H.5 DATA     BIT       SM2
      0200019AH   XDATA    BYTE      SMARTMODE
*SFR* 00000081H   DATA     BYTE      SP
      020001B9H   XDATA    WORD      svalue
*SFR* 000000B0H.4 DATA     BIT       T0
*SFR* 000000B0H.5 DATA     BIT       T1
*SFR* 00000090H   DATA     BIT       T2
*SFR* 000000C8H   DATA     BYTE      T2CON
*SFR* 00000090H.1 DATA     BIT       T2EX
*SFR* 00000098H.3 DATA     BIT       TB8
*SFR* 000000C8H.4 DATA     BIT       TCLK
*SFR* 00000088H   DATA     BYTE      TCON
      0200019BH   XDATA    BYTE      temp_threshold
      020001B6H   XDATA    BYTE      tempH
      020001B7H   XDATA    BYTE      tempL
      020001C2H   XDATA    WORD      tempvalue
*SFR* 00000088H.5 DATA     BIT       TF0
*SFR* 00000088H.7 DATA     BIT       TF1
*SFR* 000000C8H.7 DATA     BIT       TF2
*SFR* 0000008CH   DATA     BYTE      TH0
*SFR* 0000008DH   DATA     BYTE      TH1
*SFR* 000000CDH   DATA     BYTE      TH2
*SFR* 00000098H.1 DATA     BIT       TI
      01000C37H   CODE     ---       timer0
*SFR* 0000008AH   DATA     BYTE      TL0
LX51 LINKER/LOCATER V4.66.66.0                                                        09/28/2018  16:54:19  PAGE 9


*SFR* 0000008BH   DATA     BYTE      TL1
*SFR* 000000CCH   DATA     BYTE      TL2
*SFR* 00000089H   DATA     BYTE      TMOD
*SFR* 00000088H.4 DATA     BIT       TR0
*SFR* 00000088H.6 DATA     BIT       TR1
*SFR* 000000C8H.2 DATA     BIT       TR2
*SFR* 000000B0H.1 DATA     BIT       TXD
      01001329H   CODE     ---       Uart
      010012C8H   CODE     ---       Uart2
      02000086H   XDATA    ---       UART2_RX_BUF
      010017FFH   CODE     ---       Uart2Init
      02000105H   XDATA    BYTE      uart2RxCount
      02000106H   XDATA    BYTE      uart2RxSta
      02000084H   XDATA    BYTE      uart2RxTimeOut
      02000001H   XDATA    ---       UART_RX_BUF
      01000026H   CODE     ---       UartInit
      02000080H   XDATA    BYTE      uartRxCount
      02000081H   XDATA    BYTE      uartRxSta
      02000083H   XDATA    BYTE      uartRxTimeOut
      0200019CH   XDATA    BYTE      watl_threshold
      020001D3H   XDATA    BYTE      watl_value
*SFR* 000000B0H.6 DATA     BIT       WR
      020001B8H   XDATA    BYTE      xiaoshu
      020001BCH   XDATA    BYTE      xiaoshu1
      020001BDH   XDATA    BYTE      xiaoshu2
      01001ADCH   CONST    ---       Zk_ASCII8X16



SYMBOL TABLE OF MODULE:  .\Objects\samartAgr (MYSYS)

      VALUE       REP       CLASS    TYPE      SYMBOL NAME
      ====================================================
      ---         MODULE    ---      ---       MYSYS
      020001B5H   PUBLIC    XDATA    BYTE      flag_taskTwo
      020001B4H   PUBLIC    XDATA    BYTE      flag_taskOne
      020001B3H   PUBLIC    XDATA    BYTE      flag_taskFour
      020001B2H   PUBLIC    XDATA    BYTE      flag_taskThree
      020001AEH   PUBLIC    XDATA    DWORD     heartBeat
      01000C37H   PUBLIC    CODE     ---       timer0
      0100185CH   PUBLIC    CODE     ---       mysysinit
      00000080H   SFRSYM    DATA     BYTE      P0
      00000090H   SFRSYM    DATA     BYTE      P1
      000000A0H   SFRSYM    DATA     BYTE      P2
      000000B0H   SFRSYM    DATA     BYTE      P3
      000000B0H.4 SFRSYM    DATA     BIT       T0
      000000D0H.6 SFRSYM    DATA     BIT       AC
      000000B0H.5 SFRSYM    DATA     BIT       T1
      00000090H   SFRSYM    DATA     BIT       T2
      000000A8H.7 SFRSYM    DATA     BIT       EA
      000000A8H   SFRSYM    DATA     BYTE      IE
      000000C8H.6 SFRSYM    DATA     BIT       EXF2
      000000B0H.7 SFRSYM    DATA     BIT       RD
      000000A8H.4 SFRSYM    DATA     BIT       ES
      000000B8H   SFRSYM    DATA     BYTE      IP
      00000098H   SFRSYM    DATA     BIT       RI
      000000B0H.2 SFRSYM    DATA     BIT       INT0
      000000D0H.7 SFRSYM    DATA     BIT       CY
      00000098H.1 SFRSYM    DATA     BIT       TI
      000000B0H.3 SFRSYM    DATA     BIT       INT1
      000000CBH   SFRSYM    DATA     BYTE      RCAP2H
      000000B8H.4 SFRSYM    DATA     BIT       PS
      00000081H   SFRSYM    DATA     BYTE      SP
      00000090H.1 SFRSYM    DATA     BIT       T2EX
      000000D0H.2 SFRSYM    DATA     BIT       OV
LX51 LINKER/LOCATER V4.66.66.0                                                        09/28/2018  16:54:19  PAGE 10


      000000CAH   SFRSYM    DATA     BYTE      RCAP2L
      000000C8H.1 SFRSYM    DATA     BIT       C_T2
      000000B0H.6 SFRSYM    DATA     BIT       WR
      000000C8H.5 SFRSYM    DATA     BIT       RCLK
      000000C8H.4 SFRSYM    DATA     BIT       TCLK
      00000099H   SFRSYM    DATA     BYTE      SBUF
      00000087H   SFRSYM    DATA     BYTE      PCON
      00000098H   SFRSYM    DATA     BYTE      SCON
      00000089H   SFRSYM    DATA     BYTE      TMOD
      00000088H   SFRSYM    DATA     BYTE      TCON
      00000088H.1 SFRSYM    DATA     BIT       IE0
      00000088H.3 SFRSYM    DATA     BIT       IE1
      000000F0H   SFRSYM    DATA     BYTE      B
      000000C8H   SFRSYM    DATA     BIT       CP_RL2
      000000E0H   SFRSYM    DATA     BYTE      ACC
      000000A8H.1 SFRSYM    DATA     BIT       ET0
      000000A8H.3 SFRSYM    DATA     BIT       ET1
      00000088H.5 SFRSYM    DATA     BIT       TF0
      000000A8H.5 SFRSYM    DATA     BIT       ET2
      00000088H.7 SFRSYM    DATA     BIT       TF1
      000000C8H.7 SFRSYM    DATA     BIT       TF2
      00000098H.2 SFRSYM    DATA     BIT       RB8
      0000008CH   SFRSYM    DATA     BYTE      TH0
      000000A8H   SFRSYM    DATA     BIT       EX0
      00000088H   SFRSYM    DATA     BIT       IT0
      0000008DH   SFRSYM    DATA     BYTE      TH1
      00000098H.3 SFRSYM    DATA     BIT       TB8
      000000A8H.2 SFRSYM    DATA     BIT       EX1
      00000088H.2 SFRSYM    DATA     BIT       IT1
      000000CDH   SFRSYM    DATA     BYTE      TH2
      000000D0H   SFRSYM    DATA     BIT       P
      00000098H.7 SFRSYM    DATA     BIT       SM0
      0000008AH   SFRSYM    DATA     BYTE      TL0
      00000098H.6 SFRSYM    DATA     BIT       SM1
      0000008BH   SFRSYM    DATA     BYTE      TL1
      00000098H.5 SFRSYM    DATA     BIT       SM2
      000000CCH   SFRSYM    DATA     BYTE      TL2
      000000B8H.1 SFRSYM    DATA     BIT       PT0
      000000B8H.3 SFRSYM    DATA     BIT       PT1
      000000D0H.3 SFRSYM    DATA     BIT       RS0
      000000B8H.5 SFRSYM    DATA     BIT       PT2
      00000088H.4 SFRSYM    DATA     BIT       TR0
      000000D0H.4 SFRSYM    DATA     BIT       RS1
      00000088H.6 SFRSYM    DATA     BIT       TR1
      000000C8H.2 SFRSYM    DATA     BIT       TR2
      000000B8H   SFRSYM    DATA     BIT       PX0
      000000B8H.2 SFRSYM    DATA     BIT       PX1
      00000083H   SFRSYM    DATA     BYTE      DPH
      00000082H   SFRSYM    DATA     BYTE      DPL
      000000C8H.3 SFRSYM    DATA     BIT       EXEN2
      00000098H.4 SFRSYM    DATA     BIT       REN
      000000C8H   SFRSYM    DATA     BYTE      T2CON
      000000B0H   SFRSYM    DATA     BIT       RXD
      000000B0H.1 SFRSYM    DATA     BIT       TXD
      000000D0H.5 SFRSYM    DATA     BIT       F0
      000000D0H   SFRSYM    DATA     BYTE      PSW

      0100185CH   BLOCK     CODE     ---       LVL=0
      0100185CH   LINE      CODE     ---       #11
      0100185CH   LINE      CODE     ---       #12
      0100185CH   LINE      CODE     ---       #13
      0100185FH   LINE      CODE     ---       #14
      01001862H   LINE      CODE     ---       #15
      01001865H   LINE      CODE     ---       #16
      01001868H   LINE      CODE     ---       #17
LX51 LINKER/LOCATER V4.66.66.0                                                        09/28/2018  16:54:19  PAGE 11


      0100186AH   LINE      CODE     ---       #18
      0100186CH   LINE      CODE     ---       #19
      0100186EH   LINE      CODE     ---       #20
      ---         BLOCKEND  ---      ---       LVL=0

      01000C37H   BLOCK     CODE     ---       LVL=0
      01000C37H   LINE      CODE     ---       #24
      01000C54H   LINE      CODE     ---       #26
      01000C57H   LINE      CODE     ---       #27
      01000C5AH   LINE      CODE     ---       #29
      01000C96H   LINE      CODE     ---       #30
      01000C9DH   LINE      CODE     ---       #32
      01000CCCH   LINE      CODE     ---       #33
      01000CFBH   LINE      CODE     ---       #34
      01000D2AH   LINE      CODE     ---       #35
      01000D59H   LINE      CODE     ---       #38
      01000D5FH   LINE      CODE     ---       #39
      01000D5FH   LINE      CODE     ---       #40
      01000D6DH   LINE      CODE     ---       #42
      01000D6DH   LINE      CODE     ---       #43
      01000D72H   LINE      CODE     ---       #44
      01000D77H   LINE      CODE     ---       #45
      01000D77H   LINE      CODE     ---       #46
      01000D77H   LINE      CODE     ---       #47
      01000D7DH   LINE      CODE     ---       #48
      01000D7DH   LINE      CODE     ---       #49
      01000D8BH   LINE      CODE     ---       #51
      01000D8BH   LINE      CODE     ---       #52
      01000D90H   LINE      CODE     ---       #53
      01000D95H   LINE      CODE     ---       #54
      01000D95H   LINE      CODE     ---       #55
      01000D95H   LINE      CODE     ---       #56
      ---         BLOCKEND  ---      ---       LVL=0

      ---         MODULE    ---      ---       TASKLIST
      020001C2H   PUBLIC    XDATA    WORD      tempvalue
      020001BEH   PUBLIC    XDATA    ---       sdata
      01001526H   PUBLIC    CODE     ---       MyTask_Four
      010014DCH   PUBLIC    CODE     ---       MyTask_Three
      0100148DH   PUBLIC    CODE     ---       MyTask_Two
      010013E4H   PUBLIC    CODE     ---       MyTask_One
      00000080H   SFRSYM    DATA     BYTE      P0
      00000090H   SFRSYM    DATA     BYTE      P1
      000000A0H   SFRSYM    DATA     BYTE      P2
      000000B0H   SFRSYM    DATA     BYTE      P3
      000000B0H.4 SFRSYM    DATA     BIT       T0
      000000D0H.6 SFRSYM    DATA     BIT       AC
      000000B0H.5 SFRSYM    DATA     BIT       T1
      00000090H   SFRSYM    DATA     BIT       T2
      000000A8H.7 SFRSYM    DATA     BIT       EA
      000000A8H   SFRSYM    DATA     BYTE      IE
      000000BDH   SFRSYM    DATA     BYTE      ADC_RES
      000000C8H.6 SFRSYM    DATA     BIT       EXF2
      000000B0H.7 SFRSYM    DATA     BIT       RD
      000000A8H.4 SFRSYM    DATA     BIT       ES
      000000B8H   SFRSYM    DATA     BYTE      IP
      00000098H   SFRSYM    DATA     BIT       RI
      000000B0H.2 SFRSYM    DATA     BIT       INT0
      000000D0H.7 SFRSYM    DATA     BIT       CY
      00000098H.1 SFRSYM    DATA     BIT       TI
      000000B0H.3 SFRSYM    DATA     BIT       INT1
      000000CBH   SFRSYM    DATA     BYTE      RCAP2H
      000000B8H.4 SFRSYM    DATA     BIT       PS
      00000081H   SFRSYM    DATA     BYTE      SP
      00000080H.2 SFRSYM    DATA     BIT       IO_LAMP
LX51 LINKER/LOCATER V4.66.66.0                                                        09/28/2018  16:54:19  PAGE 12


      00000090H.1 SFRSYM    DATA     BIT       T2EX
      000000D0H.2 SFRSYM    DATA     BIT       OV
      000000A0H.1 SFRSYM    DATA     BIT       reset
      000000CAH   SFRSYM    DATA     BYTE      RCAP2L
      000000C8H.1 SFRSYM    DATA     BIT       C_T2
      000000B0H.6 SFRSYM    DATA     BIT       WR
      000000C8H.5 SFRSYM    DATA     BIT       RCLK
      000000C8H.4 SFRSYM    DATA     BIT       TCLK
      000000BCH   SFRSYM    DATA     BYTE      ADC_CONTR
      00000099H   SFRSYM    DATA     BYTE      SBUF
      00000087H   SFRSYM    DATA     BYTE      PCON
      00000098H   SFRSYM    DATA     BYTE      SCON
      00000089H   SFRSYM    DATA     BYTE      TMOD
      00000088H   SFRSYM    DATA     BYTE      TCON
      000000A0H.3 SFRSYM    DATA     BIT       sda
      00000080H.1 SFRSYM    DATA     BIT       IO_PUMP
      00000088H.1 SFRSYM    DATA     BIT       IE0
      00000088H.3 SFRSYM    DATA     BIT       IE1
      000000F0H   SFRSYM    DATA     BYTE      B
      000000A0H.5 SFRSYM    DATA     BIT       scl
      000000C8H   SFRSYM    DATA     BIT       CP_RL2
      000000E0H   SFRSYM    DATA     BYTE      ACC
      000000A8H.1 SFRSYM    DATA     BIT       ET0
      000000A8H.3 SFRSYM    DATA     BIT       ET1
      00000088H.5 SFRSYM    DATA     BIT       TF0
      000000A8H.5 SFRSYM    DATA     BIT       ET2
      00000088H.7 SFRSYM    DATA     BIT       TF1
      000000C8H.7 SFRSYM    DATA     BIT       TF2
      00000098H.2 SFRSYM    DATA     BIT       RB8
      0000008CH   SFRSYM    DATA     BYTE      TH0
      000000A8H   SFRSYM    DATA     BIT       EX0
      00000088H   SFRSYM    DATA     BIT       IT0
      0000008DH   SFRSYM    DATA     BYTE      TH1
      000000A0H.4 SFRSYM    DATA     BIT       bl
      00000098H.3 SFRSYM    DATA     BIT       TB8
      000000A8H.2 SFRSYM    DATA     BIT       EX1
      00000088H.2 SFRSYM    DATA     BIT       IT1
      000000CDH   SFRSYM    DATA     BYTE      TH2
      000000D0H   SFRSYM    DATA     BIT       P
      00000098H.7 SFRSYM    DATA     BIT       SM0
      0000008AH   SFRSYM    DATA     BYTE      TL0
      00000098H.6 SFRSYM    DATA     BIT       SM1
      0000008BH   SFRSYM    DATA     BYTE      TL1
      00000098H.5 SFRSYM    DATA     BIT       SM2
      000000CCH   SFRSYM    DATA     BYTE      TL2
      000000B8H.1 SFRSYM    DATA     BIT       PT0
      000000B8H.3 SFRSYM    DATA     BIT       PT1
      000000D0H.3 SFRSYM    DATA     BIT       RS0
      000000A0H   SFRSYM    DATA     BIT       cs
      000000B8H.5 SFRSYM    DATA     BIT       PT2
      00000088H.4 SFRSYM    DATA     BIT       TR0
      000000D0H.4 SFRSYM    DATA     BIT       RS1
      00000088H.6 SFRSYM    DATA     BIT       TR1
      000000C8H.2 SFRSYM    DATA     BIT       TR2
      000000B8H   SFRSYM    DATA     BIT       PX0
      000000B8H.2 SFRSYM    DATA     BIT       PX1
      0000009DH   SFRSYM    DATA     BYTE      P1ASF
      00000083H   SFRSYM    DATA     BYTE      DPH
      000000BEH   SFRSYM    DATA     BYTE      ADC_RESL
      00000082H   SFRSYM    DATA     BYTE      DPL
      000000C8H.3 SFRSYM    DATA     BIT       EXEN2
      000000A0H.2 SFRSYM    DATA     BIT       rs
      00000098H.4 SFRSYM    DATA     BIT       REN
      000000C8H   SFRSYM    DATA     BYTE      T2CON
      000000B0H   SFRSYM    DATA     BIT       RXD
LX51 LINKER/LOCATER V4.66.66.0                                                        09/28/2018  16:54:19  PAGE 13


      000000B0H.1 SFRSYM    DATA     BIT       TXD
      000000D0H.5 SFRSYM    DATA     BIT       F0
      000000D0H   SFRSYM    DATA     BYTE      PSW

      010013E4H   BLOCK     CODE     ---       LVL=0
      010013E4H   BLOCK     CODE     NEAR LAB  LVL=1
      02000107H   SYMBOL    XDATA    ---       tempstr
      ---         BLOCKEND  ---      ---       LVL=1
      010013E4H   LINE      CODE     ---       #11
      010013E4H   LINE      CODE     ---       #12
      010013E4H   LINE      CODE     ---       #15
      010013F5H   LINE      CODE     ---       #16
      01001415H   LINE      CODE     ---       #18
      0100141AH   LINE      CODE     ---       #19
      0100141CH   LINE      CODE     ---       #20
      01001429H   LINE      CODE     ---       #21
      0100142CH   LINE      CODE     ---       #22
      ---         BLOCKEND  ---      ---       LVL=0

      0100148DH   BLOCK     CODE     ---       LVL=0
      0100148DH   BLOCK     CODE     NEAR LAB  LVL=1
      02000107H   SYMBOL    XDATA    ---       str
      0200010CH   SYMBOL    XDATA    BYTE      waterl
      ---         BLOCKEND  ---      ---       LVL=1
      0100148DH   LINE      CODE     ---       #25
      0100148DH   LINE      CODE     ---       #26
      0100148DH   LINE      CODE     ---       #30
      0100149BH   LINE      CODE     ---       #31
      010014BBH   LINE      CODE     ---       #33
      010014C0H   LINE      CODE     ---       #34
      010014C2H   LINE      CODE     ---       #35
      010014CCH   LINE      CODE     ---       #36
      010014CFH   LINE      CODE     ---       #37
      ---         BLOCKEND  ---      ---       LVL=0

      010014DCH   BLOCK     CODE     ---       LVL=0
      010014DCH   LINE      CODE     ---       #39
      010014DCH   LINE      CODE     ---       #40
      010014DCH   LINE      CODE     ---       #41
      010014EFH   LINE      CODE     ---       #42
      0100150BH   LINE      CODE     ---       #43
      01001510H   LINE      CODE     ---       #44
      01001512H   LINE      CODE     ---       #45
      01001514H   LINE      CODE     ---       #46
      01001519H   LINE      CODE     ---       #47
      ---         BLOCKEND  ---      ---       LVL=0

      01001526H   BLOCK     CODE     ---       LVL=0
      01001526H   LINE      CODE     ---       #50
      01001526H   LINE      CODE     ---       #51
      01001526H   LINE      CODE     ---       #52
      01001539H   LINE      CODE     ---       #53
      01001555H   LINE      CODE     ---       #54
      0100155AH   LINE      CODE     ---       #55
      0100155CH   LINE      CODE     ---       #56
      0100155EH   LINE      CODE     ---       #57
      01001563H   LINE      CODE     ---       #58
      ---         BLOCKEND  ---      ---       LVL=0

      ---         MODULE    ---      ---       AGREEMENT
      0200019CH   PUBLIC    XDATA    BYTE      watl_threshold
      0200019BH   PUBLIC    XDATA    BYTE      temp_threshold
      0200019AH   PUBLIC    XDATA    BYTE      SMARTMODE
      02000188H   PUBLIC    XDATA    ---       DataBuf
      0100124BH   PUBLIC    CODE     ---       _agreementParse
LX51 LINKER/LOCATER V4.66.66.0                                                        09/28/2018  16:54:19  PAGE 14


      010015B3H   PUBLIC    CODE     ---       _Send_SensorData
      00000080H   SFRSYM    DATA     BYTE      P0
      00000090H   SFRSYM    DATA     BYTE      P1
      000000A0H   SFRSYM    DATA     BYTE      P2
      000000B0H   SFRSYM    DATA     BYTE      P3
      000000B0H.4 SFRSYM    DATA     BIT       T0
      000000D0H.6 SFRSYM    DATA     BIT       AC
      000000B0H.5 SFRSYM    DATA     BIT       T1
      00000090H   SFRSYM    DATA     BIT       T2
      000000A8H.7 SFRSYM    DATA     BIT       EA
      000000A8H   SFRSYM    DATA     BYTE      IE
      000000C8H.6 SFRSYM    DATA     BIT       EXF2
      000000B0H.7 SFRSYM    DATA     BIT       RD
      000000A8H.4 SFRSYM    DATA     BIT       ES
      000000B8H   SFRSYM    DATA     BYTE      IP
      00000098H   SFRSYM    DATA     BIT       RI
      000000B0H.2 SFRSYM    DATA     BIT       INT0
      000000D0H.7 SFRSYM    DATA     BIT       CY
      00000098H.1 SFRSYM    DATA     BIT       TI
      000000B0H.3 SFRSYM    DATA     BIT       INT1
      000000CBH   SFRSYM    DATA     BYTE      RCAP2H
      000000B8H.4 SFRSYM    DATA     BIT       PS
      00000081H   SFRSYM    DATA     BYTE      SP
      00000080H.2 SFRSYM    DATA     BIT       IO_LAMP
      00000090H.1 SFRSYM    DATA     BIT       T2EX
      000000D0H.2 SFRSYM    DATA     BIT       OV
      000000CAH   SFRSYM    DATA     BYTE      RCAP2L
      000000C8H.1 SFRSYM    DATA     BIT       C_T2
      000000B0H.6 SFRSYM    DATA     BIT       WR
      000000C8H.5 SFRSYM    DATA     BIT       RCLK
      000000C8H.4 SFRSYM    DATA     BIT       TCLK
      00000099H   SFRSYM    DATA     BYTE      SBUF
      00000087H   SFRSYM    DATA     BYTE      PCON
      00000098H   SFRSYM    DATA     BYTE      SCON
      00000089H   SFRSYM    DATA     BYTE      TMOD
      00000088H   SFRSYM    DATA     BYTE      TCON
      00000080H.1 SFRSYM    DATA     BIT       IO_PUMP
      00000088H.1 SFRSYM    DATA     BIT       IE0
      00000088H.3 SFRSYM    DATA     BIT       IE1
      000000F0H   SFRSYM    DATA     BYTE      B
      000000C8H   SFRSYM    DATA     BIT       CP_RL2
      000000E0H   SFRSYM    DATA     BYTE      ACC
      000000A8H.1 SFRSYM    DATA     BIT       ET0
      000000A8H.3 SFRSYM    DATA     BIT       ET1
      00000088H.5 SFRSYM    DATA     BIT       TF0
      000000A8H.5 SFRSYM    DATA     BIT       ET2
      00000088H.7 SFRSYM    DATA     BIT       TF1
      000000C8H.7 SFRSYM    DATA     BIT       TF2
      00000098H.2 SFRSYM    DATA     BIT       RB8
      0000008CH   SFRSYM    DATA     BYTE      TH0
      000000A8H   SFRSYM    DATA     BIT       EX0
      00000088H   SFRSYM    DATA     BIT       IT0
      0000008DH   SFRSYM    DATA     BYTE      TH1
      00000098H.3 SFRSYM    DATA     BIT       TB8
      000000A8H.2 SFRSYM    DATA     BIT       EX1
      00000088H.2 SFRSYM    DATA     BIT       IT1
      000000CDH   SFRSYM    DATA     BYTE      TH2
      000000D0H   SFRSYM    DATA     BIT       P
      00000098H.7 SFRSYM    DATA     BIT       SM0
      0000008AH   SFRSYM    DATA     BYTE      TL0
      00000098H.6 SFRSYM    DATA     BIT       SM1
      0000008BH   SFRSYM    DATA     BYTE      TL1
      00000098H.5 SFRSYM    DATA     BIT       SM2
      000000CCH   SFRSYM    DATA     BYTE      TL2
      000000B8H.1 SFRSYM    DATA     BIT       PT0
LX51 LINKER/LOCATER V4.66.66.0                                                        09/28/2018  16:54:19  PAGE 15


      000000B8H.3 SFRSYM    DATA     BIT       PT1
      000000D0H.3 SFRSYM    DATA     BIT       RS0
      000000B8H.5 SFRSYM    DATA     BIT       PT2
      00000088H.4 SFRSYM    DATA     BIT       TR0
      000000D0H.4 SFRSYM    DATA     BIT       RS1
      00000088H.6 SFRSYM    DATA     BIT       TR1
      000000C8H.2 SFRSYM    DATA     BIT       TR2
      000000B8H   SFRSYM    DATA     BIT       PX0
      000000B8H.2 SFRSYM    DATA     BIT       PX1
      00000083H   SFRSYM    DATA     BYTE      DPH
      00000082H   SFRSYM    DATA     BYTE      DPL
      000000C8H.3 SFRSYM    DATA     BIT       EXEN2
      00000098H.4 SFRSYM    DATA     BIT       REN
      000000C8H   SFRSYM    DATA     BYTE      T2CON
      000000B0H   SFRSYM    DATA     BIT       RXD
      000000B0H.1 SFRSYM    DATA     BIT       TXD
      000000D0H.5 SFRSYM    DATA     BIT       F0
      000000D0H   SFRSYM    DATA     BYTE      PSW

      010015B3H   BLOCK     CODE     ---       LVL=0
      00000007H   SYMBOL    DATA     BYTE      _SensorType
      00000005H   SYMBOL    DATA     BYTE      _SenserIndex
      00000001H   SYMBOL    DATA     ---       _pData
      010015B3H   LINE      CODE     ---       #12
      010015B3H   LINE      CODE     ---       #13
      010015B3H   LINE      CODE     ---       #14
      010015B8H   LINE      CODE     ---       #15
      010015BFH   LINE      CODE     ---       #16
      010015C9H   LINE      CODE     ---       #17
      010015D3H   LINE      CODE     ---       #18
      010015DDH   LINE      CODE     ---       #19
      010015E2H   LINE      CODE     ---       #21
      ---         BLOCKEND  ---      ---       LVL=0

      0100124BH   BLOCK     CODE     ---       LVL=0
      00000001H   SYMBOL    DATA     ---       str
      0100124BH   LINE      CODE     ---       #24
      0100124BH   LINE      CODE     ---       #25
      0100124BH   LINE      CODE     ---       #26
      01001265H   LINE      CODE     ---       #27
      01001265H   LINE      CODE     ---       #28
      0100126FH   LINE      CODE     ---       #29
      0100126FH   LINE      CODE     ---       #30
      01001279H   LINE      CODE     ---       #31
      01001283H   LINE      CODE     ---       #32
      0100128DH   LINE      CODE     ---       #33
      0100128DH   LINE      CODE     ---       #35
      01001292H   LINE      CODE     ---       #36
      01001292H   LINE      CODE     ---       #37
      010012A0H   LINE      CODE     ---       #38
      010012A0H   LINE      CODE     ---       #39
      010012A0H   LINE      CODE     ---       #40
      010012ACH   LINE      CODE     ---       #41
      010012AEH   LINE      CODE     ---       #42
      010012B1H   LINE      CODE     ---       #43
      010012B3H   LINE      CODE     ---       #44
      010012B3H   LINE      CODE     ---       #45
      010012BFH   LINE      CODE     ---       #46
      010012C1H   LINE      CODE     ---       #47
      010012C7H   LINE      CODE     ---       #48
      010012C7H   LINE      CODE     ---       #49
      010012C7H   LINE      CODE     ---       #50
      010012C7H   LINE      CODE     ---       #51
      010012C7H   LINE      CODE     ---       #52
      010012C7H   LINE      CODE     ---       #53
LX51 LINKER/LOCATER V4.66.66.0                                                        09/28/2018  16:54:19  PAGE 16


      010012C7H   LINE      CODE     ---       #54
      ---         BLOCKEND  ---      ---       LVL=0

      ---         MODULE    ---      ---       IO
      00000080H   SFRSYM    DATA     BYTE      P0
      00000090H   SFRSYM    DATA     BYTE      P1
      000000A0H   SFRSYM    DATA     BYTE      P2
      000000B0H   SFRSYM    DATA     BYTE      P3
      000000B0H.4 SFRSYM    DATA     BIT       T0
      000000D0H.6 SFRSYM    DATA     BIT       AC
      000000B0H.5 SFRSYM    DATA     BIT       T1
      00000090H   SFRSYM    DATA     BIT       T2
      000000A8H.7 SFRSYM    DATA     BIT       EA
      000000A8H   SFRSYM    DATA     BYTE      IE
      000000C8H.6 SFRSYM    DATA     BIT       EXF2
      000000B0H.7 SFRSYM    DATA     BIT       RD
      000000A8H.4 SFRSYM    DATA     BIT       ES
      000000B8H   SFRSYM    DATA     BYTE      IP
      00000098H   SFRSYM    DATA     BIT       RI
      000000B0H.2 SFRSYM    DATA     BIT       INT0
      000000D0H.7 SFRSYM    DATA     BIT       CY
      00000098H.1 SFRSYM    DATA     BIT       TI
      000000B0H.3 SFRSYM    DATA     BIT       INT1
      000000CBH   SFRSYM    DATA     BYTE      RCAP2H
      000000B8H.4 SFRSYM    DATA     BIT       PS
      00000081H   SFRSYM    DATA     BYTE      SP
      00000080H.2 SFRSYM    DATA     BIT       IO_LAMP
      00000090H.1 SFRSYM    DATA     BIT       T2EX
      000000D0H.2 SFRSYM    DATA     BIT       OV
      000000CAH   SFRSYM    DATA     BYTE      RCAP2L
      000000C8H.1 SFRSYM    DATA     BIT       C_T2
      000000B0H.6 SFRSYM    DATA     BIT       WR
      000000C8H.5 SFRSYM    DATA     BIT       RCLK
      000000C8H.4 SFRSYM    DATA     BIT       TCLK
      00000099H   SFRSYM    DATA     BYTE      SBUF
      00000087H   SFRSYM    DATA     BYTE      PCON
      00000098H   SFRSYM    DATA     BYTE      SCON
      00000089H   SFRSYM    DATA     BYTE      TMOD
      00000088H   SFRSYM    DATA     BYTE      TCON
      00000080H.1 SFRSYM    DATA     BIT       IO_PUMP
      00000088H.1 SFRSYM    DATA     BIT       IE0
      00000088H.3 SFRSYM    DATA     BIT       IE1
      000000F0H   SFRSYM    DATA     BYTE      B
      000000C8H   SFRSYM    DATA     BIT       CP_RL2
      000000E0H   SFRSYM    DATA     BYTE      ACC
      000000A8H.1 SFRSYM    DATA     BIT       ET0
      000000A8H.3 SFRSYM    DATA     BIT       ET1
      00000088H.5 SFRSYM    DATA     BIT       TF0
      000000A8H.5 SFRSYM    DATA     BIT       ET2
      00000088H.7 SFRSYM    DATA     BIT       TF1
      000000C8H.7 SFRSYM    DATA     BIT       TF2
      00000098H.2 SFRSYM    DATA     BIT       RB8
      0000008CH   SFRSYM    DATA     BYTE      TH0
      000000A8H   SFRSYM    DATA     BIT       EX0
      00000088H   SFRSYM    DATA     BIT       IT0
      0000008DH   SFRSYM    DATA     BYTE      TH1
      00000098H.3 SFRSYM    DATA     BIT       TB8
      000000A8H.2 SFRSYM    DATA     BIT       EX1
      00000088H.2 SFRSYM    DATA     BIT       IT1
      000000CDH   SFRSYM    DATA     BYTE      TH2
      000000D0H   SFRSYM    DATA     BIT       P
      00000098H.7 SFRSYM    DATA     BIT       SM0
      0000008AH   SFRSYM    DATA     BYTE      TL0
      00000098H.6 SFRSYM    DATA     BIT       SM1
      0000008BH   SFRSYM    DATA     BYTE      TL1
LX51 LINKER/LOCATER V4.66.66.0                                                        09/28/2018  16:54:19  PAGE 17


      00000098H.5 SFRSYM    DATA     BIT       SM2
      000000CCH   SFRSYM    DATA     BYTE      TL2
      000000B8H.1 SFRSYM    DATA     BIT       PT0
      000000B8H.3 SFRSYM    DATA     BIT       PT1
      000000D0H.3 SFRSYM    DATA     BIT       RS0
      000000B8H.5 SFRSYM    DATA     BIT       PT2
      00000088H.4 SFRSYM    DATA     BIT       TR0
      000000D0H.4 SFRSYM    DATA     BIT       RS1
      00000088H.6 SFRSYM    DATA     BIT       TR1
      000000C8H.2 SFRSYM    DATA     BIT       TR2
      000000B8H   SFRSYM    DATA     BIT       PX0
      000000B8H.2 SFRSYM    DATA     BIT       PX1
      00000083H   SFRSYM    DATA     BYTE      DPH
      00000082H   SFRSYM    DATA     BYTE      DPL
      000000C8H.3 SFRSYM    DATA     BIT       EXEN2
      00000098H.4 SFRSYM    DATA     BIT       REN
      000000C8H   SFRSYM    DATA     BYTE      T2CON
      000000B0H   SFRSYM    DATA     BIT       RXD
      000000B0H.1 SFRSYM    DATA     BIT       TXD
      000000D0H.5 SFRSYM    DATA     BIT       F0
      000000D0H   SFRSYM    DATA     BYTE      PSW

      ---         MODULE    ---      ---       DELAY
      010017E7H   PUBLIC    CODE     ---       _delay_ms
      010018A4H   PUBLIC    CODE     ---       Delay1ms
      00000080H   SFRSYM    DATA     BYTE      P0
      00000090H   SFRSYM    DATA     BYTE      P1
      000000A0H   SFRSYM    DATA     BYTE      P2
      000000B0H   SFRSYM    DATA     BYTE      P3
      000000B0H.4 SFRSYM    DATA     BIT       T0
      000000D0H.6 SFRSYM    DATA     BIT       AC
      000000B0H.5 SFRSYM    DATA     BIT       T1
      00000090H   SFRSYM    DATA     BIT       T2
      000000A8H.7 SFRSYM    DATA     BIT       EA
      000000A8H   SFRSYM    DATA     BYTE      IE
      000000C8H.6 SFRSYM    DATA     BIT       EXF2
      000000B0H.7 SFRSYM    DATA     BIT       RD
      000000A8H.4 SFRSYM    DATA     BIT       ES
      000000B8H   SFRSYM    DATA     BYTE      IP
      00000098H   SFRSYM    DATA     BIT       RI
      000000B0H.2 SFRSYM    DATA     BIT       INT0
      000000D0H.7 SFRSYM    DATA     BIT       CY
      00000098H.1 SFRSYM    DATA     BIT       TI
      000000B0H.3 SFRSYM    DATA     BIT       INT1
      000000CBH   SFRSYM    DATA     BYTE      RCAP2H
      000000B8H.4 SFRSYM    DATA     BIT       PS
      00000081H   SFRSYM    DATA     BYTE      SP
      00000090H.1 SFRSYM    DATA     BIT       T2EX
      000000D0H.2 SFRSYM    DATA     BIT       OV
      000000CAH   SFRSYM    DATA     BYTE      RCAP2L
      000000C8H.1 SFRSYM    DATA     BIT       C_T2
      000000B0H.6 SFRSYM    DATA     BIT       WR
      000000C8H.5 SFRSYM    DATA     BIT       RCLK
      000000C8H.4 SFRSYM    DATA     BIT       TCLK
      00000099H   SFRSYM    DATA     BYTE      SBUF
      00000087H   SFRSYM    DATA     BYTE      PCON
      00000098H   SFRSYM    DATA     BYTE      SCON
      00000089H   SFRSYM    DATA     BYTE      TMOD
      00000088H   SFRSYM    DATA     BYTE      TCON
      00000088H.1 SFRSYM    DATA     BIT       IE0
      00000088H.3 SFRSYM    DATA     BIT       IE1
      000000F0H   SFRSYM    DATA     BYTE      B
      000000C8H   SFRSYM    DATA     BIT       CP_RL2
      000000E0H   SFRSYM    DATA     BYTE      ACC
      000000A8H.1 SFRSYM    DATA     BIT       ET0
LX51 LINKER/LOCATER V4.66.66.0                                                        09/28/2018  16:54:19  PAGE 18


      000000A8H.3 SFRSYM    DATA     BIT       ET1
      00000088H.5 SFRSYM    DATA     BIT       TF0
      000000A8H.5 SFRSYM    DATA     BIT       ET2
      00000088H.7 SFRSYM    DATA     BIT       TF1
      000000C8H.7 SFRSYM    DATA     BIT       TF2
      00000098H.2 SFRSYM    DATA     BIT       RB8
      0000008CH   SFRSYM    DATA     BYTE      TH0
      000000A8H   SFRSYM    DATA     BIT       EX0
      00000088H   SFRSYM    DATA     BIT       IT0
      0000008DH   SFRSYM    DATA     BYTE      TH1
      00000098H.3 SFRSYM    DATA     BIT       TB8
      000000A8H.2 SFRSYM    DATA     BIT       EX1
      00000088H.2 SFRSYM    DATA     BIT       IT1
      000000CDH   SFRSYM    DATA     BYTE      TH2
      000000D0H   SFRSYM    DATA     BIT       P
      00000098H.7 SFRSYM    DATA     BIT       SM0
      0000008AH   SFRSYM    DATA     BYTE      TL0
      00000098H.6 SFRSYM    DATA     BIT       SM1
      0000008BH   SFRSYM    DATA     BYTE      TL1
      00000098H.5 SFRSYM    DATA     BIT       SM2
      000000CCH   SFRSYM    DATA     BYTE      TL2
      000000B8H.1 SFRSYM    DATA     BIT       PT0
      000000B8H.3 SFRSYM    DATA     BIT       PT1
      000000D0H.3 SFRSYM    DATA     BIT       RS0
      000000B8H.5 SFRSYM    DATA     BIT       PT2
      00000088H.4 SFRSYM    DATA     BIT       TR0
      000000D0H.4 SFRSYM    DATA     BIT       RS1
      00000088H.6 SFRSYM    DATA     BIT       TR1
      000000C8H.2 SFRSYM    DATA     BIT       TR2
      000000B8H   SFRSYM    DATA     BIT       PX0
      000000B8H.2 SFRSYM    DATA     BIT       PX1
      00000083H   SFRSYM    DATA     BYTE      DPH
      00000082H   SFRSYM    DATA     BYTE      DPL
      000000C8H.3 SFRSYM    DATA     BIT       EXEN2
      00000098H.4 SFRSYM    DATA     BIT       REN
      000000C8H   SFRSYM    DATA     BYTE      T2CON
      000000B0H   SFRSYM    DATA     BIT       RXD
      000000B0H.1 SFRSYM    DATA     BIT       TXD
      000000D0H.5 SFRSYM    DATA     BIT       F0
      000000D0H   SFRSYM    DATA     BYTE      PSW

      010018A4H   BLOCK     CODE     ---       LVL=0
      010018A4H   BLOCK     CODE     NEAR LAB  LVL=1
      00000007H   SYMBOL    DATA     BYTE      i
      00000006H   SYMBOL    DATA     BYTE      j
      ---         BLOCKEND  ---      ---       LVL=1
      010018A4H   LINE      CODE     ---       #3
      010018A4H   LINE      CODE     ---       #4
      010018A4H   LINE      CODE     ---       #7
      010018A6H   LINE      CODE     ---       #8
      010018A8H   LINE      CODE     ---       #10
      010018A8H   LINE      CODE     ---       #11
      010018AAH   LINE      CODE     ---       #12
      010018ACH   LINE      CODE     ---       #13
      ---         BLOCKEND  ---      ---       LVL=0

      010017E7H   BLOCK     CODE     ---       LVL=0
      00000006H   SYMBOL    DATA     WORD      ms
      010017E7H   BLOCK     CODE     NEAR LAB  LVL=1
      00000004H   SYMBOL    DATA     WORD      i
      ---         BLOCKEND  ---      ---       LVL=1
      010017E7H   LINE      CODE     ---       #15
      010017E7H   LINE      CODE     ---       #16
      010017E7H   LINE      CODE     ---       #18
      010017F4H   LINE      CODE     ---       #19
LX51 LINKER/LOCATER V4.66.66.0                                                        09/28/2018  16:54:19  PAGE 19


      010017FEH   LINE      CODE     ---       #20
      ---         BLOCKEND  ---      ---       LVL=0

      ---         MODULE    ---      ---       UART
      02000083H   PUBLIC    XDATA    BYTE      uartRxTimeOut
      00000020H.0 PUBLIC    BIT      BIT       busy
      02000082H   PUBLIC    XDATA    BYTE      cmd
      02000081H   PUBLIC    XDATA    BYTE      uartRxSta
      02000080H   PUBLIC    XDATA    BYTE      uartRxCount
      02000001H   PUBLIC    XDATA    ---       UART_RX_BUF
      02000000H   PUBLIC    XDATA    BYTE      flag_uart_rx
      010017AEH   PUBLIC    CODE     ---       clearBuf
      010016C3H   PUBLIC    CODE     ---       _uartSendData
      0100165DH   PUBLIC    CODE     ---       _uartSendString
      01000003H   PUBLIC    CODE     ---       _Putchar
      01001329H   PUBLIC    CODE     ---       Uart
      01000026H   PUBLIC    CODE     ---       UartInit
      00000080H   SFRSYM    DATA     BYTE      P0
      00000090H   SFRSYM    DATA     BYTE      P1
      000000A0H   SFRSYM    DATA     BYTE      P2
      000000B0H   SFRSYM    DATA     BYTE      P3
      000000B0H.4 SFRSYM    DATA     BIT       T0
      000000D0H.6 SFRSYM    DATA     BIT       AC
      000000B0H.5 SFRSYM    DATA     BIT       T1
      00000090H   SFRSYM    DATA     BIT       T2
      000000A8H.7 SFRSYM    DATA     BIT       EA
      000000A8H   SFRSYM    DATA     BYTE      IE
      000000C8H.6 SFRSYM    DATA     BIT       EXF2
      000000B0H.7 SFRSYM    DATA     BIT       RD
      000000A8H.4 SFRSYM    DATA     BIT       ES
      000000B8H   SFRSYM    DATA     BYTE      IP
      00000098H   SFRSYM    DATA     BIT       RI
      000000B0H.2 SFRSYM    DATA     BIT       INT0
      000000D0H.7 SFRSYM    DATA     BIT       CY
      00000098H.1 SFRSYM    DATA     BIT       TI
      000000B0H.3 SFRSYM    DATA     BIT       INT1
      000000CBH   SFRSYM    DATA     BYTE      RCAP2H
      000000B8H.4 SFRSYM    DATA     BIT       PS
      00000081H   SFRSYM    DATA     BYTE      SP
      00000090H.1 SFRSYM    DATA     BIT       T2EX
      000000D0H.2 SFRSYM    DATA     BIT       OV
      000000CAH   SFRSYM    DATA     BYTE      RCAP2L
      000000C8H.1 SFRSYM    DATA     BIT       C_T2
      000000B0H.6 SFRSYM    DATA     BIT       WR
      000000C8H.5 SFRSYM    DATA     BIT       RCLK
      000000C8H.4 SFRSYM    DATA     BIT       TCLK
      00000099H   SFRSYM    DATA     BYTE      SBUF
      00000087H   SFRSYM    DATA     BYTE      PCON
      00000098H   SFRSYM    DATA     BYTE      SCON
      00000089H   SFRSYM    DATA     BYTE      TMOD
      00000088H   SFRSYM    DATA     BYTE      TCON
      00000088H.1 SFRSYM    DATA     BIT       IE0
      00000088H.3 SFRSYM    DATA     BIT       IE1
      000000F0H   SFRSYM    DATA     BYTE      B
      000000C8H   SFRSYM    DATA     BIT       CP_RL2
      000000E0H   SFRSYM    DATA     BYTE      ACC
      000000A8H.1 SFRSYM    DATA     BIT       ET0
      000000A8H.3 SFRSYM    DATA     BIT       ET1
      00000088H.5 SFRSYM    DATA     BIT       TF0
      000000A8H.5 SFRSYM    DATA     BIT       ET2
      00000088H.7 SFRSYM    DATA     BIT       TF1
      000000C8H.7 SFRSYM    DATA     BIT       TF2
      00000098H.2 SFRSYM    DATA     BIT       RB8
      0000008CH   SFRSYM    DATA     BYTE      TH0
      000000A8H   SFRSYM    DATA     BIT       EX0
LX51 LINKER/LOCATER V4.66.66.0                                                        09/28/2018  16:54:19  PAGE 20


      00000088H   SFRSYM    DATA     BIT       IT0
      0000008DH   SFRSYM    DATA     BYTE      TH1
      00000098H.3 SFRSYM    DATA     BIT       TB8
      000000A8H.2 SFRSYM    DATA     BIT       EX1
      00000088H.2 SFRSYM    DATA     BIT       IT1
      000000CDH   SFRSYM    DATA     BYTE      TH2
      000000D0H   SFRSYM    DATA     BIT       P
      00000098H.7 SFRSYM    DATA     BIT       SM0
      0000008AH   SFRSYM    DATA     BYTE      TL0
      00000098H.6 SFRSYM    DATA     BIT       SM1
      0000008BH   SFRSYM    DATA     BYTE      TL1
      00000098H.5 SFRSYM    DATA     BIT       SM2
      000000CCH   SFRSYM    DATA     BYTE      TL2
      000000B8H.1 SFRSYM    DATA     BIT       PT0
      000000B8H.3 SFRSYM    DATA     BIT       PT1
      000000D0H.3 SFRSYM    DATA     BIT       RS0
      000000B8H.5 SFRSYM    DATA     BIT       PT2
      00000088H.4 SFRSYM    DATA     BIT       TR0
      000000D0H.4 SFRSYM    DATA     BIT       RS1
      00000088H.6 SFRSYM    DATA     BIT       TR1
      000000C8H.2 SFRSYM    DATA     BIT       TR2
      000000B8H   SFRSYM    DATA     BIT       PX0
      000000B8H.2 SFRSYM    DATA     BIT       PX1
      00000083H   SFRSYM    DATA     BYTE      DPH
      00000082H   SFRSYM    DATA     BYTE      DPL
      000000C8H.3 SFRSYM    DATA     BIT       EXEN2
      00000098H.4 SFRSYM    DATA     BIT       REN
      000000C8H   SFRSYM    DATA     BYTE      T2CON
      000000B0H   SFRSYM    DATA     BIT       RXD
      000000B0H.1 SFRSYM    DATA     BIT       TXD
      000000D0H.5 SFRSYM    DATA     BIT       F0
      000000D0H   SFRSYM    DATA     BYTE      PSW

      01000026H   BLOCK     CODE     ---       LVL=0
      01000026H   LINE      CODE     ---       #12
      01000026H   LINE      CODE     ---       #13
      01000026H   LINE      CODE     ---       #14
      01000029H   LINE      CODE     ---       #15
      0100002CH   LINE      CODE     ---       #16
      0100002FH   LINE      CODE     ---       #17
      01000032H   LINE      CODE     ---       #18
      01000035H   LINE      CODE     ---       #19
      01000038H   LINE      CODE     ---       #20
      0100003AH   LINE      CODE     ---       #21
      0100003CH   LINE      CODE     ---       #22
      0100003EH   LINE      CODE     ---       #23
      01000040H   LINE      CODE     ---       #24
      ---         BLOCKEND  ---      ---       LVL=0

      01001329H   BLOCK     CODE     ---       LVL=0
      01001329H   LINE      CODE     ---       #29
      01001336H   LINE      CODE     ---       #31
      01001339H   LINE      CODE     ---       #32
      01001339H   LINE      CODE     ---       #33
      0100133BH   LINE      CODE     ---       #34
      01001346H   LINE      CODE     ---       #35
      0100134FH   LINE      CODE     ---       #36
      0100134FH   LINE      CODE     ---       #37
      01001355H   LINE      CODE     ---       #38
      01001369H   LINE      CODE     ---       #39
      0100136BH   LINE      CODE     ---       #40
      01001371H   LINE      CODE     ---       #41
      01001376H   LINE      CODE     ---       #42
      01001376H   LINE      CODE     ---       #43
      01001376H   LINE      CODE     ---       #44
LX51 LINKER/LOCATER V4.66.66.0                                                        09/28/2018  16:54:19  PAGE 21


      01001379H   LINE      CODE     ---       #45
      01001379H   LINE      CODE     ---       #46
      0100137BH   LINE      CODE     ---       #47
      0100137DH   LINE      CODE     ---       #48
      0100137DH   LINE      CODE     ---       #49
      ---         BLOCKEND  ---      ---       LVL=0

      01000003H   BLOCK     CODE     ---       LVL=0
      00000007H   SYMBOL    DATA     CHAR      dat
      01000003H   LINE      CODE     ---       #55
      01000003H   LINE      CODE     ---       #56
      01000003H   LINE      CODE     ---       #57
      01000005H   LINE      CODE     ---       #58
      01000007H   LINE      CODE     ---       #59
      0100000AH   LINE      CODE     ---       #60
      ---         BLOCKEND  ---      ---       LVL=0

      0100165DH   BLOCK     CODE     ---       LVL=0
      020001CAH   SYMBOL    XDATA    ---       s
      0100165DH   LINE      CODE     ---       #65
      01001668H   LINE      CODE     ---       #66
      01001668H   LINE      CODE     ---       #67
      01001678H   LINE      CODE     ---       #68
      01001678H   LINE      CODE     ---       #69
      0100168DH   LINE      CODE     ---       #70
      0100168FH   LINE      CODE     ---       #71
      ---         BLOCKEND  ---      ---       LVL=0

      010016C3H   BLOCK     CODE     ---       LVL=0
      0200010DH   SYMBOL    XDATA    ---       buffer
      00000005H   SYMBOL    DATA     BYTE      datalen
      010016CEH   BLOCK     CODE     NEAR LAB  LVL=1
      00000006H   SYMBOL    DATA     BYTE      i
      ---         BLOCKEND  ---      ---       LVL=1
      010016C3H   LINE      CODE     ---       #73
      010016CEH   LINE      CODE     ---       #74
      010016CEH   LINE      CODE     ---       #76
      010016D5H   LINE      CODE     ---       #77
      010016EFH   LINE      CODE     ---       #78
      ---         BLOCKEND  ---      ---       LVL=0

      010017AEH   BLOCK     CODE     ---       LVL=0
      010017AEH   BLOCK     CODE     NEAR LAB  LVL=1
      00000006H   SYMBOL    DATA     INT       i
      ---         BLOCKEND  ---      ---       LVL=1
      010017AEH   LINE      CODE     ---       #80
      010017AEH   LINE      CODE     ---       #81
      010017AEH   LINE      CODE     ---       #83
      010017B1H   LINE      CODE     ---       #84
      010017B1H   LINE      CODE     ---       #85
      010017BDH   LINE      CODE     ---       #86
      010017C1H   LINE      CODE     ---       #87
      010017CCH   LINE      CODE     ---       #88
      ---         BLOCKEND  ---      ---       LVL=0

      ---         MODULE    ---      ---       UART2
      00000020H.1 PUBLIC    BIT      BIT       busy2
      02000106H   PUBLIC    XDATA    BYTE      uart2RxSta
      02000105H   PUBLIC    XDATA    BYTE      uart2RxCount
      02000086H   PUBLIC    XDATA    ---       UART2_RX_BUF
      02000085H   PUBLIC    XDATA    BYTE      flag_uart2_rx
      02000084H   PUBLIC    XDATA    BYTE      uart2RxTimeOut
      01001817H   PUBLIC    CODE     ---       clearBuf2
      010016F0H   PUBLIC    CODE     ---       _uart2SendData
      01001690H   PUBLIC    CODE     ---       _UART2_SendString
LX51 LINKER/LOCATER V4.66.66.0                                                        09/28/2018  16:54:19  PAGE 22


      010018ADH   PUBLIC    CODE     ---       _SendData
      010012C8H   PUBLIC    CODE     ---       Uart2
      010017FFH   PUBLIC    CODE     ---       Uart2Init
      00000080H   SFRSYM    DATA     BYTE      P0
      00000090H   SFRSYM    DATA     BYTE      P1
      000000A0H   SFRSYM    DATA     BYTE      P2
      000000B0H   SFRSYM    DATA     BYTE      P3
      000000B0H.4 SFRSYM    DATA     BIT       T0
      000000D0H.6 SFRSYM    DATA     BIT       AC
      000000B0H.5 SFRSYM    DATA     BIT       T1
      00000090H   SFRSYM    DATA     BIT       T2
      000000A8H.7 SFRSYM    DATA     BIT       EA
      000000A8H   SFRSYM    DATA     BYTE      IE
      000000C8H.6 SFRSYM    DATA     BIT       EXF2
      000000B0H.7 SFRSYM    DATA     BIT       RD
      000000A8H.4 SFRSYM    DATA     BIT       ES
      000000B8H   SFRSYM    DATA     BYTE      IP
      00000098H   SFRSYM    DATA     BIT       RI
      000000B0H.2 SFRSYM    DATA     BIT       INT0
      000000D0H.7 SFRSYM    DATA     BIT       CY
      00000098H.1 SFRSYM    DATA     BIT       TI
      000000B0H.3 SFRSYM    DATA     BIT       INT1
      000000CBH   SFRSYM    DATA     BYTE      RCAP2H
      000000B8H.4 SFRSYM    DATA     BIT       PS
      00000081H   SFRSYM    DATA     BYTE      SP
      00000090H.1 SFRSYM    DATA     BIT       T2EX
      000000D0H.2 SFRSYM    DATA     BIT       OV
      000000CAH   SFRSYM    DATA     BYTE      RCAP2L
      000000C8H.1 SFRSYM    DATA     BIT       C_T2
      000000B0H.6 SFRSYM    DATA     BIT       WR
      000000C8H.5 SFRSYM    DATA     BIT       RCLK
      000000C8H.4 SFRSYM    DATA     BIT       TCLK
      00000099H   SFRSYM    DATA     BYTE      SBUF
      00000087H   SFRSYM    DATA     BYTE      PCON
      00000098H   SFRSYM    DATA     BYTE      SCON
      00000089H   SFRSYM    DATA     BYTE      TMOD
      00000088H   SFRSYM    DATA     BYTE      TCON
      00000088H.1 SFRSYM    DATA     BIT       IE0
      00000088H.3 SFRSYM    DATA     BIT       IE1
      000000AFH   SFRSYM    DATA     BYTE      IE2
      0000008EH   SFRSYM    DATA     BYTE      AUXR
      000000F0H   SFRSYM    DATA     BYTE      B
      000000C8H   SFRSYM    DATA     BIT       CP_RL2
      000000E0H   SFRSYM    DATA     BYTE      ACC
      000000A8H.1 SFRSYM    DATA     BIT       ET0
      000000A8H.3 SFRSYM    DATA     BIT       ET1
      00000088H.5 SFRSYM    DATA     BIT       TF0
      000000A8H.5 SFRSYM    DATA     BIT       ET2
      00000088H.7 SFRSYM    DATA     BIT       TF1
      000000C8H.7 SFRSYM    DATA     BIT       TF2
      00000098H.2 SFRSYM    DATA     BIT       RB8
      0000008CH   SFRSYM    DATA     BYTE      TH0
      000000A8H   SFRSYM    DATA     BIT       EX0
      00000088H   SFRSYM    DATA     BIT       IT0
      0000008DH   SFRSYM    DATA     BYTE      TH1
      00000098H.3 SFRSYM    DATA     BIT       TB8
      000000A8H.2 SFRSYM    DATA     BIT       EX1
      00000088H.2 SFRSYM    DATA     BIT       IT1
      000000CDH   SFRSYM    DATA     BYTE      TH2
      000000D0H   SFRSYM    DATA     BIT       P
      00000098H.7 SFRSYM    DATA     BIT       SM0
      0000008AH   SFRSYM    DATA     BYTE      TL0
      00000098H.6 SFRSYM    DATA     BIT       SM1
      0000008BH   SFRSYM    DATA     BYTE      TL1
      00000098H.5 SFRSYM    DATA     BIT       SM2
LX51 LINKER/LOCATER V4.66.66.0                                                        09/28/2018  16:54:19  PAGE 23


      000000CCH   SFRSYM    DATA     BYTE      TL2
      000000B8H.1 SFRSYM    DATA     BIT       PT0
      000000B8H.3 SFRSYM    DATA     BIT       PT1
      000000D0H.3 SFRSYM    DATA     BIT       RS0
      000000B8H.5 SFRSYM    DATA     BIT       PT2
      00000088H.4 SFRSYM    DATA     BIT       TR0
      000000D0H.4 SFRSYM    DATA     BIT       RS1
      00000088H.6 SFRSYM    DATA     BIT       TR1
      000000C8H.2 SFRSYM    DATA     BIT       TR2
      000000B8H   SFRSYM    DATA     BIT       PX0
      000000B8H.2 SFRSYM    DATA     BIT       PX1
      00000083H   SFRSYM    DATA     BYTE      DPH
      00000082H   SFRSYM    DATA     BYTE      DPL
      0000009BH   SFRSYM    DATA     BYTE      S2BUF
      000000C8H.3 SFRSYM    DATA     BIT       EXEN2
      00000098H.4 SFRSYM    DATA     BIT       REN
      0000009AH   SFRSYM    DATA     BYTE      S2CON
      000000C8H   SFRSYM    DATA     BYTE      T2CON
      0000009CH   SFRSYM    DATA     BYTE      BRT
      000000B0H   SFRSYM    DATA     BIT       RXD
      000000B0H.1 SFRSYM    DATA     BIT       TXD
      000000A2H   SFRSYM    DATA     BYTE      AUXR1
      000000D0H.5 SFRSYM    DATA     BIT       F0
      000000D0H   SFRSYM    DATA     BYTE      PSW

      010017FFH   BLOCK     CODE     ---       LVL=0
      010017FFH   LINE      CODE     ---       #17
      010017FFH   LINE      CODE     ---       #18
      010017FFH   LINE      CODE     ---       #19
      01001802H   LINE      CODE     ---       #20
      0100180AH   LINE      CODE     ---       #21
      0100180DH   LINE      CODE     ---       #23
      01001810H   LINE      CODE     ---       #24
      01001813H   LINE      CODE     ---       #26
      01001816H   LINE      CODE     ---       #27
      ---         BLOCKEND  ---      ---       LVL=0

      010012C8H   BLOCK     CODE     ---       LVL=0
      010012C8H   LINE      CODE     ---       #32
      010012D3H   LINE      CODE     ---       #34
      010012D8H   LINE      CODE     ---       #35
      010012D8H   LINE      CODE     ---       #36
      010012DBH   LINE      CODE     ---       #37
      010012E6H   LINE      CODE     ---       #38
      010012EFH   LINE      CODE     ---       #39
      010012F5H   LINE      CODE     ---       #40
      01001309H   LINE      CODE     ---       #41
      0100130BH   LINE      CODE     ---       #42
      01001311H   LINE      CODE     ---       #43
      01001316H   LINE      CODE     ---       #44
      01001316H   LINE      CODE     ---       #45
      01001316H   LINE      CODE     ---       #46
      0100131BH   LINE      CODE     ---       #47
      0100131BH   LINE      CODE     ---       #48
      0100131EH   LINE      CODE     ---       #49
      01001320H   LINE      CODE     ---       #50
      01001320H   LINE      CODE     ---       #51
      ---         BLOCKEND  ---      ---       LVL=0

      010018ADH   BLOCK     CODE     ---       LVL=0
      00000007H   SYMBOL    DATA     BYTE      dat
      010018ADH   LINE      CODE     ---       #56
      010018ADH   LINE      CODE     ---       #57
      010018ADH   LINE      CODE     ---       #58
      010018AFH   LINE      CODE     ---       #59
LX51 LINKER/LOCATER V4.66.66.0                                                        09/28/2018  16:54:19  PAGE 24


      010018B1H   LINE      CODE     ---       #60
      010018B4H   LINE      CODE     ---       #61
      ---         BLOCKEND  ---      ---       LVL=0

      01001690H   BLOCK     CODE     ---       LVL=0
      020001CDH   SYMBOL    XDATA    ---       s
      01001690H   LINE      CODE     ---       #66
      0100169BH   LINE      CODE     ---       #67
      0100169BH   LINE      CODE     ---       #68
      010016ABH   LINE      CODE     ---       #69
      010016ABH   LINE      CODE     ---       #70
      010016C0H   LINE      CODE     ---       #71
      010016C2H   LINE      CODE     ---       #72
      ---         BLOCKEND  ---      ---       LVL=0

      010016F0H   BLOCK     CODE     ---       LVL=0
      020001D0H   SYMBOL    XDATA    ---       buffer
      00000005H   SYMBOL    DATA     BYTE      datalen
      010016FBH   BLOCK     CODE     NEAR LAB  LVL=1
      00000006H   SYMBOL    DATA     BYTE      i
      ---         BLOCKEND  ---      ---       LVL=1
      010016F0H   LINE      CODE     ---       #74
      010016FBH   LINE      CODE     ---       #75
      010016FBH   LINE      CODE     ---       #77
      01001702H   LINE      CODE     ---       #78
      0100171CH   LINE      CODE     ---       #79
      ---         BLOCKEND  ---      ---       LVL=0

      01001817H   BLOCK     CODE     ---       LVL=0
      01001817H   BLOCK     CODE     NEAR LAB  LVL=1
      00000007H   SYMBOL    DATA     BYTE      i
      ---         BLOCKEND  ---      ---       LVL=1
      01001817H   LINE      CODE     ---       #81
      01001817H   LINE      CODE     ---       #83
      01001819H   LINE      CODE     ---       #84
      01001825H   LINE      CODE     ---       #85
      01001829H   LINE      CODE     ---       #86
      0100182EH   LINE      CODE     ---       #87
      ---         BLOCKEND  ---      ---       LVL=0

      ---         MODULE    ---      ---       ADC
      020001D3H   PUBLIC    XDATA    BYTE      watl_value
      01000FA9H   PUBLIC    CODE     ---       _get_Light_value
      01000ED5H   PUBLIC    CODE     ---       _get_WTL_value
      010015EDH   PUBLIC    CODE     ---       _adc_getValue
      010018B5H   PUBLIC    CODE     ---       adc_Init
      00000080H   SFRSYM    DATA     BYTE      P0
      00000090H   SFRSYM    DATA     BYTE      P1
      000000A0H   SFRSYM    DATA     BYTE      P2
      000000B0H   SFRSYM    DATA     BYTE      P3
      000000B0H.4 SFRSYM    DATA     BIT       T0
      000000D0H.6 SFRSYM    DATA     BIT       AC
      000000B0H.5 SFRSYM    DATA     BIT       T1
      00000090H   SFRSYM    DATA     BIT       T2
      000000A8H.7 SFRSYM    DATA     BIT       EA
      000000A8H   SFRSYM    DATA     BYTE      IE
      000000BDH   SFRSYM    DATA     BYTE      ADC_RES
      000000C8H.6 SFRSYM    DATA     BIT       EXF2
      000000B0H.7 SFRSYM    DATA     BIT       RD
      000000A8H.4 SFRSYM    DATA     BIT       ES
      000000B8H   SFRSYM    DATA     BYTE      IP
      00000098H   SFRSYM    DATA     BIT       RI
      000000B0H.2 SFRSYM    DATA     BIT       INT0
      000000D0H.7 SFRSYM    DATA     BIT       CY
      00000098H.1 SFRSYM    DATA     BIT       TI
LX51 LINKER/LOCATER V4.66.66.0                                                        09/28/2018  16:54:19  PAGE 25


      000000B0H.3 SFRSYM    DATA     BIT       INT1
      000000CBH   SFRSYM    DATA     BYTE      RCAP2H
      000000B8H.4 SFRSYM    DATA     BIT       PS
      00000081H   SFRSYM    DATA     BYTE      SP
      00000090H.1 SFRSYM    DATA     BIT       T2EX
      000000D0H.2 SFRSYM    DATA     BIT       OV
      000000CAH   SFRSYM    DATA     BYTE      RCAP2L
      000000C8H.1 SFRSYM    DATA     BIT       C_T2
      000000B0H.6 SFRSYM    DATA     BIT       WR
      000000C8H.5 SFRSYM    DATA     BIT       RCLK
      000000C8H.4 SFRSYM    DATA     BIT       TCLK
      000000BCH   SFRSYM    DATA     BYTE      ADC_CONTR
      00000099H   SFRSYM    DATA     BYTE      SBUF
      00000087H   SFRSYM    DATA     BYTE      PCON
      00000098H   SFRSYM    DATA     BYTE      SCON
      00000089H   SFRSYM    DATA     BYTE      TMOD
      00000088H   SFRSYM    DATA     BYTE      TCON
      00000088H.1 SFRSYM    DATA     BIT       IE0
      00000088H.3 SFRSYM    DATA     BIT       IE1
      000000F0H   SFRSYM    DATA     BYTE      B
      000000C8H   SFRSYM    DATA     BIT       CP_RL2
      000000E0H   SFRSYM    DATA     BYTE      ACC
      000000A8H.1 SFRSYM    DATA     BIT       ET0
      000000A8H.3 SFRSYM    DATA     BIT       ET1
      00000088H.5 SFRSYM    DATA     BIT       TF0
      000000A8H.5 SFRSYM    DATA     BIT       ET2
      00000088H.7 SFRSYM    DATA     BIT       TF1
      000000C8H.7 SFRSYM    DATA     BIT       TF2
      00000098H.2 SFRSYM    DATA     BIT       RB8
      0000008CH   SFRSYM    DATA     BYTE      TH0
      000000A8H   SFRSYM    DATA     BIT       EX0
      00000088H   SFRSYM    DATA     BIT       IT0
      0000008DH   SFRSYM    DATA     BYTE      TH1
      00000098H.3 SFRSYM    DATA     BIT       TB8
      000000A8H.2 SFRSYM    DATA     BIT       EX1
      00000088H.2 SFRSYM    DATA     BIT       IT1
      000000CDH   SFRSYM    DATA     BYTE      TH2
      000000D0H   SFRSYM    DATA     BIT       P
      00000098H.7 SFRSYM    DATA     BIT       SM0
      0000008AH   SFRSYM    DATA     BYTE      TL0
      00000098H.6 SFRSYM    DATA     BIT       SM1
      0000008BH   SFRSYM    DATA     BYTE      TL1
      00000098H.5 SFRSYM    DATA     BIT       SM2
      000000CCH   SFRSYM    DATA     BYTE      TL2
      000000B8H.1 SFRSYM    DATA     BIT       PT0
      000000B8H.3 SFRSYM    DATA     BIT       PT1
      000000D0H.3 SFRSYM    DATA     BIT       RS0
      000000B8H.5 SFRSYM    DATA     BIT       PT2
      00000088H.4 SFRSYM    DATA     BIT       TR0
      000000D0H.4 SFRSYM    DATA     BIT       RS1
      00000088H.6 SFRSYM    DATA     BIT       TR1
      000000C8H.2 SFRSYM    DATA     BIT       TR2
      000000B8H   SFRSYM    DATA     BIT       PX0
      000000B8H.2 SFRSYM    DATA     BIT       PX1
      0000009DH   SFRSYM    DATA     BYTE      P1ASF
      00000083H   SFRSYM    DATA     BYTE      DPH
      000000BEH   SFRSYM    DATA     BYTE      ADC_RESL
      00000082H   SFRSYM    DATA     BYTE      DPL
      000000C8H.3 SFRSYM    DATA     BIT       EXEN2
      00000098H.4 SFRSYM    DATA     BIT       REN
      000000C8H   SFRSYM    DATA     BYTE      T2CON
      000000B0H   SFRSYM    DATA     BIT       RXD
      000000B0H.1 SFRSYM    DATA     BIT       TXD
      000000D0H.5 SFRSYM    DATA     BIT       F0
      000000D0H   SFRSYM    DATA     BYTE      PSW
LX51 LINKER/LOCATER V4.66.66.0                                                        09/28/2018  16:54:19  PAGE 26



      010018B5H   BLOCK     CODE     ---       LVL=0
      010018B5H   LINE      CODE     ---       #5
      010018B5H   LINE      CODE     ---       #6
      010018B5H   LINE      CODE     ---       #7
      010018B8H   LINE      CODE     ---       #8
      010018BBH   LINE      CODE     ---       #9
      ---         BLOCKEND  ---      ---       LVL=0

      010015EDH   BLOCK     CODE     ---       LVL=0
      00000007H   SYMBOL    DATA     BYTE      channel
      010015EDH   BLOCK     CODE     NEAR LAB  LVL=1
      00000004H   SYMBOL    DATA     WORD      adc
      00000006H   SYMBOL    DATA     BYTE      i
      ---         BLOCKEND  ---      ---       LVL=1
      010015EDH   LINE      CODE     ---       #11
      010015EDH   LINE      CODE     ---       #12
      010015EDH   LINE      CODE     ---       #14
      010015EFH   LINE      CODE     ---       #16
      010015F2H   LINE      CODE     ---       #17
      010015F4H   LINE      CODE     ---       #19
      010015FDH   LINE      CODE     ---       #20
      010015FDH   LINE      CODE     ---       #21
      01001602H   LINE      CODE     ---       #22
      01001602H   LINE      CODE     ---       #23
      01001605H   LINE      CODE     ---       #24
      0100160BH   LINE      CODE     ---       #25
      0100161EH   LINE      CODE     ---       #26
      01001620H   LINE      CODE     ---       #27
      01001620H   LINE      CODE     ---       #28
      01001622H   LINE      CODE     ---       #29
      01001626H   LINE      CODE     ---       #30
      ---         BLOCKEND  ---      ---       LVL=0

      01000ED5H   BLOCK     CODE     ---       LVL=0
      0200010DH   SYMBOL    XDATA    ---       str
      01000EE0H   BLOCK     CODE     NEAR LAB  LVL=1
      02000110H   SYMBOL    XDATA    WORD      value
      ---         BLOCKEND  ---      ---       LVL=1
      01000ED5H   LINE      CODE     ---       #33
      01000EE0H   LINE      CODE     ---       #34
      01000EE0H   LINE      CODE     ---       #35
      01000EE5H   LINE      CODE     ---       #36
      01000EF1H   LINE      CODE     ---       #38
      01000F13H   LINE      CODE     ---       #39
      01000F45H   LINE      CODE     ---       #40
      01000F77H   LINE      CODE     ---       #41
      01000F9CH   LINE      CODE     ---       #42
      01000FA3H   LINE      CODE     ---       #43
      01000FA8H   LINE      CODE     ---       #44
      ---         BLOCKEND  ---      ---       LVL=0

      01000FA9H   BLOCK     CODE     ---       LVL=0
      020001C4H   SYMBOL    XDATA    ---       str
      01000FB4H   BLOCK     CODE     NEAR LAB  LVL=1
      020001C7H   SYMBOL    XDATA    BYTE      phvalue
      020001C8H   SYMBOL    XDATA    WORD      value
      ---         BLOCKEND  ---      ---       LVL=1
      01000FA9H   LINE      CODE     ---       #46
      01000FB4H   LINE      CODE     ---       #47
      01000FB4H   LINE      CODE     ---       #50
      01000FC1H   LINE      CODE     ---       #52
      01000FE3H   LINE      CODE     ---       #53
      01001015H   LINE      CODE     ---       #54
      01001047H   LINE      CODE     ---       #55
LX51 LINKER/LOCATER V4.66.66.0                                                        09/28/2018  16:54:19  PAGE 27


      0100106CH   LINE      CODE     ---       #56
      01001073H   LINE      CODE     ---       #60
      01001078H   LINE      CODE     ---       #61
      ---         BLOCKEND  ---      ---       LVL=0

      ---         MODULE    ---      ---       MAIN
      0100111FH   PUBLIC    CODE     ---       display_background
      0100186FH   PUBLIC    CODE     ---       bsp_init
      01001079H   PUBLIC    CODE     ---       main
      00000080H   SFRSYM    DATA     BYTE      P0
      00000090H   SFRSYM    DATA     BYTE      P1
      000000A0H   SFRSYM    DATA     BYTE      P2
      000000B0H   SFRSYM    DATA     BYTE      P3
      000000B0H.4 SFRSYM    DATA     BIT       T0
      000000D0H.6 SFRSYM    DATA     BIT       AC
      000000B0H.5 SFRSYM    DATA     BIT       T1
      00000090H   SFRSYM    DATA     BIT       T2
      000000A8H.7 SFRSYM    DATA     BIT       EA
      000000A8H   SFRSYM    DATA     BYTE      IE
      000000BDH   SFRSYM    DATA     BYTE      ADC_RES
      000000C8H.6 SFRSYM    DATA     BIT       EXF2
      000000B0H.7 SFRSYM    DATA     BIT       RD
      000000A8H.4 SFRSYM    DATA     BIT       ES
      000000B8H   SFRSYM    DATA     BYTE      IP
      00000098H   SFRSYM    DATA     BIT       RI
      000000B0H.2 SFRSYM    DATA     BIT       INT0
      000000D0H.7 SFRSYM    DATA     BIT       CY
      00000098H.1 SFRSYM    DATA     BIT       TI
      000000B0H.3 SFRSYM    DATA     BIT       INT1
      000000CBH   SFRSYM    DATA     BYTE      RCAP2H
      000000B8H.4 SFRSYM    DATA     BIT       PS
      00000081H   SFRSYM    DATA     BYTE      SP
      00000080H.2 SFRSYM    DATA     BIT       IO_LAMP
      00000090H.1 SFRSYM    DATA     BIT       T2EX
      000000D0H.2 SFRSYM    DATA     BIT       OV
      000000A0H.1 SFRSYM    DATA     BIT       reset
      000000CAH   SFRSYM    DATA     BYTE      RCAP2L
      000000C8H.1 SFRSYM    DATA     BIT       C_T2
      000000B0H.6 SFRSYM    DATA     BIT       WR
      000000C8H.5 SFRSYM    DATA     BIT       RCLK
      000000C8H.4 SFRSYM    DATA     BIT       TCLK
      000000BCH   SFRSYM    DATA     BYTE      ADC_CONTR
      00000099H   SFRSYM    DATA     BYTE      SBUF
      00000087H   SFRSYM    DATA     BYTE      PCON
      00000098H   SFRSYM    DATA     BYTE      SCON
      00000089H   SFRSYM    DATA     BYTE      TMOD
      00000088H   SFRSYM    DATA     BYTE      TCON
      000000A0H.3 SFRSYM    DATA     BIT       sda
      00000080H.1 SFRSYM    DATA     BIT       IO_PUMP
      00000088H.1 SFRSYM    DATA     BIT       IE0
      00000088H.3 SFRSYM    DATA     BIT       IE1
      000000F0H   SFRSYM    DATA     BYTE      B
      000000A0H.5 SFRSYM    DATA     BIT       scl
      000000C8H   SFRSYM    DATA     BIT       CP_RL2
      000000E0H   SFRSYM    DATA     BYTE      ACC
      000000A8H.1 SFRSYM    DATA     BIT       ET0
      000000A8H.3 SFRSYM    DATA     BIT       ET1
      00000088H.5 SFRSYM    DATA     BIT       TF0
      000000A8H.5 SFRSYM    DATA     BIT       ET2
      00000088H.7 SFRSYM    DATA     BIT       TF1
      000000C8H.7 SFRSYM    DATA     BIT       TF2
      00000098H.2 SFRSYM    DATA     BIT       RB8
      0000008CH   SFRSYM    DATA     BYTE      TH0
      000000A8H   SFRSYM    DATA     BIT       EX0
      00000088H   SFRSYM    DATA     BIT       IT0
LX51 LINKER/LOCATER V4.66.66.0                                                        09/28/2018  16:54:19  PAGE 28


      0000008DH   SFRSYM    DATA     BYTE      TH1
      000000A0H.4 SFRSYM    DATA     BIT       bl
      00000098H.3 SFRSYM    DATA     BIT       TB8
      000000A8H.2 SFRSYM    DATA     BIT       EX1
      00000088H.2 SFRSYM    DATA     BIT       IT1
      000000CDH   SFRSYM    DATA     BYTE      TH2
      000000D0H   SFRSYM    DATA     BIT       P
      00000098H.7 SFRSYM    DATA     BIT       SM0
      0000008AH   SFRSYM    DATA     BYTE      TL0
      00000098H.6 SFRSYM    DATA     BIT       SM1
      0000008BH   SFRSYM    DATA     BYTE      TL1
      00000098H.5 SFRSYM    DATA     BIT       SM2
      000000CCH   SFRSYM    DATA     BYTE      TL2
      000000B8H.1 SFRSYM    DATA     BIT       PT0
      000000B8H.3 SFRSYM    DATA     BIT       PT1
      000000D0H.3 SFRSYM    DATA     BIT       RS0
      000000A0H   SFRSYM    DATA     BIT       cs
      000000B8H.5 SFRSYM    DATA     BIT       PT2
      00000088H.4 SFRSYM    DATA     BIT       TR0
      000000D0H.4 SFRSYM    DATA     BIT       RS1
      00000088H.6 SFRSYM    DATA     BIT       TR1
      000000C8H.2 SFRSYM    DATA     BIT       TR2
      000000B8H   SFRSYM    DATA     BIT       PX0
      000000B8H.2 SFRSYM    DATA     BIT       PX1
      0000009DH   SFRSYM    DATA     BYTE      P1ASF
      00000083H   SFRSYM    DATA     BYTE      DPH
      000000BEH   SFRSYM    DATA     BYTE      ADC_RESL
      00000082H   SFRSYM    DATA     BYTE      DPL
      000000C8H.3 SFRSYM    DATA     BIT       EXEN2
      000000A0H.2 SFRSYM    DATA     BIT       rs
      00000098H.4 SFRSYM    DATA     BIT       REN
      000000C8H   SFRSYM    DATA     BYTE      T2CON
      000000B0H   SFRSYM    DATA     BIT       RXD
      000000B0H.1 SFRSYM    DATA     BIT       TXD
      000000D0H.5 SFRSYM    DATA     BIT       F0
      000000D0H   SFRSYM    DATA     BYTE      PSW

      01001079H   BLOCK     CODE     ---       LVL=0
      01001079H   LINE      CODE     ---       #15
      01001079H   LINE      CODE     ---       #16
      01001079H   LINE      CODE     ---       #17
      0100107CH   LINE      CODE     ---       #18
      0100107CH   LINE      CODE     ---       #19
      0100107CH   LINE      CODE     ---       #20
      01001082H   LINE      CODE     ---       #21
      01001082H   LINE      CODE     ---       #22
      01001085H   LINE      CODE     ---       #23
      0100108AH   LINE      CODE     ---       #24
      0100108AH   LINE      CODE     ---       #25
      01001090H   LINE      CODE     ---       #26
      01001090H   LINE      CODE     ---       #27
      01001093H   LINE      CODE     ---       #28
      01001098H   LINE      CODE     ---       #29
      01001098H   LINE      CODE     ---       #30
      0100109EH   LINE      CODE     ---       #31
      0100109EH   LINE      CODE     ---       #32
      010010A1H   LINE      CODE     ---       #33
      010010A6H   LINE      CODE     ---       #34
      010010A6H   LINE      CODE     ---       #35
      010010ACH   LINE      CODE     ---       #36
      010010ACH   LINE      CODE     ---       #37
      010010AFH   LINE      CODE     ---       #38
      010010B4H   LINE      CODE     ---       #39
      010010B4H   LINE      CODE     ---       #41
      010010BAH   LINE      CODE     ---       #42
LX51 LINKER/LOCATER V4.66.66.0                                                        09/28/2018  16:54:19  PAGE 29


      010010BAH   LINE      CODE     ---       #43
      010010C0H   LINE      CODE     ---       #44
      010010C0H   LINE      CODE     ---       #45
      010010C9H   LINE      CODE     ---       #46
      010010CEH   LINE      CODE     ---       #47
      010010D2H   LINE      CODE     ---       #48
      010010D2H   LINE      CODE     ---       #49
      010010E3H   LINE      CODE     ---       #50
      010010E5H   LINE      CODE     ---       #52
      010010FCH   LINE      CODE     ---       #53
      010010FEH   LINE      CODE     ---       #54
      01001101H   LINE      CODE     ---       #55
      01001101H   LINE      CODE     ---       #56
      0100110AH   LINE      CODE     ---       #57
      0100110AH   LINE      CODE     ---       #59
      01001113H   LINE      CODE     ---       #60
      01001118H   LINE      CODE     ---       #61
      0100111CH   LINE      CODE     ---       #62
      0100111CH   LINE      CODE     ---       #63
      0100111CH   LINE      CODE     ---       #64
      ---         BLOCKEND  ---      ---       LVL=0

      0100186FH   BLOCK     CODE     ---       LVL=0
      0100186FH   LINE      CODE     ---       #67
      0100186FH   LINE      CODE     ---       #68
      0100186FH   LINE      CODE     ---       #69
      01001872H   LINE      CODE     ---       #70
      01001875H   LINE      CODE     ---       #71
      01001878H   LINE      CODE     ---       #72
      0100187BH   LINE      CODE     ---       #73
      0100187EH   LINE      CODE     ---       #74
      ---         BLOCKEND  ---      ---       LVL=0

      0100111FH   BLOCK     CODE     ---       LVL=0
      0100111FH   LINE      CODE     ---       #76
      0100111FH   LINE      CODE     ---       #77
      0100111FH   LINE      CODE     ---       #78
      01001126H   LINE      CODE     ---       #79
      01001147H   LINE      CODE     ---       #80
      01001165H   LINE      CODE     ---       #81
      01001183H   LINE      CODE     ---       #82
      010011A1H   LINE      CODE     ---       #83
      ---         BLOCKEND  ---      ---       LVL=0

      ---         MODULE    ---      ---       TFT_LCD
      01001ADCH   PUBLIC    CONST    ---       Zk_ASCII8X16
      010018BCH   PUBLIC    CONST    ---       hz16
      0200019DH   PUBLIC    XDATA    BYTE      ?_Gui_DrawFont_GBK16?BYTE
      010002EEH   PUBLIC    CODE     ---       _Gui_DrawFont_GBK16
      02000107H   PUBLIC    XDATA    BYTE      ?_Fast_DrawFont_GBK16?BYTE
      01000AA7H   PUBLIC    CODE     ---       _Fast_DrawFont_GBK16
      0100090FH   PUBLIC    CODE     ---       _Display_ASCII8X16
      0200010DH   PUBLIC    XDATA    BYTE      ?_Display_ASCII8X16_Color?BYTE
      01000576H   PUBLIC    CODE     ---       _Display_ASCII8X16_Color
      01001627H   PUBLIC    CODE     ---       _dsp_single_colour
      0100143EH   PUBLIC    CODE     ---       _PutPixel
      0200014CH   PUBLIC    XDATA    BYTE      ?_Lcd_SetRegion?BYTE
      01001570H   PUBLIC    CODE     ---       _Lcd_SetRegion
      0100075EH   PUBLIC    CODE     ---       lcd_initial
      01001881H   PUBLIC    CODE     ---       Lcd_Reset
      010017CDH   PUBLIC    CODE     ---       _LCD_WriteData_16Bit
      0100184DH   PUBLIC    CODE     ---       _Lcd_WriteData
      0100189AH   PUBLIC    CODE     ---       _Lcd_WriteIndex
      0100182FH   PUBLIC    CODE     ---       _SPI_WriteData
      0100176EH   PUBLIC    CODE     ---       _lcd_delay_ms
LX51 LINKER/LOCATER V4.66.66.0                                                        09/28/2018  16:54:19  PAGE 30


      00000080H   SFRSYM    DATA     BYTE      P0
      00000090H   SFRSYM    DATA     BYTE      P1
      000000A0H   SFRSYM    DATA     BYTE      P2
      000000B0H   SFRSYM    DATA     BYTE      P3
      000000B0H.4 SFRSYM    DATA     BIT       T0
      000000D0H.6 SFRSYM    DATA     BIT       AC
      000000B0H.5 SFRSYM    DATA     BIT       T1
      00000090H   SFRSYM    DATA     BIT       T2
      000000A8H.7 SFRSYM    DATA     BIT       EA
      000000A8H   SFRSYM    DATA     BYTE      IE
      000000C8H.6 SFRSYM    DATA     BIT       EXF2
      000000B0H.7 SFRSYM    DATA     BIT       RD
      000000A8H.4 SFRSYM    DATA     BIT       ES
      000000B8H   SFRSYM    DATA     BYTE      IP
      00000098H   SFRSYM    DATA     BIT       RI
      000000B0H.2 SFRSYM    DATA     BIT       INT0
      000000D0H.7 SFRSYM    DATA     BIT       CY
      00000098H.1 SFRSYM    DATA     BIT       TI
      000000B0H.3 SFRSYM    DATA     BIT       INT1
      000000CBH   SFRSYM    DATA     BYTE      RCAP2H
      000000B8H.4 SFRSYM    DATA     BIT       PS
      00000081H   SFRSYM    DATA     BYTE      SP
      00000090H.1 SFRSYM    DATA     BIT       T2EX
      000000D0H.2 SFRSYM    DATA     BIT       OV
      000000A0H.1 SFRSYM    DATA     BIT       reset
      000000CAH   SFRSYM    DATA     BYTE      RCAP2L
      000000C8H.1 SFRSYM    DATA     BIT       C_T2
      000000B0H.6 SFRSYM    DATA     BIT       WR
      000000C8H.5 SFRSYM    DATA     BIT       RCLK
      000000C8H.4 SFRSYM    DATA     BIT       TCLK
      00000099H   SFRSYM    DATA     BYTE      SBUF
      00000087H   SFRSYM    DATA     BYTE      PCON
      00000098H   SFRSYM    DATA     BYTE      SCON
      00000089H   SFRSYM    DATA     BYTE      TMOD
      00000088H   SFRSYM    DATA     BYTE      TCON
      000000A0H.3 SFRSYM    DATA     BIT       sda
      00000088H.1 SFRSYM    DATA     BIT       IE0
      00000088H.3 SFRSYM    DATA     BIT       IE1
      000000F0H   SFRSYM    DATA     BYTE      B
      000000A0H.5 SFRSYM    DATA     BIT       scl
      000000C8H   SFRSYM    DATA     BIT       CP_RL2
      000000E0H   SFRSYM    DATA     BYTE      ACC
      000000A8H.1 SFRSYM    DATA     BIT       ET0
      000000A8H.3 SFRSYM    DATA     BIT       ET1
      00000088H.5 SFRSYM    DATA     BIT       TF0
      000000A8H.5 SFRSYM    DATA     BIT       ET2
      00000088H.7 SFRSYM    DATA     BIT       TF1
      000000C8H.7 SFRSYM    DATA     BIT       TF2
      00000098H.2 SFRSYM    DATA     BIT       RB8
      0000008CH   SFRSYM    DATA     BYTE      TH0
      000000A8H   SFRSYM    DATA     BIT       EX0
      00000088H   SFRSYM    DATA     BIT       IT0
      0000008DH   SFRSYM    DATA     BYTE      TH1
      000000A0H.4 SFRSYM    DATA     BIT       bl
      00000098H.3 SFRSYM    DATA     BIT       TB8
      000000A8H.2 SFRSYM    DATA     BIT       EX1
      00000088H.2 SFRSYM    DATA     BIT       IT1
      000000CDH   SFRSYM    DATA     BYTE      TH2
      000000D0H   SFRSYM    DATA     BIT       P
      00000098H.7 SFRSYM    DATA     BIT       SM0
      0000008AH   SFRSYM    DATA     BYTE      TL0
      00000098H.6 SFRSYM    DATA     BIT       SM1
      0000008BH   SFRSYM    DATA     BYTE      TL1
      00000098H.5 SFRSYM    DATA     BIT       SM2
      000000CCH   SFRSYM    DATA     BYTE      TL2
LX51 LINKER/LOCATER V4.66.66.0                                                        09/28/2018  16:54:19  PAGE 31


      000000B8H.1 SFRSYM    DATA     BIT       PT0
      000000B8H.3 SFRSYM    DATA     BIT       PT1
      000000D0H.3 SFRSYM    DATA     BIT       RS0
      000000A0H   SFRSYM    DATA     BIT       cs
      000000B8H.5 SFRSYM    DATA     BIT       PT2
      00000088H.4 SFRSYM    DATA     BIT       TR0
      000000D0H.4 SFRSYM    DATA     BIT       RS1
      00000088H.6 SFRSYM    DATA     BIT       TR1
      000000C8H.2 SFRSYM    DATA     BIT       TR2
      000000B8H   SFRSYM    DATA     BIT       PX0
      000000B8H.2 SFRSYM    DATA     BIT       PX1
      00000083H   SFRSYM    DATA     BYTE      DPH
      00000082H   SFRSYM    DATA     BYTE      DPL
      000000C8H.3 SFRSYM    DATA     BIT       EXEN2
      000000A0H.2 SFRSYM    DATA     BIT       rs
      00000098H.4 SFRSYM    DATA     BIT       REN
      000000C8H   SFRSYM    DATA     BYTE      T2CON
      000000B0H   SFRSYM    DATA     BIT       RXD
      000000B0H.1 SFRSYM    DATA     BIT       TXD
      000000D0H.5 SFRSYM    DATA     BIT       F0
      000000D0H   SFRSYM    DATA     BYTE      PSW

      0100176EH   BLOCK     CODE     ---       LVL=0
      00000006H   SYMBOL    DATA     WORD      time
      0100176EH   BLOCK     CODE     NEAR LAB  LVL=1
      00000004H   SYMBOL    DATA     WORD      i
      00000002H   SYMBOL    DATA     WORD      j
      ---         BLOCKEND  ---      ---       LVL=1
      0100176EH   LINE      CODE     ---       #362
      0100176EH   LINE      CODE     ---       #363
      0100176EH   LINE      CODE     ---       #365
      01001778H   LINE      CODE     ---       #366
      0100178DH   LINE      CODE     ---       #367
      ---         BLOCKEND  ---      ---       LVL=0

      0100182FH   BLOCK     CODE     ---       LVL=0
      00000007H   SYMBOL    DATA     BYTE      Data
      0100182FH   BLOCK     CODE     NEAR LAB  LVL=1
      00000006H   SYMBOL    DATA     BYTE      i
      ---         BLOCKEND  ---      ---       LVL=1
      0100182FH   LINE      CODE     ---       #371
      0100182FH   LINE      CODE     ---       #372
      0100182FH   LINE      CODE     ---       #373
      0100182FH   LINE      CODE     ---       #374
      01001831H   LINE      CODE     ---       #375
      01001831H   LINE      CODE     ---       #376
      01001835H   LINE      CODE     ---       #377
      01001839H   LINE      CODE     ---       #378
      0100183BH   LINE      CODE     ---       #379
      0100183DH   LINE      CODE     ---       #380
      0100183FH   LINE      CODE     ---       #381
      01001843H   LINE      CODE     ---       #382
      01001845H   LINE      CODE     ---       #383
      ---         BLOCKEND  ---      ---       LVL=0

      0100189AH   BLOCK     CODE     ---       LVL=0
      00000007H   SYMBOL    DATA     BYTE      Data
      0100189AH   LINE      CODE     ---       #385
      0100189AH   LINE      CODE     ---       #386
      0100189AH   LINE      CODE     ---       #388
      0100189CH   LINE      CODE     ---       #389
      0100189EH   LINE      CODE     ---       #390
      010018A1H   LINE      CODE     ---       #391
      010018A3H   LINE      CODE     ---       #392
      ---         BLOCKEND  ---      ---       LVL=0
LX51 LINKER/LOCATER V4.66.66.0                                                        09/28/2018  16:54:19  PAGE 32



      01001846H   BLOCK     CODE     ---       LVL=0
      ---         BLOCKEND  ---      ---       LVL=0

      0100184DH   BLOCK     CODE     ---       LVL=0
      00000007H   SYMBOL    DATA     BYTE      Data
      02000154H   SYMBOL    XDATA    BYTE      i
      0100184DH   BLOCK     CODE     NEAR LAB  LVL=1
      02000154H   SYMBOL    XDATA    BYTE      i
      ---         BLOCKEND  ---      ---       LVL=1
      0100184DH   LINE      CODE     ---       #394
      0100184DH   LINE      CODE     ---       #395
      0100184DH   LINE      CODE     ---       #396
      01001852H   LINE      CODE     ---       #397
      01001854H   LINE      CODE     ---       #398
      01001856H   LINE      CODE     ---       #399
      01001859H   LINE      CODE     ---       #400
      0100185BH   LINE      CODE     ---       #401
      ---         BLOCKEND  ---      ---       LVL=0

      010017CDH   BLOCK     CODE     ---       LVL=0
      00000004H   SYMBOL    DATA     WORD      Data
      010017D1H   BLOCK     CODE     NEAR LAB  LVL=1
      0200014CH   SYMBOL    XDATA    BYTE      i
      ---         BLOCKEND  ---      ---       LVL=1
      010017CDH   LINE      CODE     ---       #403
      010017D1H   LINE      CODE     ---       #404
      010017D1H   LINE      CODE     ---       #405
      010017D6H   LINE      CODE     ---       #406
      010017D8H   LINE      CODE     ---       #407
      010017DAH   LINE      CODE     ---       #408
      010017DFH   LINE      CODE     ---       #409
      010017E4H   LINE      CODE     ---       #410
      010017E6H   LINE      CODE     ---       #412
      ---         BLOCKEND  ---      ---       LVL=0

      01001881H   BLOCK     CODE     ---       LVL=0
      01001881H   LINE      CODE     ---       #414
      01001881H   LINE      CODE     ---       #415
      01001881H   LINE      CODE     ---       #416
      01001883H   LINE      CODE     ---       #417
      0100188AH   LINE      CODE     ---       #418
      0100188CH   LINE      CODE     ---       #419
      ---         BLOCKEND  ---      ---       LVL=0

      0100075EH   BLOCK     CODE     ---       LVL=0
      0100075EH   LINE      CODE     ---       #423
      0100075EH   LINE      CODE     ---       #424
      0100075EH   LINE      CODE     ---       #425
      01000761H   LINE      CODE     ---       #428
      01000766H   LINE      CODE     ---       #429
      0100076DH   LINE      CODE     ---       #432
      01000772H   LINE      CODE     ---       #433
      01000777H   LINE      CODE     ---       #434
      0100077CH   LINE      CODE     ---       #435
      01000781H   LINE      CODE     ---       #437
      01000786H   LINE      CODE     ---       #438
      0100078BH   LINE      CODE     ---       #439
      01000790H   LINE      CODE     ---       #440
      01000795H   LINE      CODE     ---       #442
      0100079AH   LINE      CODE     ---       #443
      0100079FH   LINE      CODE     ---       #444
      010007A4H   LINE      CODE     ---       #445
      010007A9H   LINE      CODE     ---       #446
      010007AEH   LINE      CODE     ---       #447
LX51 LINKER/LOCATER V4.66.66.0                                                        09/28/2018  16:54:19  PAGE 33


      010007B3H   LINE      CODE     ---       #448
      010007B8H   LINE      CODE     ---       #450
      010007BDH   LINE      CODE     ---       #451
      010007C2H   LINE      CODE     ---       #454
      010007C7H   LINE      CODE     ---       #455
      010007CCH   LINE      CODE     ---       #456
      010007D1H   LINE      CODE     ---       #457
      010007D6H   LINE      CODE     ---       #458
      010007DBH   LINE      CODE     ---       #459
      010007E0H   LINE      CODE     ---       #461
      010007E5H   LINE      CODE     ---       #462
      010007EAH   LINE      CODE     ---       #463
      010007EFH   LINE      CODE     ---       #465
      010007F4H   LINE      CODE     ---       #466
      010007F9H   LINE      CODE     ---       #467
      010007FEH   LINE      CODE     ---       #468
      01000803H   LINE      CODE     ---       #469
      01000808H   LINE      CODE     ---       #470
      0100080DH   LINE      CODE     ---       #472
      01000812H   LINE      CODE     ---       #473
      01000817H   LINE      CODE     ---       #475
      0100081CH   LINE      CODE     ---       #479
      01000821H   LINE      CODE     ---       #482
      01000826H   LINE      CODE     ---       #483
      0100082BH   LINE      CODE     ---       #484
      01000830H   LINE      CODE     ---       #485
      01000835H   LINE      CODE     ---       #486
      0100083AH   LINE      CODE     ---       #487
      0100083FH   LINE      CODE     ---       #488
      01000844H   LINE      CODE     ---       #489
      01000849H   LINE      CODE     ---       #490
      0100084EH   LINE      CODE     ---       #491
      01000853H   LINE      CODE     ---       #492
      01000858H   LINE      CODE     ---       #493
      0100085DH   LINE      CODE     ---       #494
      01000862H   LINE      CODE     ---       #495
      01000867H   LINE      CODE     ---       #496
      0100086CH   LINE      CODE     ---       #497
      01000871H   LINE      CODE     ---       #498
      01000876H   LINE      CODE     ---       #500
      0100087BH   LINE      CODE     ---       #501
      01000880H   LINE      CODE     ---       #502
      01000885H   LINE      CODE     ---       #503
      0100088AH   LINE      CODE     ---       #504
      0100088FH   LINE      CODE     ---       #505
      01000894H   LINE      CODE     ---       #506
      01000899H   LINE      CODE     ---       #507
      0100089EH   LINE      CODE     ---       #508
      010008A3H   LINE      CODE     ---       #509
      010008A8H   LINE      CODE     ---       #510
      010008ADH   LINE      CODE     ---       #511
      010008B2H   LINE      CODE     ---       #512
      010008B7H   LINE      CODE     ---       #513
      010008BCH   LINE      CODE     ---       #514
      010008C1H   LINE      CODE     ---       #515
      010008C6H   LINE      CODE     ---       #516
      010008CBH   LINE      CODE     ---       #518
      010008CBH   LINE      CODE     ---       #519
      010008CEH   LINE      CODE     ---       #520
      010008D3H   LINE      CODE     ---       #521
      010008D8H   LINE      CODE     ---       #522
      010008DDH   LINE      CODE     ---       #524
      010008DFH   LINE      CODE     ---       #525
      010008E2H   LINE      CODE     ---       #526
      010008E7H   LINE      CODE     ---       #527
LX51 LINKER/LOCATER V4.66.66.0                                                        09/28/2018  16:54:19  PAGE 34


      010008ECH   LINE      CODE     ---       #528
      010008F1H   LINE      CODE     ---       #530
      010008F6H   LINE      CODE     ---       #531
      010008FBH   LINE      CODE     ---       #532
      010008FDH   LINE      CODE     ---       #533
      01000900H   LINE      CODE     ---       #535
      01000905H   LINE      CODE     ---       #536
      0100090AH   LINE      CODE     ---       #539
      ---         BLOCKEND  ---      ---       LVL=0

      01001570H   BLOCK     CODE     ---       LVL=0
      0200014CH   SYMBOL    XDATA    WORD      x_start
      00000004H   SYMBOL    DATA     WORD      y_start
      00000002H   SYMBOL    DATA     WORD      x_end
      02000152H   SYMBOL    XDATA    WORD      y_end
      01001570H   LINE      CODE     ---       #551
      01001578H   LINE      CODE     ---       #552
      01001578H   LINE      CODE     ---       #567
      01001578H   LINE      CODE     ---       #568
      0100157BH   LINE      CODE     ---       #569
      01001586H   LINE      CODE     ---       #570
      0100158BH   LINE      CODE     ---       #571
      01001592H   LINE      CODE     ---       #573
      01001594H   LINE      CODE     ---       #574
      01001597H   LINE      CODE     ---       #575
      0100159EH   LINE      CODE     ---       #576
      010015A3H   LINE      CODE     ---       #577
      010015AEH   LINE      CODE     ---       #579
      ---         BLOCKEND  ---      ---       LVL=0

      01001439H   BLOCK     CODE     ---       LVL=0
      ---         BLOCKEND  ---      ---       LVL=0

      0100143EH   BLOCK     CODE     ---       LVL=0
      02000146H   SYMBOL    XDATA    WORD      x_start
      02000148H   SYMBOL    XDATA    WORD      y_start
      0200014AH   SYMBOL    XDATA    WORD      color
      0100143EH   LINE      CODE     ---       #583
      01001456H   LINE      CODE     ---       #584
      01001456H   LINE      CODE     ---       #585
      01001482H   LINE      CODE     ---       #586
      ---         BLOCKEND  ---      ---       LVL=0

      01001627H   BLOCK     CODE     ---       LVL=0
      02000107H   SYMBOL    XDATA    INT       color
      0100162FH   BLOCK     CODE     NEAR LAB  LVL=1
      00000003H   SYMBOL    DATA     BYTE      i
      00000002H   SYMBOL    DATA     BYTE      j
      ---         BLOCKEND  ---      ---       LVL=1
      01001627H   LINE      CODE     ---       #592
      0100162FH   LINE      CODE     ---       #593
      0100162FH   LINE      CODE     ---       #595
      01001643H   LINE      CODE     ---       #596
      01001645H   LINE      CODE     ---       #597
      01001647H   LINE      CODE     ---       #598
      0100165CH   LINE      CODE     ---       #599
      ---         BLOCKEND  ---      ---       LVL=0

      01000576H   BLOCK     CODE     ---       LVL=0
      0200010DH   SYMBOL    XDATA    WORD      x0
      0200010FH   SYMBOL    XDATA    WORD      y0
      02000111H   SYMBOL    XDATA    ---       s
      02000114H   SYMBOL    XDATA    WORD      forecolor
      02000116H   SYMBOL    XDATA    WORD      backgroundcolor
      0100058DH   BLOCK     CODE     NEAR LAB  LVL=1
LX51 LINKER/LOCATER V4.66.66.0                                                        09/28/2018  16:54:19  PAGE 35


      02000118H   SYMBOL    XDATA    INT       i
      00000002H   SYMBOL    DATA     INT       j
      00000004H   SYMBOL    DATA     INT       k
      0200011AH   SYMBOL    XDATA    INT       x
      0200011CH   SYMBOL    XDATA    INT       y
      0200011EH   SYMBOL    XDATA    INT       xx
      00000007H   SYMBOL    DATA     BYTE      qm
      02000120H   SYMBOL    XDATA    LONG      ulOffset
      02000124H   SYMBOL    XDATA    ---       ywbuf
      02000144H   SYMBOL    XDATA    ---       temp
      ---         BLOCKEND  ---      ---       LVL=1
      01000576H   LINE      CODE     ---       #603
      0100058DH   LINE      CODE     ---       #604
      0100058DH   LINE      CODE     ---       #613
      010005B3H   LINE      CODE     ---       #614
      010005B3H   LINE      CODE     ---       #615
      010005CBH   LINE      CODE     ---       #616
      010005CBH   LINE      CODE     ---       #617
      010005D0H   LINE      CODE     ---       #618
      010005D4H   LINE      CODE     ---       #620
      010005D4H   LINE      CODE     ---       #622
      010005D4H   LINE      CODE     ---       #623
      010005EEH   LINE      CODE     ---       #625
      01000600H   LINE      CODE     ---       #627
      01000603H   LINE      CODE     ---       #628
      01000603H   LINE      CODE     ---       #629
      0100062AH   LINE      CODE     ---       #630
      01000635H   LINE      CODE     ---       #632
      0100063CH   LINE      CODE     ---       #633
      0100063CH   LINE      CODE     ---       #634
      01000658H   LINE      CODE     ---       #635
      01000658H   LINE      CODE     ---       #636
      0100065FH   LINE      CODE     ---       #638
      0100068EH   LINE      CODE     ---       #639
      0100068EH   LINE      CODE     ---       #640
      010006BEH   LINE      CODE     ---       #641
      010006CDH   LINE      CODE     ---       #642
      010006CFH   LINE      CODE     ---       #644
      010006CFH   LINE      CODE     ---       #645
      010006FFH   LINE      CODE     ---       #646
      01000719H   LINE      CODE     ---       #647
      01000719H   LINE      CODE     ---       #648
      0100072AH   LINE      CODE     ---       #649
      0100074CH   LINE      CODE     ---       #650
      0100074CH   LINE      CODE     ---       #651
      0100075DH   LINE      CODE     ---       #652
      ---         BLOCKEND  ---      ---       LVL=0

      0100090FH   BLOCK     CODE     ---       LVL=0
      02000155H   SYMBOL    XDATA    WORD      x0
      02000157H   SYMBOL    XDATA    WORD      y0
      02000159H   SYMBOL    XDATA    ---       s
      01000926H   BLOCK     CODE     NEAR LAB  LVL=1
      0200015CH   SYMBOL    XDATA    INT       i
      00000002H   SYMBOL    DATA     INT       j
      00000004H   SYMBOL    DATA     INT       k
      0200015EH   SYMBOL    XDATA    INT       x
      02000160H   SYMBOL    XDATA    INT       y
      00000006H   SYMBOL    DATA     INT       xx
      00000007H   SYMBOL    DATA     BYTE      qm
      02000162H   SYMBOL    XDATA    LONG      ulOffset
      02000166H   SYMBOL    XDATA    ---       ywbuf
      02000186H   SYMBOL    XDATA    ---       temp
      ---         BLOCKEND  ---      ---       LVL=1
      0100090FH   LINE      CODE     ---       #655
LX51 LINKER/LOCATER V4.66.66.0                                                        09/28/2018  16:54:19  PAGE 36


      01000926H   LINE      CODE     ---       #656
      01000926H   LINE      CODE     ---       #665
      0100094AH   LINE      CODE     ---       #666
      0100094AH   LINE      CODE     ---       #667
      01000962H   LINE      CODE     ---       #668
      01000962H   LINE      CODE     ---       #669
      01000967H   LINE      CODE     ---       #670
      0100096BH   LINE      CODE     ---       #672
      0100096BH   LINE      CODE     ---       #674
      0100096BH   LINE      CODE     ---       #675
      01000983H   LINE      CODE     ---       #677
      01000995H   LINE      CODE     ---       #679
      01000998H   LINE      CODE     ---       #680
      01000998H   LINE      CODE     ---       #681
      010009BFH   LINE      CODE     ---       #682
      010009CAH   LINE      CODE     ---       #684
      010009D1H   LINE      CODE     ---       #685
      010009D1H   LINE      CODE     ---       #686
      010009EDH   LINE      CODE     ---       #687
      010009EDH   LINE      CODE     ---       #688
      010009F4H   LINE      CODE     ---       #690
      01000A23H   LINE      CODE     ---       #691
      01000A23H   LINE      CODE     ---       #692
      01000A4CH   LINE      CODE     ---       #693
      01000A5FH   LINE      CODE     ---       #694
      01000A5FH   LINE      CODE     ---       #701
      01000A70H   LINE      CODE     ---       #702
      01000A92H   LINE      CODE     ---       #704
      01000A92H   LINE      CODE     ---       #705
      01000AA6H   LINE      CODE     ---       #706
      ---         BLOCKEND  ---      ---       LVL=0

      01000AA7H   BLOCK     CODE     ---       LVL=0
      02000107H   SYMBOL    XDATA    WORD      x
      02000109H   SYMBOL    XDATA    WORD      y
      0200010BH   SYMBOL    XDATA    WORD      fc
      0200010DH   SYMBOL    XDATA    WORD      bc
      0200010FH   SYMBOL    XDATA    ---       s
      01000ABBH   BLOCK     CODE     NEAR LAB  LVL=1
      00000003H   SYMBOL    DATA     BYTE      i
      00000002H   SYMBOL    DATA     BYTE      j
      02000112H   SYMBOL    XDATA    WORD      k
      02000114H   SYMBOL    XDATA    WORD      HZnum
      ---         BLOCKEND  ---      ---       LVL=1
      01000AA7H   LINE      CODE     ---       #709
      01000ABBH   LINE      CODE     ---       #710
      01000ABBH   LINE      CODE     ---       #714
      01000AC4H   LINE      CODE     ---       #715
      01000AD7H   LINE      CODE     ---       #716
      01000AD7H   LINE      CODE     ---       #717
      01000ADFH   LINE      CODE     ---       #718
      01000ADFH   LINE      CODE     ---       #719
      01000AFFH   LINE      CODE     ---       #720
      01000AFFH   LINE      CODE     ---       #721
      01000B4FH   LINE      CODE     ---       #722
      01000B85H   LINE      CODE     ---       #723
      01000B87H   LINE      CODE     ---       #724
      01000B87H   LINE      CODE     ---       #725
      01000B89H   LINE      CODE     ---       #726
      01000B89H   LINE      CODE     ---       #727
      01000BD2H   LINE      CODE     ---       #729
      01000BD2H   LINE      CODE     ---       #730
      01000BF1H   LINE      CODE     ---       #731
      01000BF1H   LINE      CODE     ---       #732
      01000BF7H   LINE      CODE     ---       #733
LX51 LINKER/LOCATER V4.66.66.0                                                        09/28/2018  16:54:19  PAGE 37


      01000BFDH   LINE      CODE     ---       #736
      01000BFDH   LINE      CODE     ---       #737
      01000C0EH   LINE      CODE     ---       #738
      01000C26H   LINE      CODE     ---       #739
      01000C29H   LINE      CODE     ---       #743
      01000C33H   LINE      CODE     ---       #745
      01000C36H   LINE      CODE     ---       #746
      ---         BLOCKEND  ---      ---       LVL=0

      010002EEH   BLOCK     CODE     ---       LVL=0
      0200019DH   SYMBOL    XDATA    WORD      x
      0200019FH   SYMBOL    XDATA    WORD      y
      020001A1H   SYMBOL    XDATA    WORD      fc
      020001A3H   SYMBOL    XDATA    WORD      bc
      020001A5H   SYMBOL    XDATA    ---       s
      01000304H   BLOCK     CODE     NEAR LAB  LVL=1
      020001A8H   SYMBOL    XDATA    BYTE      i
      020001A9H   SYMBOL    XDATA    BYTE      j
      020001AAH   SYMBOL    XDATA    WORD      k
      020001ACH   SYMBOL    XDATA    WORD      x0
      ---         BLOCKEND  ---      ---       LVL=1
      010002EEH   LINE      CODE     ---       #749
      01000304H   LINE      CODE     ---       #750
      01000304H   LINE      CODE     ---       #753
      0100030CH   LINE      CODE     ---       #755
      0100031FH   LINE      CODE     ---       #756
      0100031FH   LINE      CODE     ---       #757
      01000327H   LINE      CODE     ---       #758
      01000327H   LINE      CODE     ---       #759
      01000341H   LINE      CODE     ---       #760
      01000341H   LINE      CODE     ---       #761
      01000393H   LINE      CODE     ---       #762
      01000393H   LINE      CODE     ---       #763
      01000397H   LINE      CODE     ---       #764
      01000397H   LINE      CODE     ---       #765
      0100039CH   LINE      CODE     ---       #766
      0100039CH   LINE      CODE     ---       #767
      0100040FH   LINE      CODE     ---       #768
      0100040FH   LINE      CODE     ---       #769
      0100044DH   LINE      CODE     ---       #770
      0100044DH   LINE      CODE     ---       #771
      0100045CH   LINE      CODE     ---       #772
      01000461H   LINE      CODE     ---       #773
      01000461H   LINE      CODE     ---       #774
      010004DAH   LINE      CODE     ---       #776
      010004DAH   LINE      CODE     ---       #777
      0100051EH   LINE      CODE     ---       #778
      0100051EH   LINE      CODE     ---       #779
      0100052DH   LINE      CODE     ---       #780
      0100053CH   LINE      CODE     ---       #781
      0100053CH   LINE      CODE     ---       #782
      0100054DH   LINE      CODE     ---       #783
      01000565H   LINE      CODE     ---       #784
      01000568H   LINE      CODE     ---       #786
      01000572H   LINE      CODE     ---       #788
      01000575H   LINE      CODE     ---       #789
      ---         BLOCKEND  ---      ---       LVL=0

      ---         MODULE    ---      ---       DS18B20
      00000020H.2 PUBLIC    BIT      BIT       fg
      020001BDH   PUBLIC    XDATA    BYTE      xiaoshu2
      020001BCH   PUBLIC    XDATA    BYTE      xiaoshu1
      020001BBH   PUBLIC    XDATA    BYTE      date
      020001B9H   PUBLIC    XDATA    WORD      svalue
      020001B8H   PUBLIC    XDATA    BYTE      xiaoshu
LX51 LINKER/LOCATER V4.66.66.0                                                        09/28/2018  16:54:19  PAGE 38


      020001B7H   PUBLIC    XDATA    BYTE      tempL
      020001B6H   PUBLIC    XDATA    BYTE      tempH
      01000DB0H   PUBLIC    CODE     ---       _ReadTemperature
      0100178EH   PUBLIC    CODE     ---       _WriteOneChar
      0100171DH   PUBLIC    CODE     ---       ReadOneChar
      01001746H   PUBLIC    CODE     ---       Init_DS18B20
      0100188FH   PUBLIC    CODE     ---       _delay
      00000080H   SFRSYM    DATA     BYTE      P0
      00000090H   SFRSYM    DATA     BYTE      P1
      000000A0H   SFRSYM    DATA     BYTE      P2
      000000B0H   SFRSYM    DATA     BYTE      P3
      000000B0H.4 SFRSYM    DATA     BIT       T0
      000000D0H.6 SFRSYM    DATA     BIT       AC
      000000B0H.5 SFRSYM    DATA     BIT       T1
      00000090H   SFRSYM    DATA     BIT       T2
      000000A8H.7 SFRSYM    DATA     BIT       EA
      000000A8H   SFRSYM    DATA     BYTE      IE
      000000A0H.2 SFRSYM    DATA     BIT       DQ
      000000C8H.6 SFRSYM    DATA     BIT       EXF2
      000000B0H.7 SFRSYM    DATA     BIT       RD
      000000A8H.4 SFRSYM    DATA     BIT       ES
      000000B8H   SFRSYM    DATA     BYTE      IP
      00000098H   SFRSYM    DATA     BIT       RI
      000000B0H.2 SFRSYM    DATA     BIT       INT0
      000000D0H.7 SFRSYM    DATA     BIT       CY
      00000098H.1 SFRSYM    DATA     BIT       TI
      000000B0H.3 SFRSYM    DATA     BIT       INT1
      000000CBH   SFRSYM    DATA     BYTE      RCAP2H
      000000B8H.4 SFRSYM    DATA     BIT       PS
      00000081H   SFRSYM    DATA     BYTE      SP
      00000090H.1 SFRSYM    DATA     BIT       T2EX
      000000D0H.2 SFRSYM    DATA     BIT       OV
      000000CAH   SFRSYM    DATA     BYTE      RCAP2L
      000000C8H.1 SFRSYM    DATA     BIT       C_T2
      000000B0H.6 SFRSYM    DATA     BIT       WR
      000000C8H.5 SFRSYM    DATA     BIT       RCLK
      000000C8H.4 SFRSYM    DATA     BIT       TCLK
      00000099H   SFRSYM    DATA     BYTE      SBUF
      00000087H   SFRSYM    DATA     BYTE      PCON
      00000098H   SFRSYM    DATA     BYTE      SCON
      00000089H   SFRSYM    DATA     BYTE      TMOD
      00000088H   SFRSYM    DATA     BYTE      TCON
      00000088H.1 SFRSYM    DATA     BIT       IE0
      00000088H.3 SFRSYM    DATA     BIT       IE1
      000000F0H   SFRSYM    DATA     BYTE      B
      000000C8H   SFRSYM    DATA     BIT       CP_RL2
      000000E0H   SFRSYM    DATA     BYTE      ACC
      000000A8H.1 SFRSYM    DATA     BIT       ET0
      000000A8H.3 SFRSYM    DATA     BIT       ET1
      00000088H.5 SFRSYM    DATA     BIT       TF0
      000000A8H.5 SFRSYM    DATA     BIT       ET2
      00000088H.7 SFRSYM    DATA     BIT       TF1
      000000C8H.7 SFRSYM    DATA     BIT       TF2
      00000098H.2 SFRSYM    DATA     BIT       RB8
      0000008CH   SFRSYM    DATA     BYTE      TH0
      000000A8H   SFRSYM    DATA     BIT       EX0
      00000088H   SFRSYM    DATA     BIT       IT0
      0000008DH   SFRSYM    DATA     BYTE      TH1
      00000098H.3 SFRSYM    DATA     BIT       TB8
      000000A8H.2 SFRSYM    DATA     BIT       EX1
      00000088H.2 SFRSYM    DATA     BIT       IT1
      000000CDH   SFRSYM    DATA     BYTE      TH2
      000000D0H   SFRSYM    DATA     BIT       P
      00000098H.7 SFRSYM    DATA     BIT       SM0
      0000008AH   SFRSYM    DATA     BYTE      TL0
LX51 LINKER/LOCATER V4.66.66.0                                                        09/28/2018  16:54:19  PAGE 39


      00000098H.6 SFRSYM    DATA     BIT       SM1
      0000008BH   SFRSYM    DATA     BYTE      TL1
      00000098H.5 SFRSYM    DATA     BIT       SM2
      000000CCH   SFRSYM    DATA     BYTE      TL2
      000000B8H.1 SFRSYM    DATA     BIT       PT0
      000000B8H.3 SFRSYM    DATA     BIT       PT1
      000000D0H.3 SFRSYM    DATA     BIT       RS0
      000000B8H.5 SFRSYM    DATA     BIT       PT2
      00000088H.4 SFRSYM    DATA     BIT       TR0
      000000D0H.4 SFRSYM    DATA     BIT       RS1
      00000088H.6 SFRSYM    DATA     BIT       TR1
      000000C8H.2 SFRSYM    DATA     BIT       TR2
      000000B8H   SFRSYM    DATA     BIT       PX0
      000000B8H.2 SFRSYM    DATA     BIT       PX1
      00000083H   SFRSYM    DATA     BYTE      DPH
      00000082H   SFRSYM    DATA     BYTE      DPL
      000000C8H.3 SFRSYM    DATA     BIT       EXEN2
      00000098H.4 SFRSYM    DATA     BIT       REN
      000000C8H   SFRSYM    DATA     BYTE      T2CON
      000000B0H   SFRSYM    DATA     BIT       RXD
      000000B0H.1 SFRSYM    DATA     BIT       TXD
      000000D0H.5 SFRSYM    DATA     BIT       F0
      000000D0H   SFRSYM    DATA     BYTE      PSW

      0100188FH   BLOCK     CODE     ---       LVL=0
      00000006H   SYMBOL    DATA     WORD      i
      0100188FH   LINE      CODE     ---       #23
      0100188FH   LINE      CODE     ---       #24
      0100188FH   LINE      CODE     ---       #25
      01001899H   LINE      CODE     ---       #26
      ---         BLOCKEND  ---      ---       LVL=0

      01001746H   BLOCK     CODE     ---       LVL=0
      01001746H   BLOCK     CODE     NEAR LAB  LVL=1
      00000005H   SYMBOL    DATA     BYTE      x
      ---         BLOCKEND  ---      ---       LVL=1
      01001746H   LINE      CODE     ---       #34
      01001746H   LINE      CODE     ---       #35
      01001746H   LINE      CODE     ---       #36
      01001748H   LINE      CODE     ---       #37
      0100174AH   LINE      CODE     ---       #38
      01001750H   LINE      CODE     ---       #39
      01001752H   LINE      CODE     ---       #40
      01001759H   LINE      CODE     ---       #41
      0100175BH   LINE      CODE     ---       #42
      01001762H   LINE      CODE     ---       #43
      01001767H   LINE      CODE     ---       #44
      ---         BLOCKEND  ---      ---       LVL=0

      0100171DH   BLOCK     CODE     ---       LVL=0
      0100171DH   BLOCK     CODE     NEAR LAB  LVL=1
      00000005H   SYMBOL    DATA     BYTE      i
      00000003H   SYMBOL    DATA     BYTE      dat
      ---         BLOCKEND  ---      ---       LVL=1
      0100171DH   LINE      CODE     ---       #54
      0100171DH   LINE      CODE     ---       #55
      0100171DH   LINE      CODE     ---       #56
      0100171EH   LINE      CODE     ---       #57
      0100171FH   LINE      CODE     ---       #58
      01001721H   LINE      CODE     ---       #59
      01001721H   LINE      CODE     ---       #60
      01001723H   LINE      CODE     ---       #61
      0100172AH   LINE      CODE     ---       #62
      0100172CH   LINE      CODE     ---       #63
      01001730H   LINE      CODE     ---       #64
LX51 LINKER/LOCATER V4.66.66.0                                                        09/28/2018  16:54:19  PAGE 40


      01001732H   LINE      CODE     ---       #65
      01001735H   LINE      CODE     ---       #66
      01001738H   LINE      CODE     ---       #67
      0100173FH   LINE      CODE     ---       #68
      01001741H   LINE      CODE     ---       #69
      01001745H   LINE      CODE     ---       #70
      ---         BLOCKEND  ---      ---       LVL=0

      0100178EH   BLOCK     CODE     ---       LVL=0
      00000005H   SYMBOL    DATA     BYTE      dat
      01001790H   BLOCK     CODE     NEAR LAB  LVL=1
      00000003H   SYMBOL    DATA     BYTE      i
      ---         BLOCKEND  ---      ---       LVL=1
      0100178EH   LINE      CODE     ---       #80
      01001790H   LINE      CODE     ---       #81
      01001790H   LINE      CODE     ---       #82
      01001790H   LINE      CODE     ---       #83
      01001792H   LINE      CODE     ---       #84
      01001792H   LINE      CODE     ---       #85
      01001794H   LINE      CODE     ---       #86
      01001798H   LINE      CODE     ---       #87
      0100179FH   LINE      CODE     ---       #88
      010017A1H   LINE      CODE     ---       #89
      010017A5H   LINE      CODE     ---       #90
      010017A7H   LINE      CODE     ---       #91
      ---         BLOCKEND  ---      ---       LVL=0

      01000DB0H   BLOCK     CODE     ---       LVL=0
      0200010DH   SYMBOL    XDATA    ---       tempstr
      01000DB0H   LINE      CODE     ---       #102
      01000DBBH   LINE      CODE     ---       #103
      01000DBBH   LINE      CODE     ---       #104
      01000DBEH   LINE      CODE     ---       #105
      01000DC3H   LINE      CODE     ---       #106
      01000DC8H   LINE      CODE     ---       #107
      01000DCFH   LINE      CODE     ---       #108
      01000DD2H   LINE      CODE     ---       #109
      01000DD7H   LINE      CODE     ---       #110
      01000DDCH   LINE      CODE     ---       #111
      01000DE4H   LINE      CODE     ---       #112
      01000DECH   LINE      CODE     ---       #113
      01000DF1H   LINE      CODE     ---       #114
      01000DF1H   LINE      CODE     ---       #115
      01000DF5H   LINE      CODE     ---       #116
      01000DFCH   LINE      CODE     ---       #117
      01000DFEH   LINE      CODE     ---       #118
      01000DFEH   LINE      CODE     ---       #119
      01000E1DH   LINE      CODE     ---       #120
      01000E36H   LINE      CODE     ---       #121
      01000E51H   LINE      CODE     ---       #122
      01000E5EH   LINE      CODE     ---       #124
      01000E7EH   LINE      CODE     ---       #125
      01000EA3H   LINE      CODE     ---       #126
      01000EABH   LINE      CODE     ---       #127
      01000EBDH   LINE      CODE     ---       #128
      01000EC5H   LINE      CODE     ---       #129
      01000ECCH   LINE      CODE     ---       #131
      01000ED4H   LINE      CODE     ---       #132
      ---         BLOCKEND  ---      ---       LVL=0

      ---         MODULE    ---      ---       ?C_STARTUP
      01000000H   PUBLIC    CODE     ---       ?C_STARTUP

      ---         MODULE    ---      ---       ?C?CLDPTR
      01000046H   PUBLIC    CODE     ---       ?C?CLDPTR
LX51 LINKER/LOCATER V4.66.66.0                                                        09/28/2018  16:54:19  PAGE 41



      ---         MODULE    ---      ---       ?C?CLDOPTR
      0100005FH   PUBLIC    CODE     ---       ?C?CLDOPTR

      ---         MODULE    ---      ---       ?C?CSTPTR
      0100008CH   PUBLIC    CODE     ---       ?C?CSTPTR

      ---         MODULE    ---      ---       ?C?CSTOPTR
      0100009EH   PUBLIC    CODE     ---       ?C?CSTOPTR

      ---         MODULE    ---      ---       ?C?UIDIV
      010000C0H   PUBLIC    CODE     ---       ?C?UIDIV

      ---         MODULE    ---      ---       ?C?SIDIV
      01000115H   PUBLIC    CODE     ---       ?C?SIDIV

      ---         MODULE    ---      ---       ?C?IILDX
      0100014BH   PUBLIC    CODE     ---       ?C?IILDX

      ---         MODULE    ---      ---       ?C?ILDIX
      01000161H   PUBLIC    CODE     ---       ?C?ILDIX

      ---         MODULE    ---      ---       ?C?LMUL
      01000177H   PUBLIC    CODE     ---       ?C?LMUL

      ---         MODULE    ---      ---       ?C?ULDIV
      01000202H   PUBLIC    CODE     ---       ?C?ULDIV

      ---         MODULE    ---      ---       ?C?ULCMP
      01000294H   PUBLIC    CODE     ---       ?C?ULCMP

      ---         MODULE    ---      ---       ?C?LSTXDATA
      010002A5H   PUBLIC    CODE     ---       ?C?LSTXDATA

      ---         MODULE    ---      ---       ?C?LSTKXDATA
      010002B1H   PUBLIC    CODE     ---       ?C?LSTKXDATA

      ---         MODULE    ---      ---       ?C?OFFXADD
      010002E2H   PUBLIC    CODE     ---       ?C?OFFXADD

      ---         MODULE    ---      ---       STRLEN
      0100000EH   PUBLIC    CODE     ---       _STRLEN

      ---         MODULE    ---      ---       ?C_INIT
      01001206H   PUBLIC    CODE     ---       ?C_START



*** WARNING L57: UNCALLED FUNCTION, IGNORED FOR OVERLAY PROCESS
    NAME:    _DELAY_MS/DELAY

*** WARNING L57: UNCALLED FUNCTION, IGNORED FOR OVERLAY PROCESS
    NAME:    _UARTSENDSTRING/UART

*** WARNING L57: UNCALLED FUNCTION, IGNORED FOR OVERLAY PROCESS
    NAME:    CLEARBUF/UART

*** WARNING L57: UNCALLED FUNCTION, IGNORED FOR OVERLAY PROCESS
    NAME:    _UART2_SENDSTRING/UART2

*** WARNING L57: UNCALLED FUNCTION, IGNORED FOR OVERLAY PROCESS
    NAME:    _UART2SENDDATA/UART2

*** WARNING L57: UNCALLED FUNCTION, IGNORED FOR OVERLAY PROCESS
    NAME:    CLEARBUF2/UART2
LX51 LINKER/LOCATER V4.66.66.0                                                        09/28/2018  16:54:19  PAGE 42



*** WARNING L57: UNCALLED FUNCTION, IGNORED FOR OVERLAY PROCESS
    NAME:    _GET_LIGHT_VALUE/ADC

*** WARNING L57: UNCALLED FUNCTION, IGNORED FOR OVERLAY PROCESS
    NAME:    _DISPLAY_ASCII8X16/TFT_LCD

*** WARNING L57: UNCALLED FUNCTION, IGNORED FOR OVERLAY PROCESS
    NAME:    _GUI_DRAWFONT_GBK16/TFT_LCD

Program Size: data=17.3 xdata=468 const=4682 code=6330
LX51 RUN COMPLETE.  9 WARNING(S),  0 ERROR(S)
