LX51 LINKER/LOCATER V4.66.66.0                                                          10/09/2018  12:38:49  PAGE 1


LX51 LINKER/LOCATER V4.66.66.0, INVOKED BY:
C:\KEIL_V5\C51\BIN\LX51.EXE .\Objects\mysys.obj, .\Objects\tasklist.obj, .\Objects\agreement.obj, .\Objects\io.obj, .\Ob
>> jects\delay.obj, .\Objects\uart.obj, .\Objects\uart2.obj, .\Objects\adc.obj, .\Objects\main.obj, .\Objects\TFT_LCD.ob
>> j, .\Objects\DS18B20.obj TO .\Objects\samartAgr PRINT (.\Listings\samartAgr.map)


CPU MODE:     8051 MODE
MEMORY MODEL: LARGE


INPUT MODULES INCLUDED:
  .\Objects\mysys.obj (MYSYS)
         COMMENT TYPE 0: C51 V9.56.0.0
  .\Objects\tasklist.obj (TASKLIST)
         COMMENT TYPE 0: C51 V9.56.0.0
  .\Objects\agreement.obj (AGREEMENT)
         COMMENT TYPE 0: C51 V9.56.0.0
  .\Objects\io.obj (IO)
         COMMENT TYPE 0: C51 V9.56.0.0
  .\Objects\delay.obj (DELAY)
         COMMENT TYPE 0: C51 V9.56.0.0
  .\Objects\uart.obj (UART)
         COMMENT TYPE 0: C51 V9.56.0.0
  .\Objects\uart2.obj (UART2)
         COMMENT TYPE 0: C51 V9.56.0.0
  .\Objects\adc.obj (ADC)
         COMMENT TYPE 0: C51 V9.56.0.0
  .\Objects\main.obj (MAIN)
         COMMENT TYPE 0: C51 V9.56.0.0
  .\Objects\TFT_LCD.obj (TFT_LCD)
         COMMENT TYPE 0: C51 V9.56.0.0
  .\Objects\DS18B20.obj (DS18B20)
         COMMENT TYPE 0: C51 V9.56.0.0
  C:\KEIL_V5\C51\LIB\C51L.LIB (?C_STARTUP)
         COMMENT TYPE 1: A51 / ASM51 Assembler
  C:\KEIL_V5\C51\LIB\C51L.LIB (?C?CLDPTR)
         COMMENT TYPE 1: A51 / ASM51 Assembler
  C:\KEIL_V5\C51\LIB\C51L.LIB (?C?CLDOPTR)
         COMMENT TYPE 1: A51 / ASM51 Assembler
  C:\KEIL_V5\C51\LIB\C51L.LIB (?C?CSTPTR)
         COMMENT TYPE 1: A51 / ASM51 Assembler
  C:\KEIL_V5\C51\LIB\C51L.LIB (?C?CSTOPTR)
         COMMENT TYPE 1: A51 / ASM51 Assembler
  C:\KEIL_V5\C51\LIB\C51L.LIB (?C?UIDIV)
         COMMENT TYPE 1: A51 / ASM51 Assembler
  C:\KEIL_V5\C51\LIB\C51L.LIB (?C?SIDIV)
         COMMENT TYPE 1: A51 / ASM51 Assembler
  C:\KEIL_V5\C51\LIB\C51L.LIB (?C?IILDX)
         COMMENT TYPE 1: A51 / ASM51 Assembler
  C:\KEIL_V5\C51\LIB\C51L.LIB (?C?ILDIX)
         COMMENT TYPE 1: A51 / ASM51 Assembler
  C:\KEIL_V5\C51\LIB\C51L.LIB (?C?LMUL)
         COMMENT TYPE 1: A51 / ASM51 Assembler
  C:\KEIL_V5\C51\LIB\C51L.LIB (?C?ULDIV)
         COMMENT TYPE 1: A51 / ASM51 Assembler
  C:\KEIL_V5\C51\LIB\C51L.LIB (?C?ULCMP)
         COMMENT TYPE 1: A51 / ASM51 Assembler
  C:\KEIL_V5\C51\LIB\C51L.LIB (?C?LSTXDATA)
         COMMENT TYPE 1: A51 / ASM51 Assembler
  C:\KEIL_V5\C51\LIB\C51L.LIB (?C?LSTKXDATA)
         COMMENT TYPE 1: A51 / ASM51 Assembler
  C:\KEIL_V5\C51\LIB\C51L.LIB (?C?OFFXADD)
         COMMENT TYPE 1: A51 / ASM51 Assembler
  C:\KEIL_V5\C51\LIB\C51L.LIB (STRLEN)
         COMMENT TYPE 1: A51 / ASM51 Assembler
  C:\KEIL_V5\C51\LIB\C51L.LIB (?C_INIT)
LX51 LINKER/LOCATER V4.66.66.0                                                        10/09/2018  12:38:49  PAGE 2


         COMMENT TYPE 1: A51 / ASM51 Assembler


ACTIVE MEMORY CLASSES OF MODULE:  .\Objects\samartAgr (MYSYS)

BASE        START       END         USED      MEMORY CLASS
==========================================================
C:000000H   C:000000H   C:00FFFFH   001918H   CODE
X:000000H   X:000000H   X:00FFFFH   0001D5H   XDATA
C:000000H   C:000000H   C:00FFFFH   00124AH   CONST
I:000020H.0 I:000020H.0 I:00002FH.7 000000H.3 BIT
I:000000H   I:000000H   I:0000FFH   000001H   IDATA
I:000000H   I:000000H   I:00007FH   000010H   DATA


MEMORY MAP OF MODULE:  .\Objects\samartAgr (MYSYS)


START     STOP      LENGTH    ALIGN  RELOC    MEMORY CLASS   SEGMENT NAME
=========================================================================

* * * * * * * * * * *   D A T A   M E M O R Y   * * * * * * * * * * * * *
000000H   000007H   000008H   ---    AT..     DATA           "REG BANK 0"
000008H   00000FH   000008H   ---    AT..     DATA           "REG BANK 1"
000010H.0 00001FH.7 000010H.0 ---    ---      **GAP**
000020H.0 000020H.0 000000H.1 BIT    UNIT     BIT            ?BI?UART
000020H.1 000020H.1 000000H.1 BIT    UNIT     BIT            ?BI?UART2
000020H.2 000020H.2 000000H.1 BIT    UNIT     BIT            ?BI?DS18B20
000020H.3 000020H   000000H.5 ---    ---      **GAP**
000021H   000021H   000001H   BYTE   UNIT     IDATA          ?STACK

* * * * * * * * * * *   C O D E   M E M O R Y   * * * * * * * * * * * * *
000000H   000002H   000003H   ---    OFFS..   CODE           ?CO??C_STARTUP?0
000003H   00000AH   000008H   BYTE   UNIT     CODE           ?PR?_PUTCHAR?UART
00000BH   00000DH   000003H   BYTE   OFFS..   CODE           ?MYSYS?0000B
00000EH   000022H   000015H   BYTE   UNIT     CODE           ?PR?_STRLEN?STRLEN
000023H   000025H   000003H   BYTE   OFFS..   CODE           ?UART?00023
000026H   000040H   00001BH   BYTE   UNIT     CODE           ?PR?MYTASK_FIVE?TASKLIST
000041H   000042H   000002H   ---    ---      **GAP**
000043H   000045H   000003H   BYTE   OFFS..   CODE           ?UART2?00043
000046H   0002EDH   0002A8H   BYTE   UNIT     CODE           ?C?LIB_CODE
0002EEH   000575H   000288H   BYTE   UNIT     CODE           ?PR?_GUI_DRAWFONT_GBK16?TFT_LCD
000576H   00075DH   0001E8H   BYTE   UNIT     CODE           ?PR?_DISPLAY_ASCII8X16_COLOR?TFT_LCD
00075EH   00090EH   0001B1H   BYTE   UNIT     CODE           ?PR?LCD_INITIAL?TFT_LCD
00090FH   000AB7H   0001A9H   BYTE   UNIT     CODE           ?PR?TIMER0?MYSYS
000AB8H   000C4FH   000198H   BYTE   UNIT     CODE           ?PR?_DISPLAY_ASCII8X16?TFT_LCD
000C50H   000DDFH   000190H   BYTE   UNIT     CODE           ?PR?_FAST_DRAWFONT_GBK16?TFT_LCD
000DE0H   000F04H   000125H   BYTE   UNIT     CODE           ?PR?_READTEMPERATURE?DS18B20
000F05H   000FD8H   0000D4H   BYTE   UNIT     CODE           ?PR?_GET_WTL_VALUE?ADC
000FD9H   0010A8H   0000D0H   BYTE   UNIT     CODE           ?PR?_GET_LIGHT_VALUE?ADC
0010A9H   00115DH   0000B5H   BYTE   UNIT     CODE           ?PR?MAIN?MAIN
00115EH   0011FDH   0000A0H   BYTE   UNIT     CODE           ?PR?DISPLAY_BACKGROUND?MAIN
0011FEH   001289H   00008CH   BYTE   UNIT     CODE           ?C_C51STARTUP
00128AH   001306H   00007DH   BYTE   UNIT     CODE           ?PR?_AGREEMENTPARSE?AGREEMENT
001307H   001367H   000061H   BYTE   UNIT     CODE           ?PR?UART2?UART2
001368H   0013C7H   000060H   BYTE   UNIT     CODE           ?C_INITSEG
0013C8H   001426H   00005FH   BYTE   UNIT     CODE           ?PR?UART?UART
001427H   00147BH   000055H   BYTE   UNIT     CODE           ?PR?MYTASK_ONE?TASKLIST
00147CH   0014CFH   000054H   BYTE   UNIT     CODE           ?PR?_PUTPIXEL?TFT_LCD
0014D0H   00151EH   00004FH   BYTE   UNIT     CODE           ?PR?MYTASK_TWO?TASKLIST
00151FH   001568H   00004AH   BYTE   UNIT     CODE           ?PR?MYTASK_THREE?TASKLIST
001569H   0015B2H   00004AH   BYTE   UNIT     CODE           ?PR?MYTASK_FOUR?TASKLIST
0015B3H   0015F5H   000043H   BYTE   UNIT     CODE           ?PR?_LCD_SETREGION?TFT_LCD
0015F6H   00162FH   00003AH   BYTE   UNIT     CODE           ?PR?_SEND_SENSORDATA?AGREEMENT
001630H   001669H   00003AH   BYTE   UNIT     CODE           ?PR?_ADC_GETVALUE?ADC
LX51 LINKER/LOCATER V4.66.66.0                                                        10/09/2018  12:38:49  PAGE 3


00166AH   00169FH   000036H   BYTE   UNIT     CODE           ?PR?_DSP_SINGLE_COLOUR?TFT_LCD
0016A0H   0016D2H   000033H   BYTE   UNIT     CODE           ?PR?_UARTSENDSTRING?UART
0016D3H   001705H   000033H   BYTE   UNIT     CODE           ?PR?_UART2_SENDSTRING?UART2
001706H   001732H   00002DH   BYTE   UNIT     CODE           ?PR?_UARTSENDDATA?UART
001733H   00175FH   00002DH   BYTE   UNIT     CODE           ?PR?_UART2SENDDATA?UART2
001760H   001788H   000029H   BYTE   UNIT     CODE           ?PR?READONECHAR?DS18B20
001789H   0017B0H   000028H   BYTE   UNIT     CODE           ?PR?INIT_DS18B20?DS18B20
0017B1H   0017D0H   000020H   BYTE   UNIT     CODE           ?PR?_LCD_DELAY_MS?TFT_LCD
0017D1H   0017F0H   000020H   BYTE   UNIT     CODE           ?PR?_WRITEONECHAR?DS18B20
0017F1H   00180FH   00001FH   BYTE   UNIT     CODE           ?PR?CLEARBUF?UART
001810H   00182AH   00001BH   BYTE   UNIT     CODE           ?PR?UARTINIT?UART
00182BH   001844H   00001AH   BYTE   UNIT     CODE           ?PR?_LCD_WRITEDATA_16BIT?TFT_LCD
001845H   00185CH   000018H   BYTE   UNIT     CODE           ?PR?_DELAY_MS?DELAY
00185DH   001874H   000018H   BYTE   UNIT     CODE           ?PR?UART2INIT?UART2
001875H   00188CH   000018H   BYTE   UNIT     CODE           ?PR?CLEARBUF2?UART2
00188DH   0018A3H   000017H   BYTE   UNIT     CODE           ?PR?_SPI_WRITEDATA?TFT_LCD
0018A4H   0018B9H   000016H   BYTE   UNIT     CODE           ?PR?_LCD_WRITEDATA?TFT_LCD
0018BAH   0018CCH   000013H   BYTE   UNIT     CODE           ?PR?MYSYSINIT?MYSYS
0018CDH   0018DEH   000012H   BYTE   UNIT     CODE           ?PR?BSP_INIT?MAIN
0018DFH   0018ECH   00000EH   BYTE   UNIT     CODE           ?PR?LCD_RESET?TFT_LCD
0018EDH   0018F7H   00000BH   BYTE   UNIT     CODE           ?PR?_DELAY?DS18B20
0018F8H   001901H   00000AH   BYTE   UNIT     CODE           ?PR?_LCD_WRITEINDEX?TFT_LCD
001902H   00190AH   000009H   BYTE   UNIT     CODE           ?PR?DELAY1MS?DELAY
00190BH   001912H   000008H   BYTE   UNIT     CODE           ?PR?_SENDDATA?UART2
001913H   001919H   000007H   BYTE   UNIT     CODE           ?PR?ADC_INIT?ADC
00191AH   002B3AH   001221H   BYTE   UNIT     CONST          ?CO?TFT_LCD
002B3BH   002B5BH   000021H   BYTE   UNIT     CONST          ?CO?MAIN
002B5CH   002B63H   000008H   BYTE   UNIT     CONST          ?CO?TASKLIST

* * * * * * * * * * *  X D A T A   M E M O R Y  * * * * * * * * * * * * *
000000H   000083H   000084H   BYTE   UNIT     XDATA          ?XD?UART
000084H   000106H   000083H   BYTE   UNIT     XDATA          ?XD?UART2
000107H   000154H   00004EH   BYTE   UNIT     XDATA          _XDATA_GROUP_
000155H   000187H   000033H   BYTE   UNIT     XDATA          ?XD?_DISPLAY_ASCII8X16?TFT_LCD
000188H   00019CH   000015H   BYTE   UNIT     XDATA          ?XD?AGREEMENT
00019DH   0001ADH   000011H   BYTE   UNIT     XDATA          ?XD?_GUI_DRAWFONT_GBK16?TFT_LCD
0001AEH   0001B6H   000009H   BYTE   UNIT     XDATA          ?XD?MYSYS
0001B7H   0001BEH   000008H   BYTE   UNIT     XDATA          ?XD?DS18B20
0001BFH   0001C4H   000006H   BYTE   UNIT     XDATA          ?XD?TASKLIST
0001C5H   0001CAH   000006H   BYTE   UNIT     XDATA          ?XD?_GET_LIGHT_VALUE?ADC
0001CBH   0001CDH   000003H   BYTE   UNIT     XDATA          ?XD?_UARTSENDSTRING?UART
0001CEH   0001D0H   000003H   BYTE   UNIT     XDATA          ?XD?_UART2_SENDSTRING?UART2
0001D1H   0001D3H   000003H   BYTE   UNIT     XDATA          ?XD?_UART2SENDDATA?UART2
0001D4H   0001D4H   000001H   BYTE   UNIT     XDATA          ?XD?ADC



OVERLAY MAP OF MODULE:   .\Objects\samartAgr (MYSYS)


FUNCTION/MODULE                       XDATA_GROUP
--> CALLED FUNCTION/MODULE            START  STOP
=================================================
TIMER0/MYSYS                          ----- -----

*** NEW ROOT ************************

UART/UART                             ----- -----

*** NEW ROOT ************************

UART2/UART2                           ----- -----

*** NEW ROOT ************************

LX51 LINKER/LOCATER V4.66.66.0                                                        10/09/2018  12:38:49  PAGE 4


?C_C51STARTUP                         ----- -----
  +--> MAIN/MAIN
  +--> ?C_INITSEG

MAIN/MAIN                             ----- -----
  +--> BSP_INIT/MAIN
  +--> MYTASK_ONE/TASKLIST
  +--> MYTASK_TWO/TASKLIST
  +--> MYTASK_THREE/TASKLIST
  +--> MYTASK_FOUR/TASKLIST
  +--> MYTASK_FIVE/TASKLIST
  +--> _AGREEMENTPARSE/AGREEMENT

BSP_INIT/MAIN                         ----- -----
  +--> UARTINIT/UART
  +--> UART2INIT/UART2
  +--> MYSYSINIT/MYSYS
  +--> ADC_INIT/ADC
  +--> LCD_INITIAL/TFT_LCD
  +--> DISPLAY_BACKGROUND/MAIN

UARTINIT/UART                         ----- -----

UART2INIT/UART2                       ----- -----

MYSYSINIT/MYSYS                       ----- -----

ADC_INIT/ADC                          ----- -----

LCD_INITIAL/TFT_LCD                   ----- -----
  +--> LCD_RESET/TFT_LCD
  +--> _LCD_WRITEINDEX/TFT_LCD
  +--> _LCD_DELAY_MS/TFT_LCD
  +--> _LCD_WRITEDATA/TFT_LCD

LCD_RESET/TFT_LCD                     ----- -----
  +--> _LCD_DELAY_MS/TFT_LCD

_LCD_DELAY_MS/TFT_LCD                 ----- -----

_LCD_WRITEINDEX/TFT_LCD               ----- -----
  +--> _SPI_WRITEDATA/TFT_LCD

_SPI_WRITEDATA/TFT_LCD                ----- -----

_LCD_WRITEDATA/TFT_LCD                0154H 0154H
  +--> _LCD_WRITEINDEX/TFT_LCD
  +--> _SPI_WRITEDATA/TFT_LCD

DISPLAY_BACKGROUND/MAIN               ----- -----
  +--> _DSP_SINGLE_COLOUR/TFT_LCD
  +--> ?CO?MAIN
  +--> _FAST_DRAWFONT_GBK16/TFT_LCD

_DSP_SINGLE_COLOUR/TFT_LCD            0107H 0108H
  +--> _LCD_SETREGION/TFT_LCD
  +--> _LCD_WRITEDATA_16BIT/TFT_LCD

_LCD_SETREGION/TFT_LCD                014CH 0153H
  +--> _LCD_WRITEDATA/TFT_LCD
  +--> _LCD_WRITEINDEX/TFT_LCD

_LCD_WRITEDATA_16BIT/TFT_LCD          014CH 014CH
  +--> _SPI_WRITEDATA/TFT_LCD

LX51 LINKER/LOCATER V4.66.66.0                                                        10/09/2018  12:38:49  PAGE 5


?CO?MAIN                              ----- -----

_FAST_DRAWFONT_GBK16/TFT_LCD          0107H 0115H
  +--> ?CO?TFT_LCD
  +--> _LCD_SETREGION/TFT_LCD
  +--> _LCD_WRITEDATA_16BIT/TFT_LCD

?CO?TFT_LCD                           ----- -----

MYTASK_ONE/TASKLIST                   0107H 010CH
  +--> _READTEMPERATURE/DS18B20
  +--> _DISPLAY_ASCII8X16_COLOR/TFT_LCD
  +--> _SEND_SENSORDATA/AGREEMENT

_READTEMPERATURE/DS18B20              010DH 010FH
  +--> INIT_DS18B20/DS18B20
  +--> _WRITEONECHAR/DS18B20
  +--> _DELAY/DS18B20
  +--> READONECHAR/DS18B20

INIT_DS18B20/DS18B20                  ----- -----
  +--> _DELAY/DS18B20

_DELAY/DS18B20                        ----- -----

_WRITEONECHAR/DS18B20                 ----- -----
  +--> _DELAY/DS18B20

READONECHAR/DS18B20                   ----- -----
  +--> _DELAY/DS18B20

_DISPLAY_ASCII8X16_COLOR/TFT_LCD      010DH 0145H
  +--> _STRLEN/STRLEN
  +--> ?CO?TFT_LCD
  +--> _PUTPIXEL/TFT_LCD

_STRLEN/STRLEN                        ----- -----

_PUTPIXEL/TFT_LCD                     0146H 014BH
  +--> _LCD_SETREGION/TFT_LCD
  +--> _LCD_WRITEDATA_16BIT/TFT_LCD

_SEND_SENSORDATA/AGREEMENT            ----- -----
  +--> _UARTSENDDATA/UART

_UARTSENDDATA/UART                    010DH 010FH
  +--> _PUTCHAR/UART

_PUTCHAR/UART                         ----- -----

MYTASK_TWO/TASKLIST                   0107H 010CH
  +--> _GET_WTL_VALUE/ADC
  +--> _DISPLAY_ASCII8X16_COLOR/TFT_LCD
  +--> _SEND_SENSORDATA/AGREEMENT

_GET_WTL_VALUE/ADC                    010DH 0111H
  +--> _ADC_GETVALUE/ADC

_ADC_GETVALUE/ADC                     ----- -----

MYTASK_THREE/TASKLIST                 ----- -----
  +--> ?CO?TASKLIST
  +--> _DISPLAY_ASCII8X16_COLOR/TFT_LCD
  +--> _SEND_SENSORDATA/AGREEMENT

LX51 LINKER/LOCATER V4.66.66.0                                                        10/09/2018  12:38:49  PAGE 6


?CO?TASKLIST                          ----- -----

MYTASK_FOUR/TASKLIST                  ----- -----
  +--> ?CO?TASKLIST
  +--> _DISPLAY_ASCII8X16_COLOR/TFT_LCD
  +--> _SEND_SENSORDATA/AGREEMENT

MYTASK_FIVE/TASKLIST                  ----- -----
  +--> _SEND_SENSORDATA/AGREEMENT

_AGREEMENTPARSE/AGREEMENT             ----- -----

?C_INITSEG                            ----- -----



PUBLIC SYMBOLS OF MODULE:  .\Objects\samartAgr (MYSYS)


      VALUE       CLASS    TYPE      PUBLIC SYMBOL NAME
      =================================================
      0200010DH   XDATA    BYTE      ?_Display_ASCII8X16_Color?BYTE
      02000107H   XDATA    BYTE      ?_Fast_DrawFont_GBK16?BYTE
      0200019DH   XDATA    BYTE      ?_Gui_DrawFont_GBK16?BYTE
      0200014CH   XDATA    BYTE      ?_Lcd_SetRegion?BYTE
      0100005FH   CODE     ---       ?C?CLDOPTR
      01000046H   CODE     ---       ?C?CLDPTR
      00000000H   NUMBER   ---       ?C?CODESEG
      0100009EH   CODE     ---       ?C?CSTOPTR
      0100008CH   CODE     ---       ?C?CSTPTR
      0100014BH   CODE     ---       ?C?IILDX
      01000161H   CODE     ---       ?C?ILDIX
      01000177H   CODE     ---       ?C?LMUL
      010002B1H   CODE     ---       ?C?LSTKXDATA
      010002A5H   CODE     ---       ?C?LSTXDATA
      010002E2H   CODE     ---       ?C?OFFXADD
      01000115H   CODE     ---       ?C?SIDIV
      010000C0H   CODE     ---       ?C?UIDIV
      01000294H   CODE     ---       ?C?ULCMP
      01000202H   CODE     ---       ?C?ULDIV
      00000000H   NUMBER   ---       ?C?XDATASEG
      01001245H   CODE     ---       ?C_START
      01000000H   CODE     ---       ?C_STARTUP
      01001630H   CODE     ---       _adc_getValue
      0100128AH   CODE     ---       _agreementParse
      010018EDH   CODE     ---       _delay
      01001845H   CODE     ---       _delay_ms
      01000AB8H   CODE     ---       _Display_ASCII8X16
      01000576H   CODE     ---       _Display_ASCII8X16_Color
      0100166AH   CODE     ---       _dsp_single_colour
      01000C50H   CODE     ---       _Fast_DrawFont_GBK16
      01000FD9H   CODE     ---       _get_Light_value
      01000F05H   CODE     ---       _get_WTL_value
      010002EEH   CODE     ---       _Gui_DrawFont_GBK16
      010017B1H   CODE     ---       _lcd_delay_ms
      010015B3H   CODE     ---       _Lcd_SetRegion
      010018ABH   CODE     ---       _Lcd_WriteData
      0100182BH   CODE     ---       _LCD_WriteData_16Bit
      010018F8H   CODE     ---       _Lcd_WriteIndex
      01000003H   CODE     ---       _Putchar
      01001481H   CODE     ---       _PutPixel
      01000DE0H   CODE     ---       _ReadTemperature
      010015F6H   CODE     ---       _Send_SensorData
      0100190BH   CODE     ---       _SendData
      0100188DH   CODE     ---       _SPI_WriteData
LX51 LINKER/LOCATER V4.66.66.0                                                        10/09/2018  12:38:49  PAGE 7


      0100000EH   CODE     ---       _STRLEN
      010016D3H   CODE     ---       _UART2_SendString
      01001733H   CODE     ---       _uart2SendData
      01001706H   CODE     ---       _uartSendData
      010016A0H   CODE     ---       _uartSendString
      010017D1H   CODE     ---       _WriteOneChar
*SFR* 000000D0H.6 DATA     BIT       AC
*SFR* 000000E0H   DATA     BYTE      ACC
*SFR* 000000BCH   DATA     BYTE      ADC_CONTR
      01001913H   CODE     ---       adc_Init
*SFR* 000000BDH   DATA     BYTE      ADC_RES
*SFR* 000000BEH   DATA     BYTE      ADC_RESL
*SFR* 0000008EH   DATA     BYTE      AUXR
*SFR* 000000A2H   DATA     BYTE      AUXR1
*SFR* 000000F0H   DATA     BYTE      B
*SFR* 000000A0H.4 DATA     BIT       bl
*SFR* 0000009CH   DATA     BYTE      BRT
      010018CDH   CODE     ---       bsp_init
      00000020H.0 BIT      BIT       busy
      00000020H.1 BIT      BIT       busy2
*SFR* 000000C8H.1 DATA     BIT       C_T2
      010017F1H   CODE     ---       clearBuf
      01001875H   CODE     ---       clearBuf2
      02000082H   XDATA    BYTE      cmd
*SFR* 000000C8H   DATA     BIT       CP_RL2
*SFR* 000000A0H   DATA     BIT       cs
*SFR* 000000D0H.7 DATA     BIT       CY
      02000188H   XDATA    ---       DataBuf
      020001BCH   XDATA    BYTE      date
      01001902H   CODE     ---       Delay1ms
      0100115EH   CODE     ---       display_background
*SFR* 00000083H   DATA     BYTE      DPH
*SFR* 00000082H   DATA     BYTE      DPL
*SFR* 000000A0H.2 DATA     BIT       DQ
*SFR* 000000A8H.7 DATA     BIT       EA
*SFR* 000000A8H.4 DATA     BIT       ES
*SFR* 000000A8H.1 DATA     BIT       ET0
*SFR* 000000A8H.3 DATA     BIT       ET1
*SFR* 000000A8H.5 DATA     BIT       ET2
*SFR* 000000A8H   DATA     BIT       EX0
*SFR* 000000A8H.2 DATA     BIT       EX1
*SFR* 000000C8H.3 DATA     BIT       EXEN2
*SFR* 000000C8H.6 DATA     BIT       EXF2
*SFR* 000000D0H.5 DATA     BIT       F0
      00000020H.2 BIT      BIT       fg
      020001B3H   XDATA    BYTE      flag_taskFive
      020001B4H   XDATA    BYTE      flag_taskFour
      020001B5H   XDATA    BYTE      flag_taskOne
      020001B2H   XDATA    BYTE      flag_taskThree
      020001B6H   XDATA    BYTE      flag_taskTwo
      02000085H   XDATA    BYTE      flag_uart2_rx
      02000000H   XDATA    BYTE      flag_uart_rx
      020001AEH   XDATA    DWORD     heartBeat
      0100191AH   CONST    ---       hz16
*SFR* 000000A8H   DATA     BYTE      IE
*SFR* 00000088H.1 DATA     BIT       IE0
*SFR* 00000088H.3 DATA     BIT       IE1
*SFR* 000000AFH   DATA     BYTE      IE2
      01001789H   CODE     ---       Init_DS18B20
*SFR* 000000B0H.2 DATA     BIT       INT0
*SFR* 000000B0H.3 DATA     BIT       INT1
*SFR* 00000080H.2 DATA     BIT       IO_LAMP
*SFR* 00000080H.1 DATA     BIT       IO_PUMP
*SFR* 00000080H.3 DATA     BIT       IO_TURB
*SFR* 000000B8H   DATA     BYTE      IP
LX51 LINKER/LOCATER V4.66.66.0                                                        10/09/2018  12:38:49  PAGE 8


*SFR* 00000088H   DATA     BIT       IT0
*SFR* 00000088H.2 DATA     BIT       IT1
      0100075EH   CODE     ---       lcd_initial
      010018DFH   CODE     ---       Lcd_Reset
      010010A9H   CODE     ---       main
      010018BAH   CODE     ---       mysysinit
      01000026H   CODE     ---       MyTask_Five
      01001569H   CODE     ---       MyTask_Four
      01001427H   CODE     ---       MyTask_One
      0100151FH   CODE     ---       MyTask_Three
      010014D0H   CODE     ---       MyTask_Two
*SFR* 000000D0H.2 DATA     BIT       OV
*SFR* 000000D0H   DATA     BIT       P
*SFR* 00000080H   DATA     BYTE      P0
*SFR* 00000090H   DATA     BYTE      P1
*SFR* 0000009DH   DATA     BYTE      P1ASF
*SFR* 000000A0H   DATA     BYTE      P2
*SFR* 000000B0H   DATA     BYTE      P3
*SFR* 00000087H   DATA     BYTE      PCON
*SFR* 000000B8H.4 DATA     BIT       PS
*SFR* 000000D0H   DATA     BYTE      PSW
*SFR* 000000B8H.1 DATA     BIT       PT0
*SFR* 000000B8H.3 DATA     BIT       PT1
*SFR* 000000B8H.5 DATA     BIT       PT2
*SFR* 000000B8H   DATA     BIT       PX0
*SFR* 000000B8H.2 DATA     BIT       PX1
*SFR* 00000098H.2 DATA     BIT       RB8
*SFR* 000000CBH   DATA     BYTE      RCAP2H
*SFR* 000000CAH   DATA     BYTE      RCAP2L
*SFR* 000000C8H.5 DATA     BIT       RCLK
*SFR* 000000B0H.7 DATA     BIT       RD
      01001760H   CODE     ---       ReadOneChar
*SFR* 00000098H.4 DATA     BIT       REN
*SFR* 000000A0H.1 DATA     BIT       reset
*SFR* 00000098H   DATA     BIT       RI
*SFR* 000000A0H.2 DATA     BIT       rs
*SFR* 000000D0H.3 DATA     BIT       RS0
*SFR* 000000D0H.4 DATA     BIT       RS1
*SFR* 000000B0H   DATA     BIT       RXD
*SFR* 0000009BH   DATA     BYTE      S2BUF
*SFR* 0000009AH   DATA     BYTE      S2CON
*SFR* 00000099H   DATA     BYTE      SBUF
*SFR* 000000A0H.5 DATA     BIT       scl
*SFR* 00000098H   DATA     BYTE      SCON
*SFR* 000000A0H.3 DATA     BIT       sda
      020001BFH   XDATA    ---       sdata
*SFR* 00000098H.7 DATA     BIT       SM0
*SFR* 00000098H.6 DATA     BIT       SM1
*SFR* 00000098H.5 DATA     BIT       SM2
      0200019AH   XDATA    BYTE      SMARTMODE
*SFR* 00000081H   DATA     BYTE      SP
      020001BAH   XDATA    WORD      svalue
*SFR* 000000B0H.4 DATA     BIT       T0
*SFR* 000000B0H.5 DATA     BIT       T1
*SFR* 00000090H   DATA     BIT       T2
*SFR* 000000C8H   DATA     BYTE      T2CON
*SFR* 00000090H.1 DATA     BIT       T2EX
*SFR* 00000098H.3 DATA     BIT       TB8
*SFR* 000000C8H.4 DATA     BIT       TCLK
*SFR* 00000088H   DATA     BYTE      TCON
      0200019BH   XDATA    BYTE      temp_threshold
      020001B7H   XDATA    BYTE      tempH
      020001B8H   XDATA    BYTE      tempL
      020001C3H   XDATA    WORD      tempvalue
*SFR* 00000088H.5 DATA     BIT       TF0
LX51 LINKER/LOCATER V4.66.66.0                                                        10/09/2018  12:38:49  PAGE 9


*SFR* 00000088H.7 DATA     BIT       TF1
*SFR* 000000C8H.7 DATA     BIT       TF2
*SFR* 0000008CH   DATA     BYTE      TH0
*SFR* 0000008DH   DATA     BYTE      TH1
*SFR* 000000CDH   DATA     BYTE      TH2
*SFR* 00000098H.1 DATA     BIT       TI
      0100090FH   CODE     ---       timer0
*SFR* 0000008AH   DATA     BYTE      TL0
*SFR* 0000008BH   DATA     BYTE      TL1
*SFR* 000000CCH   DATA     BYTE      TL2
*SFR* 00000089H   DATA     BYTE      TMOD
*SFR* 00000088H.4 DATA     BIT       TR0
*SFR* 00000088H.6 DATA     BIT       TR1
*SFR* 000000C8H.2 DATA     BIT       TR2
*SFR* 000000B0H.1 DATA     BIT       TXD
      010013C8H   CODE     ---       Uart
      01001307H   CODE     ---       Uart2
      02000086H   XDATA    ---       UART2_RX_BUF
      0100185DH   CODE     ---       Uart2Init
      02000105H   XDATA    BYTE      uart2RxCount
      02000106H   XDATA    BYTE      uart2RxSta
      02000084H   XDATA    BYTE      uart2RxTimeOut
      02000001H   XDATA    ---       UART_RX_BUF
      01001810H   CODE     ---       UartInit
      02000080H   XDATA    BYTE      uartRxCount
      02000081H   XDATA    BYTE      uartRxSta
      02000083H   XDATA    BYTE      uartRxTimeOut
      0200019CH   XDATA    BYTE      watl_threshold
      020001D4H   XDATA    BYTE      watl_value
*SFR* 000000B0H.6 DATA     BIT       WR
      020001B9H   XDATA    BYTE      xiaoshu
      020001BDH   XDATA    BYTE      xiaoshu1
      020001BEH   XDATA    BYTE      xiaoshu2
      01001B3AH   CONST    ---       Zk_ASCII8X16



SYMBOL TABLE OF MODULE:  .\Objects\samartAgr (MYSYS)

      VALUE       REP       CLASS    TYPE      SYMBOL NAME
      ====================================================
      ---         MODULE    ---      ---       MYSYS
      020001B6H   PUBLIC    XDATA    BYTE      flag_taskTwo
      020001B5H   PUBLIC    XDATA    BYTE      flag_taskOne
      020001B4H   PUBLIC    XDATA    BYTE      flag_taskFour
      020001B3H   PUBLIC    XDATA    BYTE      flag_taskFive
      020001B2H   PUBLIC    XDATA    BYTE      flag_taskThree
      020001AEH   PUBLIC    XDATA    DWORD     heartBeat
      0100090FH   PUBLIC    CODE     ---       timer0
      010018BAH   PUBLIC    CODE     ---       mysysinit
      00000080H   SFRSYM    DATA     BYTE      P0
      00000090H   SFRSYM    DATA     BYTE      P1
      000000A0H   SFRSYM    DATA     BYTE      P2
      000000B0H   SFRSYM    DATA     BYTE      P3
      000000B0H.4 SFRSYM    DATA     BIT       T0
      000000D0H.6 SFRSYM    DATA     BIT       AC
      000000B0H.5 SFRSYM    DATA     BIT       T1
      00000090H   SFRSYM    DATA     BIT       T2
      000000A8H.7 SFRSYM    DATA     BIT       EA
      000000A8H   SFRSYM    DATA     BYTE      IE
      000000C8H.6 SFRSYM    DATA     BIT       EXF2
      000000B0H.7 SFRSYM    DATA     BIT       RD
      000000A8H.4 SFRSYM    DATA     BIT       ES
      000000B8H   SFRSYM    DATA     BYTE      IP
      00000098H   SFRSYM    DATA     BIT       RI
LX51 LINKER/LOCATER V4.66.66.0                                                        10/09/2018  12:38:49  PAGE 10


      000000B0H.2 SFRSYM    DATA     BIT       INT0
      000000D0H.7 SFRSYM    DATA     BIT       CY
      00000098H.1 SFRSYM    DATA     BIT       TI
      000000B0H.3 SFRSYM    DATA     BIT       INT1
      000000CBH   SFRSYM    DATA     BYTE      RCAP2H
      000000B8H.4 SFRSYM    DATA     BIT       PS
      00000081H   SFRSYM    DATA     BYTE      SP
      00000090H.1 SFRSYM    DATA     BIT       T2EX
      000000D0H.2 SFRSYM    DATA     BIT       OV
      000000CAH   SFRSYM    DATA     BYTE      RCAP2L
      000000C8H.1 SFRSYM    DATA     BIT       C_T2
      000000B0H.6 SFRSYM    DATA     BIT       WR
      000000C8H.5 SFRSYM    DATA     BIT       RCLK
      000000C8H.4 SFRSYM    DATA     BIT       TCLK
      00000099H   SFRSYM    DATA     BYTE      SBUF
      00000087H   SFRSYM    DATA     BYTE      PCON
      00000098H   SFRSYM    DATA     BYTE      SCON
      00000089H   SFRSYM    DATA     BYTE      TMOD
      00000088H   SFRSYM    DATA     BYTE      TCON
      00000088H.1 SFRSYM    DATA     BIT       IE0
      00000088H.3 SFRSYM    DATA     BIT       IE1
      000000F0H   SFRSYM    DATA     BYTE      B
      000000C8H   SFRSYM    DATA     BIT       CP_RL2
      000000E0H   SFRSYM    DATA     BYTE      ACC
      000000A8H.1 SFRSYM    DATA     BIT       ET0
      000000A8H.3 SFRSYM    DATA     BIT       ET1
      00000088H.5 SFRSYM    DATA     BIT       TF0
      000000A8H.5 SFRSYM    DATA     BIT       ET2
      00000088H.7 SFRSYM    DATA     BIT       TF1
      000000C8H.7 SFRSYM    DATA     BIT       TF2
      00000098H.2 SFRSYM    DATA     BIT       RB8
      0000008CH   SFRSYM    DATA     BYTE      TH0
      000000A8H   SFRSYM    DATA     BIT       EX0
      00000088H   SFRSYM    DATA     BIT       IT0
      0000008DH   SFRSYM    DATA     BYTE      TH1
      00000098H.3 SFRSYM    DATA     BIT       TB8
      000000A8H.2 SFRSYM    DATA     BIT       EX1
      00000088H.2 SFRSYM    DATA     BIT       IT1
      000000CDH   SFRSYM    DATA     BYTE      TH2
      000000D0H   SFRSYM    DATA     BIT       P
      00000098H.7 SFRSYM    DATA     BIT       SM0
      0000008AH   SFRSYM    DATA     BYTE      TL0
      00000098H.6 SFRSYM    DATA     BIT       SM1
      0000008BH   SFRSYM    DATA     BYTE      TL1
      00000098H.5 SFRSYM    DATA     BIT       SM2
      000000CCH   SFRSYM    DATA     BYTE      TL2
      000000B8H.1 SFRSYM    DATA     BIT       PT0
      000000B8H.3 SFRSYM    DATA     BIT       PT1
      000000D0H.3 SFRSYM    DATA     BIT       RS0
      000000B8H.5 SFRSYM    DATA     BIT       PT2
      00000088H.4 SFRSYM    DATA     BIT       TR0
      000000D0H.4 SFRSYM    DATA     BIT       RS1
      00000088H.6 SFRSYM    DATA     BIT       TR1
      000000C8H.2 SFRSYM    DATA     BIT       TR2
      000000B8H   SFRSYM    DATA     BIT       PX0
      000000B8H.2 SFRSYM    DATA     BIT       PX1
      00000083H   SFRSYM    DATA     BYTE      DPH
      00000082H   SFRSYM    DATA     BYTE      DPL
      000000C8H.3 SFRSYM    DATA     BIT       EXEN2
      00000098H.4 SFRSYM    DATA     BIT       REN
      000000C8H   SFRSYM    DATA     BYTE      T2CON
      000000B0H   SFRSYM    DATA     BIT       RXD
      000000B0H.1 SFRSYM    DATA     BIT       TXD
      000000D0H.5 SFRSYM    DATA     BIT       F0
      000000D0H   SFRSYM    DATA     BYTE      PSW
LX51 LINKER/LOCATER V4.66.66.0                                                        10/09/2018  12:38:49  PAGE 11



      010018BAH   BLOCK     CODE     ---       LVL=0
      010018BAH   LINE      CODE     ---       #12
      010018BAH   LINE      CODE     ---       #13
      010018BAH   LINE      CODE     ---       #14
      010018BDH   LINE      CODE     ---       #15
      010018C0H   LINE      CODE     ---       #16
      010018C3H   LINE      CODE     ---       #17
      010018C6H   LINE      CODE     ---       #18
      010018C8H   LINE      CODE     ---       #19
      010018CAH   LINE      CODE     ---       #20
      010018CCH   LINE      CODE     ---       #21
      ---         BLOCKEND  ---      ---       LVL=0

      0100090FH   BLOCK     CODE     ---       LVL=0
      0100090FH   LINE      CODE     ---       #25
      0100092CH   LINE      CODE     ---       #27
      0100092FH   LINE      CODE     ---       #28
      01000932H   LINE      CODE     ---       #30
      0100096EH   LINE      CODE     ---       #31
      01000975H   LINE      CODE     ---       #33
      010009A4H   LINE      CODE     ---       #34
      010009D3H   LINE      CODE     ---       #35
      01000A02H   LINE      CODE     ---       #36
      01000A31H   LINE      CODE     ---       #37
      01000A61H   LINE      CODE     ---       #40
      01000A67H   LINE      CODE     ---       #41
      01000A67H   LINE      CODE     ---       #42
      01000A75H   LINE      CODE     ---       #44
      01000A75H   LINE      CODE     ---       #45
      01000A7AH   LINE      CODE     ---       #46
      01000A7FH   LINE      CODE     ---       #47
      01000A7FH   LINE      CODE     ---       #48
      01000A7FH   LINE      CODE     ---       #49
      01000A85H   LINE      CODE     ---       #50
      01000A85H   LINE      CODE     ---       #51
      01000A93H   LINE      CODE     ---       #53
      01000A93H   LINE      CODE     ---       #54
      01000A98H   LINE      CODE     ---       #55
      01000A9DH   LINE      CODE     ---       #56
      01000A9DH   LINE      CODE     ---       #57
      01000A9DH   LINE      CODE     ---       #58
      ---         BLOCKEND  ---      ---       LVL=0

      ---         MODULE    ---      ---       TASKLIST
      020001C3H   PUBLIC    XDATA    WORD      tempvalue
      020001BFH   PUBLIC    XDATA    ---       sdata
      01000026H   PUBLIC    CODE     ---       MyTask_Five
      01001569H   PUBLIC    CODE     ---       MyTask_Four
      0100151FH   PUBLIC    CODE     ---       MyTask_Three
      010014D0H   PUBLIC    CODE     ---       MyTask_Two
      01001427H   PUBLIC    CODE     ---       MyTask_One
      00000080H   SFRSYM    DATA     BYTE      P0
      00000090H   SFRSYM    DATA     BYTE      P1
      000000A0H   SFRSYM    DATA     BYTE      P2
      000000B0H   SFRSYM    DATA     BYTE      P3
      000000B0H.4 SFRSYM    DATA     BIT       T0
      000000D0H.6 SFRSYM    DATA     BIT       AC
      000000B0H.5 SFRSYM    DATA     BIT       T1
      00000090H   SFRSYM    DATA     BIT       T2
      000000A8H.7 SFRSYM    DATA     BIT       EA
      000000A8H   SFRSYM    DATA     BYTE      IE
      000000BDH   SFRSYM    DATA     BYTE      ADC_RES
      000000C8H.6 SFRSYM    DATA     BIT       EXF2
      000000B0H.7 SFRSYM    DATA     BIT       RD
LX51 LINKER/LOCATER V4.66.66.0                                                        10/09/2018  12:38:49  PAGE 12


      000000A8H.4 SFRSYM    DATA     BIT       ES
      000000B8H   SFRSYM    DATA     BYTE      IP
      00000098H   SFRSYM    DATA     BIT       RI
      000000B0H.2 SFRSYM    DATA     BIT       INT0
      000000D0H.7 SFRSYM    DATA     BIT       CY
      00000098H.1 SFRSYM    DATA     BIT       TI
      000000B0H.3 SFRSYM    DATA     BIT       INT1
      000000CBH   SFRSYM    DATA     BYTE      RCAP2H
      000000B8H.4 SFRSYM    DATA     BIT       PS
      00000081H   SFRSYM    DATA     BYTE      SP
      00000080H.2 SFRSYM    DATA     BIT       IO_LAMP
      00000090H.1 SFRSYM    DATA     BIT       T2EX
      000000D0H.2 SFRSYM    DATA     BIT       OV
      000000A0H.1 SFRSYM    DATA     BIT       reset
      000000CAH   SFRSYM    DATA     BYTE      RCAP2L
      000000C8H.1 SFRSYM    DATA     BIT       C_T2
      000000B0H.6 SFRSYM    DATA     BIT       WR
      000000C8H.5 SFRSYM    DATA     BIT       RCLK
      000000C8H.4 SFRSYM    DATA     BIT       TCLK
      000000BCH   SFRSYM    DATA     BYTE      ADC_CONTR
      00000099H   SFRSYM    DATA     BYTE      SBUF
      00000087H   SFRSYM    DATA     BYTE      PCON
      00000098H   SFRSYM    DATA     BYTE      SCON
      00000089H   SFRSYM    DATA     BYTE      TMOD
      00000088H   SFRSYM    DATA     BYTE      TCON
      00000080H.3 SFRSYM    DATA     BIT       IO_TURB
      000000A0H.3 SFRSYM    DATA     BIT       sda
      00000080H.1 SFRSYM    DATA     BIT       IO_PUMP
      00000088H.1 SFRSYM    DATA     BIT       IE0
      00000088H.3 SFRSYM    DATA     BIT       IE1
      000000F0H   SFRSYM    DATA     BYTE      B
      000000A0H.5 SFRSYM    DATA     BIT       scl
      000000C8H   SFRSYM    DATA     BIT       CP_RL2
      000000E0H   SFRSYM    DATA     BYTE      ACC
      000000A8H.1 SFRSYM    DATA     BIT       ET0
      000000A8H.3 SFRSYM    DATA     BIT       ET1
      00000088H.5 SFRSYM    DATA     BIT       TF0
      000000A8H.5 SFRSYM    DATA     BIT       ET2
      00000088H.7 SFRSYM    DATA     BIT       TF1
      000000C8H.7 SFRSYM    DATA     BIT       TF2
      00000098H.2 SFRSYM    DATA     BIT       RB8
      0000008CH   SFRSYM    DATA     BYTE      TH0
      000000A8H   SFRSYM    DATA     BIT       EX0
      00000088H   SFRSYM    DATA     BIT       IT0
      0000008DH   SFRSYM    DATA     BYTE      TH1
      000000A0H.4 SFRSYM    DATA     BIT       bl
      00000098H.3 SFRSYM    DATA     BIT       TB8
      000000A8H.2 SFRSYM    DATA     BIT       EX1
      00000088H.2 SFRSYM    DATA     BIT       IT1
      000000CDH   SFRSYM    DATA     BYTE      TH2
      000000D0H   SFRSYM    DATA     BIT       P
      00000098H.7 SFRSYM    DATA     BIT       SM0
      0000008AH   SFRSYM    DATA     BYTE      TL0
      00000098H.6 SFRSYM    DATA     BIT       SM1
      0000008BH   SFRSYM    DATA     BYTE      TL1
      00000098H.5 SFRSYM    DATA     BIT       SM2
      000000CCH   SFRSYM    DATA     BYTE      TL2
      000000B8H.1 SFRSYM    DATA     BIT       PT0
      000000B8H.3 SFRSYM    DATA     BIT       PT1
      000000D0H.3 SFRSYM    DATA     BIT       RS0
      000000A0H   SFRSYM    DATA     BIT       cs
      000000B8H.5 SFRSYM    DATA     BIT       PT2
      00000088H.4 SFRSYM    DATA     BIT       TR0
      000000D0H.4 SFRSYM    DATA     BIT       RS1
      00000088H.6 SFRSYM    DATA     BIT       TR1
LX51 LINKER/LOCATER V4.66.66.0                                                        10/09/2018  12:38:49  PAGE 13


      000000C8H.2 SFRSYM    DATA     BIT       TR2
      000000B8H   SFRSYM    DATA     BIT       PX0
      000000B8H.2 SFRSYM    DATA     BIT       PX1
      0000009DH   SFRSYM    DATA     BYTE      P1ASF
      00000083H   SFRSYM    DATA     BYTE      DPH
      000000BEH   SFRSYM    DATA     BYTE      ADC_RESL
      00000082H   SFRSYM    DATA     BYTE      DPL
      000000C8H.3 SFRSYM    DATA     BIT       EXEN2
      000000A0H.2 SFRSYM    DATA     BIT       rs
      00000098H.4 SFRSYM    DATA     BIT       REN
      000000C8H   SFRSYM    DATA     BYTE      T2CON
      000000B0H   SFRSYM    DATA     BIT       RXD
      000000B0H.1 SFRSYM    DATA     BIT       TXD
      000000D0H.5 SFRSYM    DATA     BIT       F0
      000000D0H   SFRSYM    DATA     BYTE      PSW

      01001427H   BLOCK     CODE     ---       LVL=0
      01001427H   BLOCK     CODE     NEAR LAB  LVL=1
      02000107H   SYMBOL    XDATA    ---       tempstr
      ---         BLOCKEND  ---      ---       LVL=1
      01001427H   LINE      CODE     ---       #11
      01001427H   LINE      CODE     ---       #12
      01001427H   LINE      CODE     ---       #15
      01001438H   LINE      CODE     ---       #16
      01001458H   LINE      CODE     ---       #18
      0100145DH   LINE      CODE     ---       #19
      0100145FH   LINE      CODE     ---       #20
      0100146CH   LINE      CODE     ---       #21
      0100146FH   LINE      CODE     ---       #22
      ---         BLOCKEND  ---      ---       LVL=0

      010014D0H   BLOCK     CODE     ---       LVL=0
      010014D0H   BLOCK     CODE     NEAR LAB  LVL=1
      02000107H   SYMBOL    XDATA    ---       str
      0200010CH   SYMBOL    XDATA    BYTE      waterl
      ---         BLOCKEND  ---      ---       LVL=1
      010014D0H   LINE      CODE     ---       #25
      010014D0H   LINE      CODE     ---       #26
      010014D0H   LINE      CODE     ---       #30
      010014DEH   LINE      CODE     ---       #31
      010014FEH   LINE      CODE     ---       #33
      01001503H   LINE      CODE     ---       #34
      01001505H   LINE      CODE     ---       #35
      0100150FH   LINE      CODE     ---       #36
      01001512H   LINE      CODE     ---       #37
      ---         BLOCKEND  ---      ---       LVL=0

      0100151FH   BLOCK     CODE     ---       LVL=0
      0100151FH   LINE      CODE     ---       #39
      0100151FH   LINE      CODE     ---       #40
      0100151FH   LINE      CODE     ---       #41
      01001532H   LINE      CODE     ---       #42
      0100154EH   LINE      CODE     ---       #43
      01001553H   LINE      CODE     ---       #44
      01001555H   LINE      CODE     ---       #45
      01001557H   LINE      CODE     ---       #46
      0100155CH   LINE      CODE     ---       #47
      ---         BLOCKEND  ---      ---       LVL=0

      01001569H   BLOCK     CODE     ---       LVL=0
      01001569H   LINE      CODE     ---       #50
      01001569H   LINE      CODE     ---       #51
      01001569H   LINE      CODE     ---       #52
      0100157CH   LINE      CODE     ---       #53
      01001598H   LINE      CODE     ---       #54
LX51 LINKER/LOCATER V4.66.66.0                                                        10/09/2018  12:38:49  PAGE 14


      0100159DH   LINE      CODE     ---       #55
      0100159FH   LINE      CODE     ---       #56
      010015A1H   LINE      CODE     ---       #57
      010015A6H   LINE      CODE     ---       #58
      ---         BLOCKEND  ---      ---       LVL=0

      01000026H   BLOCK     CODE     ---       LVL=0
      01000026H   LINE      CODE     ---       #61
      01000026H   LINE      CODE     ---       #62
      01000026H   LINE      CODE     ---       #65
      0100002BH   LINE      CODE     ---       #66
      0100002DH   LINE      CODE     ---       #67
      0100002FH   LINE      CODE     ---       #68
      01000034H   LINE      CODE     ---       #69
      ---         BLOCKEND  ---      ---       LVL=0

      ---         MODULE    ---      ---       AGREEMENT
      0200019CH   PUBLIC    XDATA    BYTE      watl_threshold
      0200019BH   PUBLIC    XDATA    BYTE      temp_threshold
      0200019AH   PUBLIC    XDATA    BYTE      SMARTMODE
      02000188H   PUBLIC    XDATA    ---       DataBuf
      0100128AH   PUBLIC    CODE     ---       _agreementParse
      010015F6H   PUBLIC    CODE     ---       _Send_SensorData
      00000080H   SFRSYM    DATA     BYTE      P0
      00000090H   SFRSYM    DATA     BYTE      P1
      000000A0H   SFRSYM    DATA     BYTE      P2
      000000B0H   SFRSYM    DATA     BYTE      P3
      000000B0H.4 SFRSYM    DATA     BIT       T0
      000000D0H.6 SFRSYM    DATA     BIT       AC
      000000B0H.5 SFRSYM    DATA     BIT       T1
      00000090H   SFRSYM    DATA     BIT       T2
      000000A8H.7 SFRSYM    DATA     BIT       EA
      000000A8H   SFRSYM    DATA     BYTE      IE
      000000C8H.6 SFRSYM    DATA     BIT       EXF2
      000000B0H.7 SFRSYM    DATA     BIT       RD
      000000A8H.4 SFRSYM    DATA     BIT       ES
      000000B8H   SFRSYM    DATA     BYTE      IP
      00000098H   SFRSYM    DATA     BIT       RI
      000000B0H.2 SFRSYM    DATA     BIT       INT0
      000000D0H.7 SFRSYM    DATA     BIT       CY
      00000098H.1 SFRSYM    DATA     BIT       TI
      000000B0H.3 SFRSYM    DATA     BIT       INT1
      000000CBH   SFRSYM    DATA     BYTE      RCAP2H
      000000B8H.4 SFRSYM    DATA     BIT       PS
      00000081H   SFRSYM    DATA     BYTE      SP
      00000080H.2 SFRSYM    DATA     BIT       IO_LAMP
      00000090H.1 SFRSYM    DATA     BIT       T2EX
      000000D0H.2 SFRSYM    DATA     BIT       OV
      000000CAH   SFRSYM    DATA     BYTE      RCAP2L
      000000C8H.1 SFRSYM    DATA     BIT       C_T2
      000000B0H.6 SFRSYM    DATA     BIT       WR
      000000C8H.5 SFRSYM    DATA     BIT       RCLK
      000000C8H.4 SFRSYM    DATA     BIT       TCLK
      00000099H   SFRSYM    DATA     BYTE      SBUF
      00000087H   SFRSYM    DATA     BYTE      PCON
      00000098H   SFRSYM    DATA     BYTE      SCON
      00000089H   SFRSYM    DATA     BYTE      TMOD
      00000088H   SFRSYM    DATA     BYTE      TCON
      00000080H.3 SFRSYM    DATA     BIT       IO_TURB
      00000080H.1 SFRSYM    DATA     BIT       IO_PUMP
      00000088H.1 SFRSYM    DATA     BIT       IE0
      00000088H.3 SFRSYM    DATA     BIT       IE1
      000000F0H   SFRSYM    DATA     BYTE      B
      000000C8H   SFRSYM    DATA     BIT       CP_RL2
      000000E0H   SFRSYM    DATA     BYTE      ACC
LX51 LINKER/LOCATER V4.66.66.0                                                        10/09/2018  12:38:49  PAGE 15


      000000A8H.1 SFRSYM    DATA     BIT       ET0
      000000A8H.3 SFRSYM    DATA     BIT       ET1
      00000088H.5 SFRSYM    DATA     BIT       TF0
      000000A8H.5 SFRSYM    DATA     BIT       ET2
      00000088H.7 SFRSYM    DATA     BIT       TF1
      000000C8H.7 SFRSYM    DATA     BIT       TF2
      00000098H.2 SFRSYM    DATA     BIT       RB8
      0000008CH   SFRSYM    DATA     BYTE      TH0
      000000A8H   SFRSYM    DATA     BIT       EX0
      00000088H   SFRSYM    DATA     BIT       IT0
      0000008DH   SFRSYM    DATA     BYTE      TH1
      00000098H.3 SFRSYM    DATA     BIT       TB8
      000000A8H.2 SFRSYM    DATA     BIT       EX1
      00000088H.2 SFRSYM    DATA     BIT       IT1
      000000CDH   SFRSYM    DATA     BYTE      TH2
      000000D0H   SFRSYM    DATA     BIT       P
      00000098H.7 SFRSYM    DATA     BIT       SM0
      0000008AH   SFRSYM    DATA     BYTE      TL0
      00000098H.6 SFRSYM    DATA     BIT       SM1
      0000008BH   SFRSYM    DATA     BYTE      TL1
      00000098H.5 SFRSYM    DATA     BIT       SM2
      000000CCH   SFRSYM    DATA     BYTE      TL2
      000000B8H.1 SFRSYM    DATA     BIT       PT0
      000000B8H.3 SFRSYM    DATA     BIT       PT1
      000000D0H.3 SFRSYM    DATA     BIT       RS0
      000000B8H.5 SFRSYM    DATA     BIT       PT2
      00000088H.4 SFRSYM    DATA     BIT       TR0
      000000D0H.4 SFRSYM    DATA     BIT       RS1
      00000088H.6 SFRSYM    DATA     BIT       TR1
      000000C8H.2 SFRSYM    DATA     BIT       TR2
      000000B8H   SFRSYM    DATA     BIT       PX0
      000000B8H.2 SFRSYM    DATA     BIT       PX1
      00000083H   SFRSYM    DATA     BYTE      DPH
      00000082H   SFRSYM    DATA     BYTE      DPL
      000000C8H.3 SFRSYM    DATA     BIT       EXEN2
      00000098H.4 SFRSYM    DATA     BIT       REN
      000000C8H   SFRSYM    DATA     BYTE      T2CON
      000000B0H   SFRSYM    DATA     BIT       RXD
      000000B0H.1 SFRSYM    DATA     BIT       TXD
      000000D0H.5 SFRSYM    DATA     BIT       F0
      000000D0H   SFRSYM    DATA     BYTE      PSW

      010015F6H   BLOCK     CODE     ---       LVL=0
      00000007H   SYMBOL    DATA     BYTE      _SensorType
      00000005H   SYMBOL    DATA     BYTE      _SenserIndex
      00000001H   SYMBOL    DATA     ---       _pData
      010015F6H   LINE      CODE     ---       #12
      010015F6H   LINE      CODE     ---       #13
      010015F6H   LINE      CODE     ---       #14
      010015FBH   LINE      CODE     ---       #15
      01001602H   LINE      CODE     ---       #16
      0100160CH   LINE      CODE     ---       #17
      01001616H   LINE      CODE     ---       #18
      01001620H   LINE      CODE     ---       #19
      01001625H   LINE      CODE     ---       #21
      ---         BLOCKEND  ---      ---       LVL=0

      0100128AH   BLOCK     CODE     ---       LVL=0
      00000001H   SYMBOL    DATA     ---       str
      0100128AH   LINE      CODE     ---       #24
      0100128AH   LINE      CODE     ---       #25
      0100128AH   LINE      CODE     ---       #26
      010012A4H   LINE      CODE     ---       #27
      010012A4H   LINE      CODE     ---       #28
      010012AEH   LINE      CODE     ---       #29
LX51 LINKER/LOCATER V4.66.66.0                                                        10/09/2018  12:38:49  PAGE 16


      010012AEH   LINE      CODE     ---       #30
      010012B8H   LINE      CODE     ---       #31
      010012C2H   LINE      CODE     ---       #32
      010012CCH   LINE      CODE     ---       #33
      010012CCH   LINE      CODE     ---       #35
      010012D1H   LINE      CODE     ---       #36
      010012D1H   LINE      CODE     ---       #37
      010012DFH   LINE      CODE     ---       #38
      010012DFH   LINE      CODE     ---       #39
      010012DFH   LINE      CODE     ---       #40
      010012EBH   LINE      CODE     ---       #41
      010012EDH   LINE      CODE     ---       #42
      010012F0H   LINE      CODE     ---       #43
      010012F2H   LINE      CODE     ---       #44
      010012F2H   LINE      CODE     ---       #45
      010012FEH   LINE      CODE     ---       #46
      01001300H   LINE      CODE     ---       #47
      01001306H   LINE      CODE     ---       #48
      01001306H   LINE      CODE     ---       #49
      01001306H   LINE      CODE     ---       #50
      01001306H   LINE      CODE     ---       #51
      01001306H   LINE      CODE     ---       #52
      01001306H   LINE      CODE     ---       #53
      01001306H   LINE      CODE     ---       #54
      ---         BLOCKEND  ---      ---       LVL=0

      ---         MODULE    ---      ---       IO
      00000080H   SFRSYM    DATA     BYTE      P0
      00000090H   SFRSYM    DATA     BYTE      P1
      000000A0H   SFRSYM    DATA     BYTE      P2
      000000B0H   SFRSYM    DATA     BYTE      P3
      000000B0H.4 SFRSYM    DATA     BIT       T0
      000000D0H.6 SFRSYM    DATA     BIT       AC
      000000B0H.5 SFRSYM    DATA     BIT       T1
      00000090H   SFRSYM    DATA     BIT       T2
      000000A8H.7 SFRSYM    DATA     BIT       EA
      000000A8H   SFRSYM    DATA     BYTE      IE
      000000C8H.6 SFRSYM    DATA     BIT       EXF2
      000000B0H.7 SFRSYM    DATA     BIT       RD
      000000A8H.4 SFRSYM    DATA     BIT       ES
      000000B8H   SFRSYM    DATA     BYTE      IP
      00000098H   SFRSYM    DATA     BIT       RI
      000000B0H.2 SFRSYM    DATA     BIT       INT0
      000000D0H.7 SFRSYM    DATA     BIT       CY
      00000098H.1 SFRSYM    DATA     BIT       TI
      000000B0H.3 SFRSYM    DATA     BIT       INT1
      000000CBH   SFRSYM    DATA     BYTE      RCAP2H
      000000B8H.4 SFRSYM    DATA     BIT       PS
      00000081H   SFRSYM    DATA     BYTE      SP
      00000080H.2 SFRSYM    DATA     BIT       IO_LAMP
      00000090H.1 SFRSYM    DATA     BIT       T2EX
      000000D0H.2 SFRSYM    DATA     BIT       OV
      000000CAH   SFRSYM    DATA     BYTE      RCAP2L
      000000C8H.1 SFRSYM    DATA     BIT       C_T2
      000000B0H.6 SFRSYM    DATA     BIT       WR
      000000C8H.5 SFRSYM    DATA     BIT       RCLK
      000000C8H.4 SFRSYM    DATA     BIT       TCLK
      00000099H   SFRSYM    DATA     BYTE      SBUF
      00000087H   SFRSYM    DATA     BYTE      PCON
      00000098H   SFRSYM    DATA     BYTE      SCON
      00000089H   SFRSYM    DATA     BYTE      TMOD
      00000088H   SFRSYM    DATA     BYTE      TCON
      00000080H.3 SFRSYM    DATA     BIT       IO_TURB
      00000080H.1 SFRSYM    DATA     BIT       IO_PUMP
      00000088H.1 SFRSYM    DATA     BIT       IE0
LX51 LINKER/LOCATER V4.66.66.0                                                        10/09/2018  12:38:49  PAGE 17


      00000088H.3 SFRSYM    DATA     BIT       IE1
      000000F0H   SFRSYM    DATA     BYTE      B
      000000C8H   SFRSYM    DATA     BIT       CP_RL2
      000000E0H   SFRSYM    DATA     BYTE      ACC
      000000A8H.1 SFRSYM    DATA     BIT       ET0
      000000A8H.3 SFRSYM    DATA     BIT       ET1
      00000088H.5 SFRSYM    DATA     BIT       TF0
      000000A8H.5 SFRSYM    DATA     BIT       ET2
      00000088H.7 SFRSYM    DATA     BIT       TF1
      000000C8H.7 SFRSYM    DATA     BIT       TF2
      00000098H.2 SFRSYM    DATA     BIT       RB8
      0000008CH   SFRSYM    DATA     BYTE      TH0
      000000A8H   SFRSYM    DATA     BIT       EX0
      00000088H   SFRSYM    DATA     BIT       IT0
      0000008DH   SFRSYM    DATA     BYTE      TH1
      00000098H.3 SFRSYM    DATA     BIT       TB8
      000000A8H.2 SFRSYM    DATA     BIT       EX1
      00000088H.2 SFRSYM    DATA     BIT       IT1
      000000CDH   SFRSYM    DATA     BYTE      TH2
      000000D0H   SFRSYM    DATA     BIT       P
      00000098H.7 SFRSYM    DATA     BIT       SM0
      0000008AH   SFRSYM    DATA     BYTE      TL0
      00000098H.6 SFRSYM    DATA     BIT       SM1
      0000008BH   SFRSYM    DATA     BYTE      TL1
      00000098H.5 SFRSYM    DATA     BIT       SM2
      000000CCH   SFRSYM    DATA     BYTE      TL2
      000000B8H.1 SFRSYM    DATA     BIT       PT0
      000000B8H.3 SFRSYM    DATA     BIT       PT1
      000000D0H.3 SFRSYM    DATA     BIT       RS0
      000000B8H.5 SFRSYM    DATA     BIT       PT2
      00000088H.4 SFRSYM    DATA     BIT       TR0
      000000D0H.4 SFRSYM    DATA     BIT       RS1
      00000088H.6 SFRSYM    DATA     BIT       TR1
      000000C8H.2 SFRSYM    DATA     BIT       TR2
      000000B8H   SFRSYM    DATA     BIT       PX0
      000000B8H.2 SFRSYM    DATA     BIT       PX1
      00000083H   SFRSYM    DATA     BYTE      DPH
      00000082H   SFRSYM    DATA     BYTE      DPL
      000000C8H.3 SFRSYM    DATA     BIT       EXEN2
      00000098H.4 SFRSYM    DATA     BIT       REN
      000000C8H   SFRSYM    DATA     BYTE      T2CON
      000000B0H   SFRSYM    DATA     BIT       RXD
      000000B0H.1 SFRSYM    DATA     BIT       TXD
      000000D0H.5 SFRSYM    DATA     BIT       F0
      000000D0H   SFRSYM    DATA     BYTE      PSW

      ---         MODULE    ---      ---       DELAY
      01001845H   PUBLIC    CODE     ---       _delay_ms
      01001902H   PUBLIC    CODE     ---       Delay1ms
      00000080H   SFRSYM    DATA     BYTE      P0
      00000090H   SFRSYM    DATA     BYTE      P1
      000000A0H   SFRSYM    DATA     BYTE      P2
      000000B0H   SFRSYM    DATA     BYTE      P3
      000000B0H.4 SFRSYM    DATA     BIT       T0
      000000D0H.6 SFRSYM    DATA     BIT       AC
      000000B0H.5 SFRSYM    DATA     BIT       T1
      00000090H   SFRSYM    DATA     BIT       T2
      000000A8H.7 SFRSYM    DATA     BIT       EA
      000000A8H   SFRSYM    DATA     BYTE      IE
      000000C8H.6 SFRSYM    DATA     BIT       EXF2
      000000B0H.7 SFRSYM    DATA     BIT       RD
      000000A8H.4 SFRSYM    DATA     BIT       ES
      000000B8H   SFRSYM    DATA     BYTE      IP
      00000098H   SFRSYM    DATA     BIT       RI
      000000B0H.2 SFRSYM    DATA     BIT       INT0
LX51 LINKER/LOCATER V4.66.66.0                                                        10/09/2018  12:38:49  PAGE 18


      000000D0H.7 SFRSYM    DATA     BIT       CY
      00000098H.1 SFRSYM    DATA     BIT       TI
      000000B0H.3 SFRSYM    DATA     BIT       INT1
      000000CBH   SFRSYM    DATA     BYTE      RCAP2H
      000000B8H.4 SFRSYM    DATA     BIT       PS
      00000081H   SFRSYM    DATA     BYTE      SP
      00000090H.1 SFRSYM    DATA     BIT       T2EX
      000000D0H.2 SFRSYM    DATA     BIT       OV
      000000CAH   SFRSYM    DATA     BYTE      RCAP2L
      000000C8H.1 SFRSYM    DATA     BIT       C_T2
      000000B0H.6 SFRSYM    DATA     BIT       WR
      000000C8H.5 SFRSYM    DATA     BIT       RCLK
      000000C8H.4 SFRSYM    DATA     BIT       TCLK
      00000099H   SFRSYM    DATA     BYTE      SBUF
      00000087H   SFRSYM    DATA     BYTE      PCON
      00000098H   SFRSYM    DATA     BYTE      SCON
      00000089H   SFRSYM    DATA     BYTE      TMOD
      00000088H   SFRSYM    DATA     BYTE      TCON
      00000088H.1 SFRSYM    DATA     BIT       IE0
      00000088H.3 SFRSYM    DATA     BIT       IE1
      000000F0H   SFRSYM    DATA     BYTE      B
      000000C8H   SFRSYM    DATA     BIT       CP_RL2
      000000E0H   SFRSYM    DATA     BYTE      ACC
      000000A8H.1 SFRSYM    DATA     BIT       ET0
      000000A8H.3 SFRSYM    DATA     BIT       ET1
      00000088H.5 SFRSYM    DATA     BIT       TF0
      000000A8H.5 SFRSYM    DATA     BIT       ET2
      00000088H.7 SFRSYM    DATA     BIT       TF1
      000000C8H.7 SFRSYM    DATA     BIT       TF2
      00000098H.2 SFRSYM    DATA     BIT       RB8
      0000008CH   SFRSYM    DATA     BYTE      TH0
      000000A8H   SFRSYM    DATA     BIT       EX0
      00000088H   SFRSYM    DATA     BIT       IT0
      0000008DH   SFRSYM    DATA     BYTE      TH1
      00000098H.3 SFRSYM    DATA     BIT       TB8
      000000A8H.2 SFRSYM    DATA     BIT       EX1
      00000088H.2 SFRSYM    DATA     BIT       IT1
      000000CDH   SFRSYM    DATA     BYTE      TH2
      000000D0H   SFRSYM    DATA     BIT       P
      00000098H.7 SFRSYM    DATA     BIT       SM0
      0000008AH   SFRSYM    DATA     BYTE      TL0
      00000098H.6 SFRSYM    DATA     BIT       SM1
      0000008BH   SFRSYM    DATA     BYTE      TL1
      00000098H.5 SFRSYM    DATA     BIT       SM2
      000000CCH   SFRSYM    DATA     BYTE      TL2
      000000B8H.1 SFRSYM    DATA     BIT       PT0
      000000B8H.3 SFRSYM    DATA     BIT       PT1
      000000D0H.3 SFRSYM    DATA     BIT       RS0
      000000B8H.5 SFRSYM    DATA     BIT       PT2
      00000088H.4 SFRSYM    DATA     BIT       TR0
      000000D0H.4 SFRSYM    DATA     BIT       RS1
      00000088H.6 SFRSYM    DATA     BIT       TR1
      000000C8H.2 SFRSYM    DATA     BIT       TR2
      000000B8H   SFRSYM    DATA     BIT       PX0
      000000B8H.2 SFRSYM    DATA     BIT       PX1
      00000083H   SFRSYM    DATA     BYTE      DPH
      00000082H   SFRSYM    DATA     BYTE      DPL
      000000C8H.3 SFRSYM    DATA     BIT       EXEN2
      00000098H.4 SFRSYM    DATA     BIT       REN
      000000C8H   SFRSYM    DATA     BYTE      T2CON
      000000B0H   SFRSYM    DATA     BIT       RXD
      000000B0H.1 SFRSYM    DATA     BIT       TXD
      000000D0H.5 SFRSYM    DATA     BIT       F0
      000000D0H   SFRSYM    DATA     BYTE      PSW

LX51 LINKER/LOCATER V4.66.66.0                                                        10/09/2018  12:38:49  PAGE 19


      01001902H   BLOCK     CODE     ---       LVL=0
      01001902H   BLOCK     CODE     NEAR LAB  LVL=1
      00000007H   SYMBOL    DATA     BYTE      i
      00000006H   SYMBOL    DATA     BYTE      j
      ---         BLOCKEND  ---      ---       LVL=1
      01001902H   LINE      CODE     ---       #3
      01001902H   LINE      CODE     ---       #4
      01001902H   LINE      CODE     ---       #7
      01001904H   LINE      CODE     ---       #8
      01001906H   LINE      CODE     ---       #10
      01001906H   LINE      CODE     ---       #11
      01001908H   LINE      CODE     ---       #12
      0100190AH   LINE      CODE     ---       #13
      ---         BLOCKEND  ---      ---       LVL=0

      01001845H   BLOCK     CODE     ---       LVL=0
      00000006H   SYMBOL    DATA     WORD      ms
      01001845H   BLOCK     CODE     NEAR LAB  LVL=1
      00000004H   SYMBOL    DATA     WORD      i
      ---         BLOCKEND  ---      ---       LVL=1
      01001845H   LINE      CODE     ---       #15
      01001845H   LINE      CODE     ---       #16
      01001845H   LINE      CODE     ---       #18
      01001852H   LINE      CODE     ---       #19
      0100185CH   LINE      CODE     ---       #20
      ---         BLOCKEND  ---      ---       LVL=0

      ---         MODULE    ---      ---       UART
      02000083H   PUBLIC    XDATA    BYTE      uartRxTimeOut
      00000020H.0 PUBLIC    BIT      BIT       busy
      02000082H   PUBLIC    XDATA    BYTE      cmd
      02000081H   PUBLIC    XDATA    BYTE      uartRxSta
      02000080H   PUBLIC    XDATA    BYTE      uartRxCount
      02000001H   PUBLIC    XDATA    ---       UART_RX_BUF
      02000000H   PUBLIC    XDATA    BYTE      flag_uart_rx
      010017F1H   PUBLIC    CODE     ---       clearBuf
      01001706H   PUBLIC    CODE     ---       _uartSendData
      010016A0H   PUBLIC    CODE     ---       _uartSendString
      01000003H   PUBLIC    CODE     ---       _Putchar
      010013C8H   PUBLIC    CODE     ---       Uart
      01001810H   PUBLIC    CODE     ---       UartInit
      00000080H   SFRSYM    DATA     BYTE      P0
      00000090H   SFRSYM    DATA     BYTE      P1
      000000A0H   SFRSYM    DATA     BYTE      P2
      000000B0H   SFRSYM    DATA     BYTE      P3
      000000B0H.4 SFRSYM    DATA     BIT       T0
      000000D0H.6 SFRSYM    DATA     BIT       AC
      000000B0H.5 SFRSYM    DATA     BIT       T1
      00000090H   SFRSYM    DATA     BIT       T2
      000000A8H.7 SFRSYM    DATA     BIT       EA
      000000A8H   SFRSYM    DATA     BYTE      IE
      000000C8H.6 SFRSYM    DATA     BIT       EXF2
      000000B0H.7 SFRSYM    DATA     BIT       RD
      000000A8H.4 SFRSYM    DATA     BIT       ES
      000000B8H   SFRSYM    DATA     BYTE      IP
      00000098H   SFRSYM    DATA     BIT       RI
      000000B0H.2 SFRSYM    DATA     BIT       INT0
      000000D0H.7 SFRSYM    DATA     BIT       CY
      00000098H.1 SFRSYM    DATA     BIT       TI
      000000B0H.3 SFRSYM    DATA     BIT       INT1
      000000CBH   SFRSYM    DATA     BYTE      RCAP2H
      000000B8H.4 SFRSYM    DATA     BIT       PS
      00000081H   SFRSYM    DATA     BYTE      SP
      00000090H.1 SFRSYM    DATA     BIT       T2EX
      000000D0H.2 SFRSYM    DATA     BIT       OV
LX51 LINKER/LOCATER V4.66.66.0                                                        10/09/2018  12:38:49  PAGE 20


      000000CAH   SFRSYM    DATA     BYTE      RCAP2L
      000000C8H.1 SFRSYM    DATA     BIT       C_T2
      000000B0H.6 SFRSYM    DATA     BIT       WR
      000000C8H.5 SFRSYM    DATA     BIT       RCLK
      000000C8H.4 SFRSYM    DATA     BIT       TCLK
      00000099H   SFRSYM    DATA     BYTE      SBUF
      00000087H   SFRSYM    DATA     BYTE      PCON
      00000098H   SFRSYM    DATA     BYTE      SCON
      00000089H   SFRSYM    DATA     BYTE      TMOD
      00000088H   SFRSYM    DATA     BYTE      TCON
      00000088H.1 SFRSYM    DATA     BIT       IE0
      00000088H.3 SFRSYM    DATA     BIT       IE1
      000000F0H   SFRSYM    DATA     BYTE      B
      000000C8H   SFRSYM    DATA     BIT       CP_RL2
      000000E0H   SFRSYM    DATA     BYTE      ACC
      000000A8H.1 SFRSYM    DATA     BIT       ET0
      000000A8H.3 SFRSYM    DATA     BIT       ET1
      00000088H.5 SFRSYM    DATA     BIT       TF0
      000000A8H.5 SFRSYM    DATA     BIT       ET2
      00000088H.7 SFRSYM    DATA     BIT       TF1
      000000C8H.7 SFRSYM    DATA     BIT       TF2
      00000098H.2 SFRSYM    DATA     BIT       RB8
      0000008CH   SFRSYM    DATA     BYTE      TH0
      000000A8H   SFRSYM    DATA     BIT       EX0
      00000088H   SFRSYM    DATA     BIT       IT0
      0000008DH   SFRSYM    DATA     BYTE      TH1
      00000098H.3 SFRSYM    DATA     BIT       TB8
      000000A8H.2 SFRSYM    DATA     BIT       EX1
      00000088H.2 SFRSYM    DATA     BIT       IT1
      000000CDH   SFRSYM    DATA     BYTE      TH2
      000000D0H   SFRSYM    DATA     BIT       P
      00000098H.7 SFRSYM    DATA     BIT       SM0
      0000008AH   SFRSYM    DATA     BYTE      TL0
      00000098H.6 SFRSYM    DATA     BIT       SM1
      0000008BH   SFRSYM    DATA     BYTE      TL1
      00000098H.5 SFRSYM    DATA     BIT       SM2
      000000CCH   SFRSYM    DATA     BYTE      TL2
      000000B8H.1 SFRSYM    DATA     BIT       PT0
      000000B8H.3 SFRSYM    DATA     BIT       PT1
      000000D0H.3 SFRSYM    DATA     BIT       RS0
      000000B8H.5 SFRSYM    DATA     BIT       PT2
      00000088H.4 SFRSYM    DATA     BIT       TR0
      000000D0H.4 SFRSYM    DATA     BIT       RS1
      00000088H.6 SFRSYM    DATA     BIT       TR1
      000000C8H.2 SFRSYM    DATA     BIT       TR2
      000000B8H   SFRSYM    DATA     BIT       PX0
      000000B8H.2 SFRSYM    DATA     BIT       PX1
      00000083H   SFRSYM    DATA     BYTE      DPH
      00000082H   SFRSYM    DATA     BYTE      DPL
      000000C8H.3 SFRSYM    DATA     BIT       EXEN2
      00000098H.4 SFRSYM    DATA     BIT       REN
      000000C8H   SFRSYM    DATA     BYTE      T2CON
      000000B0H   SFRSYM    DATA     BIT       RXD
      000000B0H.1 SFRSYM    DATA     BIT       TXD
      000000D0H.5 SFRSYM    DATA     BIT       F0
      000000D0H   SFRSYM    DATA     BYTE      PSW

      01001810H   BLOCK     CODE     ---       LVL=0
      01001810H   LINE      CODE     ---       #12
      01001810H   LINE      CODE     ---       #13
      01001810H   LINE      CODE     ---       #14
      01001813H   LINE      CODE     ---       #15
      01001816H   LINE      CODE     ---       #16
      01001819H   LINE      CODE     ---       #17
      0100181CH   LINE      CODE     ---       #18
LX51 LINKER/LOCATER V4.66.66.0                                                        10/09/2018  12:38:49  PAGE 21


      0100181FH   LINE      CODE     ---       #19
      01001822H   LINE      CODE     ---       #20
      01001824H   LINE      CODE     ---       #21
      01001826H   LINE      CODE     ---       #22
      01001828H   LINE      CODE     ---       #23
      0100182AH   LINE      CODE     ---       #24
      ---         BLOCKEND  ---      ---       LVL=0

      010013C8H   BLOCK     CODE     ---       LVL=0
      010013C8H   LINE      CODE     ---       #29
      010013D5H   LINE      CODE     ---       #31
      010013D8H   LINE      CODE     ---       #32
      010013D8H   LINE      CODE     ---       #33
      010013DAH   LINE      CODE     ---       #34
      010013E5H   LINE      CODE     ---       #35
      010013EEH   LINE      CODE     ---       #36
      010013EEH   LINE      CODE     ---       #37
      010013F4H   LINE      CODE     ---       #38
      01001408H   LINE      CODE     ---       #39
      0100140AH   LINE      CODE     ---       #40
      01001410H   LINE      CODE     ---       #41
      01001415H   LINE      CODE     ---       #42
      01001415H   LINE      CODE     ---       #43
      01001415H   LINE      CODE     ---       #44
      01001418H   LINE      CODE     ---       #45
      01001418H   LINE      CODE     ---       #46
      0100141AH   LINE      CODE     ---       #47
      0100141CH   LINE      CODE     ---       #48
      0100141CH   LINE      CODE     ---       #49
      ---         BLOCKEND  ---      ---       LVL=0

      01000003H   BLOCK     CODE     ---       LVL=0
      00000007H   SYMBOL    DATA     CHAR      dat
      01000003H   LINE      CODE     ---       #55
      01000003H   LINE      CODE     ---       #56
      01000003H   LINE      CODE     ---       #57
      01000005H   LINE      CODE     ---       #58
      01000007H   LINE      CODE     ---       #59
      0100000AH   LINE      CODE     ---       #60
      ---         BLOCKEND  ---      ---       LVL=0

      010016A0H   BLOCK     CODE     ---       LVL=0
      020001CBH   SYMBOL    XDATA    ---       s
      010016A0H   LINE      CODE     ---       #65
      010016ABH   LINE      CODE     ---       #66
      010016ABH   LINE      CODE     ---       #67
      010016BBH   LINE      CODE     ---       #68
      010016BBH   LINE      CODE     ---       #69
      010016D0H   LINE      CODE     ---       #70
      010016D2H   LINE      CODE     ---       #71
      ---         BLOCKEND  ---      ---       LVL=0

      01001706H   BLOCK     CODE     ---       LVL=0
      0200010DH   SYMBOL    XDATA    ---       buffer
      00000005H   SYMBOL    DATA     BYTE      datalen
      01001711H   BLOCK     CODE     NEAR LAB  LVL=1
      00000006H   SYMBOL    DATA     BYTE      i
      ---         BLOCKEND  ---      ---       LVL=1
      01001706H   LINE      CODE     ---       #73
      01001711H   LINE      CODE     ---       #74
      01001711H   LINE      CODE     ---       #76
      01001718H   LINE      CODE     ---       #77
      01001732H   LINE      CODE     ---       #78
      ---         BLOCKEND  ---      ---       LVL=0

LX51 LINKER/LOCATER V4.66.66.0                                                        10/09/2018  12:38:49  PAGE 22


      010017F1H   BLOCK     CODE     ---       LVL=0
      010017F1H   BLOCK     CODE     NEAR LAB  LVL=1
      00000006H   SYMBOL    DATA     INT       i
      ---         BLOCKEND  ---      ---       LVL=1
      010017F1H   LINE      CODE     ---       #80
      010017F1H   LINE      CODE     ---       #81
      010017F1H   LINE      CODE     ---       #83
      010017F4H   LINE      CODE     ---       #84
      010017F4H   LINE      CODE     ---       #85
      01001800H   LINE      CODE     ---       #86
      01001804H   LINE      CODE     ---       #87
      0100180FH   LINE      CODE     ---       #88
      ---         BLOCKEND  ---      ---       LVL=0

      ---         MODULE    ---      ---       UART2
      00000020H.1 PUBLIC    BIT      BIT       busy2
      02000106H   PUBLIC    XDATA    BYTE      uart2RxSta
      02000105H   PUBLIC    XDATA    BYTE      uart2RxCount
      02000086H   PUBLIC    XDATA    ---       UART2_RX_BUF
      02000085H   PUBLIC    XDATA    BYTE      flag_uart2_rx
      02000084H   PUBLIC    XDATA    BYTE      uart2RxTimeOut
      01001875H   PUBLIC    CODE     ---       clearBuf2
      01001733H   PUBLIC    CODE     ---       _uart2SendData
      010016D3H   PUBLIC    CODE     ---       _UART2_SendString
      0100190BH   PUBLIC    CODE     ---       _SendData
      01001307H   PUBLIC    CODE     ---       Uart2
      0100185DH   PUBLIC    CODE     ---       Uart2Init
      00000080H   SFRSYM    DATA     BYTE      P0
      00000090H   SFRSYM    DATA     BYTE      P1
      000000A0H   SFRSYM    DATA     BYTE      P2
      000000B0H   SFRSYM    DATA     BYTE      P3
      000000B0H.4 SFRSYM    DATA     BIT       T0
      000000D0H.6 SFRSYM    DATA     BIT       AC
      000000B0H.5 SFRSYM    DATA     BIT       T1
      00000090H   SFRSYM    DATA     BIT       T2
      000000A8H.7 SFRSYM    DATA     BIT       EA
      000000A8H   SFRSYM    DATA     BYTE      IE
      000000C8H.6 SFRSYM    DATA     BIT       EXF2
      000000B0H.7 SFRSYM    DATA     BIT       RD
      000000A8H.4 SFRSYM    DATA     BIT       ES
      000000B8H   SFRSYM    DATA     BYTE      IP
      00000098H   SFRSYM    DATA     BIT       RI
      000000B0H.2 SFRSYM    DATA     BIT       INT0
      000000D0H.7 SFRSYM    DATA     BIT       CY
      00000098H.1 SFRSYM    DATA     BIT       TI
      000000B0H.3 SFRSYM    DATA     BIT       INT1
      000000CBH   SFRSYM    DATA     BYTE      RCAP2H
      000000B8H.4 SFRSYM    DATA     BIT       PS
      00000081H   SFRSYM    DATA     BYTE      SP
      00000090H.1 SFRSYM    DATA     BIT       T2EX
      000000D0H.2 SFRSYM    DATA     BIT       OV
      000000CAH   SFRSYM    DATA     BYTE      RCAP2L
      000000C8H.1 SFRSYM    DATA     BIT       C_T2
      000000B0H.6 SFRSYM    DATA     BIT       WR
      000000C8H.5 SFRSYM    DATA     BIT       RCLK
      000000C8H.4 SFRSYM    DATA     BIT       TCLK
      00000099H   SFRSYM    DATA     BYTE      SBUF
      00000087H   SFRSYM    DATA     BYTE      PCON
      00000098H   SFRSYM    DATA     BYTE      SCON
      00000089H   SFRSYM    DATA     BYTE      TMOD
      00000088H   SFRSYM    DATA     BYTE      TCON
      00000088H.1 SFRSYM    DATA     BIT       IE0
      00000088H.3 SFRSYM    DATA     BIT       IE1
      000000AFH   SFRSYM    DATA     BYTE      IE2
      0000008EH   SFRSYM    DATA     BYTE      AUXR
LX51 LINKER/LOCATER V4.66.66.0                                                        10/09/2018  12:38:49  PAGE 23


      000000F0H   SFRSYM    DATA     BYTE      B
      000000C8H   SFRSYM    DATA     BIT       CP_RL2
      000000E0H   SFRSYM    DATA     BYTE      ACC
      000000A8H.1 SFRSYM    DATA     BIT       ET0
      000000A8H.3 SFRSYM    DATA     BIT       ET1
      00000088H.5 SFRSYM    DATA     BIT       TF0
      000000A8H.5 SFRSYM    DATA     BIT       ET2
      00000088H.7 SFRSYM    DATA     BIT       TF1
      000000C8H.7 SFRSYM    DATA     BIT       TF2
      00000098H.2 SFRSYM    DATA     BIT       RB8
      0000008CH   SFRSYM    DATA     BYTE      TH0
      000000A8H   SFRSYM    DATA     BIT       EX0
      00000088H   SFRSYM    DATA     BIT       IT0
      0000008DH   SFRSYM    DATA     BYTE      TH1
      00000098H.3 SFRSYM    DATA     BIT       TB8
      000000A8H.2 SFRSYM    DATA     BIT       EX1
      00000088H.2 SFRSYM    DATA     BIT       IT1
      000000CDH   SFRSYM    DATA     BYTE      TH2
      000000D0H   SFRSYM    DATA     BIT       P
      00000098H.7 SFRSYM    DATA     BIT       SM0
      0000008AH   SFRSYM    DATA     BYTE      TL0
      00000098H.6 SFRSYM    DATA     BIT       SM1
      0000008BH   SFRSYM    DATA     BYTE      TL1
      00000098H.5 SFRSYM    DATA     BIT       SM2
      000000CCH   SFRSYM    DATA     BYTE      TL2
      000000B8H.1 SFRSYM    DATA     BIT       PT0
      000000B8H.3 SFRSYM    DATA     BIT       PT1
      000000D0H.3 SFRSYM    DATA     BIT       RS0
      000000B8H.5 SFRSYM    DATA     BIT       PT2
      00000088H.4 SFRSYM    DATA     BIT       TR0
      000000D0H.4 SFRSYM    DATA     BIT       RS1
      00000088H.6 SFRSYM    DATA     BIT       TR1
      000000C8H.2 SFRSYM    DATA     BIT       TR2
      000000B8H   SFRSYM    DATA     BIT       PX0
      000000B8H.2 SFRSYM    DATA     BIT       PX1
      00000083H   SFRSYM    DATA     BYTE      DPH
      00000082H   SFRSYM    DATA     BYTE      DPL
      0000009BH   SFRSYM    DATA     BYTE      S2BUF
      000000C8H.3 SFRSYM    DATA     BIT       EXEN2
      00000098H.4 SFRSYM    DATA     BIT       REN
      0000009AH   SFRSYM    DATA     BYTE      S2CON
      000000C8H   SFRSYM    DATA     BYTE      T2CON
      0000009CH   SFRSYM    DATA     BYTE      BRT
      000000B0H   SFRSYM    DATA     BIT       RXD
      000000B0H.1 SFRSYM    DATA     BIT       TXD
      000000A2H   SFRSYM    DATA     BYTE      AUXR1
      000000D0H.5 SFRSYM    DATA     BIT       F0
      000000D0H   SFRSYM    DATA     BYTE      PSW

      0100185DH   BLOCK     CODE     ---       LVL=0
      0100185DH   LINE      CODE     ---       #17
      0100185DH   LINE      CODE     ---       #18
      0100185DH   LINE      CODE     ---       #19
      01001860H   LINE      CODE     ---       #20
      01001868H   LINE      CODE     ---       #21
      0100186BH   LINE      CODE     ---       #23
      0100186EH   LINE      CODE     ---       #24
      01001871H   LINE      CODE     ---       #26
      01001874H   LINE      CODE     ---       #27
      ---         BLOCKEND  ---      ---       LVL=0

      01001307H   BLOCK     CODE     ---       LVL=0
      01001307H   LINE      CODE     ---       #32
      01001312H   LINE      CODE     ---       #34
      01001317H   LINE      CODE     ---       #35
LX51 LINKER/LOCATER V4.66.66.0                                                        10/09/2018  12:38:49  PAGE 24


      01001317H   LINE      CODE     ---       #36
      0100131AH   LINE      CODE     ---       #37
      01001325H   LINE      CODE     ---       #38
      0100132EH   LINE      CODE     ---       #39
      01001334H   LINE      CODE     ---       #40
      01001348H   LINE      CODE     ---       #41
      0100134AH   LINE      CODE     ---       #42
      01001350H   LINE      CODE     ---       #43
      01001355H   LINE      CODE     ---       #44
      01001355H   LINE      CODE     ---       #45
      01001355H   LINE      CODE     ---       #46
      0100135AH   LINE      CODE     ---       #47
      0100135AH   LINE      CODE     ---       #48
      0100135DH   LINE      CODE     ---       #49
      0100135FH   LINE      CODE     ---       #50
      0100135FH   LINE      CODE     ---       #51
      ---         BLOCKEND  ---      ---       LVL=0

      0100190BH   BLOCK     CODE     ---       LVL=0
      00000007H   SYMBOL    DATA     BYTE      dat
      0100190BH   LINE      CODE     ---       #56
      0100190BH   LINE      CODE     ---       #57
      0100190BH   LINE      CODE     ---       #58
      0100190DH   LINE      CODE     ---       #59
      0100190FH   LINE      CODE     ---       #60
      01001912H   LINE      CODE     ---       #61
      ---         BLOCKEND  ---      ---       LVL=0

      010016D3H   BLOCK     CODE     ---       LVL=0
      020001CEH   SYMBOL    XDATA    ---       s
      010016D3H   LINE      CODE     ---       #66
      010016DEH   LINE      CODE     ---       #67
      010016DEH   LINE      CODE     ---       #68
      010016EEH   LINE      CODE     ---       #69
      010016EEH   LINE      CODE     ---       #70
      01001703H   LINE      CODE     ---       #71
      01001705H   LINE      CODE     ---       #72
      ---         BLOCKEND  ---      ---       LVL=0

      01001733H   BLOCK     CODE     ---       LVL=0
      020001D1H   SYMBOL    XDATA    ---       buffer
      00000005H   SYMBOL    DATA     BYTE      datalen
      0100173EH   BLOCK     CODE     NEAR LAB  LVL=1
      00000006H   SYMBOL    DATA     BYTE      i
      ---         BLOCKEND  ---      ---       LVL=1
      01001733H   LINE      CODE     ---       #74
      0100173EH   LINE      CODE     ---       #75
      0100173EH   LINE      CODE     ---       #77
      01001745H   LINE      CODE     ---       #78
      0100175FH   LINE      CODE     ---       #79
      ---         BLOCKEND  ---      ---       LVL=0

      01001875H   BLOCK     CODE     ---       LVL=0
      01001875H   BLOCK     CODE     NEAR LAB  LVL=1
      00000007H   SYMBOL    DATA     BYTE      i
      ---         BLOCKEND  ---      ---       LVL=1
      01001875H   LINE      CODE     ---       #81
      01001875H   LINE      CODE     ---       #83
      01001877H   LINE      CODE     ---       #84
      01001883H   LINE      CODE     ---       #85
      01001887H   LINE      CODE     ---       #86
      0100188CH   LINE      CODE     ---       #87
      ---         BLOCKEND  ---      ---       LVL=0

      ---         MODULE    ---      ---       ADC
LX51 LINKER/LOCATER V4.66.66.0                                                        10/09/2018  12:38:49  PAGE 25


      020001D4H   PUBLIC    XDATA    BYTE      watl_value
      01000FD9H   PUBLIC    CODE     ---       _get_Light_value
      01000F05H   PUBLIC    CODE     ---       _get_WTL_value
      01001630H   PUBLIC    CODE     ---       _adc_getValue
      01001913H   PUBLIC    CODE     ---       adc_Init
      00000080H   SFRSYM    DATA     BYTE      P0
      00000090H   SFRSYM    DATA     BYTE      P1
      000000A0H   SFRSYM    DATA     BYTE      P2
      000000B0H   SFRSYM    DATA     BYTE      P3
      000000B0H.4 SFRSYM    DATA     BIT       T0
      000000D0H.6 SFRSYM    DATA     BIT       AC
      000000B0H.5 SFRSYM    DATA     BIT       T1
      00000090H   SFRSYM    DATA     BIT       T2
      000000A8H.7 SFRSYM    DATA     BIT       EA
      000000A8H   SFRSYM    DATA     BYTE      IE
      000000BDH   SFRSYM    DATA     BYTE      ADC_RES
      000000C8H.6 SFRSYM    DATA     BIT       EXF2
      000000B0H.7 SFRSYM    DATA     BIT       RD
      000000A8H.4 SFRSYM    DATA     BIT       ES
      000000B8H   SFRSYM    DATA     BYTE      IP
      00000098H   SFRSYM    DATA     BIT       RI
      000000B0H.2 SFRSYM    DATA     BIT       INT0
      000000D0H.7 SFRSYM    DATA     BIT       CY
      00000098H.1 SFRSYM    DATA     BIT       TI
      000000B0H.3 SFRSYM    DATA     BIT       INT1
      000000CBH   SFRSYM    DATA     BYTE      RCAP2H
      000000B8H.4 SFRSYM    DATA     BIT       PS
      00000081H   SFRSYM    DATA     BYTE      SP
      00000090H.1 SFRSYM    DATA     BIT       T2EX
      000000D0H.2 SFRSYM    DATA     BIT       OV
      000000CAH   SFRSYM    DATA     BYTE      RCAP2L
      000000C8H.1 SFRSYM    DATA     BIT       C_T2
      000000B0H.6 SFRSYM    DATA     BIT       WR
      000000C8H.5 SFRSYM    DATA     BIT       RCLK
      000000C8H.4 SFRSYM    DATA     BIT       TCLK
      000000BCH   SFRSYM    DATA     BYTE      ADC_CONTR
      00000099H   SFRSYM    DATA     BYTE      SBUF
      00000087H   SFRSYM    DATA     BYTE      PCON
      00000098H   SFRSYM    DATA     BYTE      SCON
      00000089H   SFRSYM    DATA     BYTE      TMOD
      00000088H   SFRSYM    DATA     BYTE      TCON
      00000088H.1 SFRSYM    DATA     BIT       IE0
      00000088H.3 SFRSYM    DATA     BIT       IE1
      000000F0H   SFRSYM    DATA     BYTE      B
      000000C8H   SFRSYM    DATA     BIT       CP_RL2
      000000E0H   SFRSYM    DATA     BYTE      ACC
      000000A8H.1 SFRSYM    DATA     BIT       ET0
      000000A8H.3 SFRSYM    DATA     BIT       ET1
      00000088H.5 SFRSYM    DATA     BIT       TF0
      000000A8H.5 SFRSYM    DATA     BIT       ET2
      00000088H.7 SFRSYM    DATA     BIT       TF1
      000000C8H.7 SFRSYM    DATA     BIT       TF2
      00000098H.2 SFRSYM    DATA     BIT       RB8
      0000008CH   SFRSYM    DATA     BYTE      TH0
      000000A8H   SFRSYM    DATA     BIT       EX0
      00000088H   SFRSYM    DATA     BIT       IT0
      0000008DH   SFRSYM    DATA     BYTE      TH1
      00000098H.3 SFRSYM    DATA     BIT       TB8
      000000A8H.2 SFRSYM    DATA     BIT       EX1
      00000088H.2 SFRSYM    DATA     BIT       IT1
      000000CDH   SFRSYM    DATA     BYTE      TH2
      000000D0H   SFRSYM    DATA     BIT       P
      00000098H.7 SFRSYM    DATA     BIT       SM0
      0000008AH   SFRSYM    DATA     BYTE      TL0
      00000098H.6 SFRSYM    DATA     BIT       SM1
LX51 LINKER/LOCATER V4.66.66.0                                                        10/09/2018  12:38:49  PAGE 26


      0000008BH   SFRSYM    DATA     BYTE      TL1
      00000098H.5 SFRSYM    DATA     BIT       SM2
      000000CCH   SFRSYM    DATA     BYTE      TL2
      000000B8H.1 SFRSYM    DATA     BIT       PT0
      000000B8H.3 SFRSYM    DATA     BIT       PT1
      000000D0H.3 SFRSYM    DATA     BIT       RS0
      000000B8H.5 SFRSYM    DATA     BIT       PT2
      00000088H.4 SFRSYM    DATA     BIT       TR0
      000000D0H.4 SFRSYM    DATA     BIT       RS1
      00000088H.6 SFRSYM    DATA     BIT       TR1
      000000C8H.2 SFRSYM    DATA     BIT       TR2
      000000B8H   SFRSYM    DATA     BIT       PX0
      000000B8H.2 SFRSYM    DATA     BIT       PX1
      0000009DH   SFRSYM    DATA     BYTE      P1ASF
      00000083H   SFRSYM    DATA     BYTE      DPH
      000000BEH   SFRSYM    DATA     BYTE      ADC_RESL
      00000082H   SFRSYM    DATA     BYTE      DPL
      000000C8H.3 SFRSYM    DATA     BIT       EXEN2
      00000098H.4 SFRSYM    DATA     BIT       REN
      000000C8H   SFRSYM    DATA     BYTE      T2CON
      000000B0H   SFRSYM    DATA     BIT       RXD
      000000B0H.1 SFRSYM    DATA     BIT       TXD
      000000D0H.5 SFRSYM    DATA     BIT       F0
      000000D0H   SFRSYM    DATA     BYTE      PSW

      01001913H   BLOCK     CODE     ---       LVL=0
      01001913H   LINE      CODE     ---       #5
      01001913H   LINE      CODE     ---       #6
      01001913H   LINE      CODE     ---       #7
      01001916H   LINE      CODE     ---       #8
      01001919H   LINE      CODE     ---       #9
      ---         BLOCKEND  ---      ---       LVL=0

      01001630H   BLOCK     CODE     ---       LVL=0
      00000007H   SYMBOL    DATA     BYTE      channel
      01001630H   BLOCK     CODE     NEAR LAB  LVL=1
      00000004H   SYMBOL    DATA     WORD      adc
      00000006H   SYMBOL    DATA     BYTE      i
      ---         BLOCKEND  ---      ---       LVL=1
      01001630H   LINE      CODE     ---       #11
      01001630H   LINE      CODE     ---       #12
      01001630H   LINE      CODE     ---       #14
      01001632H   LINE      CODE     ---       #16
      01001635H   LINE      CODE     ---       #17
      01001637H   LINE      CODE     ---       #19
      01001640H   LINE      CODE     ---       #20
      01001640H   LINE      CODE     ---       #21
      01001645H   LINE      CODE     ---       #22
      01001645H   LINE      CODE     ---       #23
      01001648H   LINE      CODE     ---       #24
      0100164EH   LINE      CODE     ---       #25
      01001661H   LINE      CODE     ---       #26
      01001663H   LINE      CODE     ---       #27
      01001663H   LINE      CODE     ---       #28
      01001665H   LINE      CODE     ---       #29
      01001669H   LINE      CODE     ---       #30
      ---         BLOCKEND  ---      ---       LVL=0

      01000F05H   BLOCK     CODE     ---       LVL=0
      0200010DH   SYMBOL    XDATA    ---       str
      01000F10H   BLOCK     CODE     NEAR LAB  LVL=1
      02000110H   SYMBOL    XDATA    WORD      value
      ---         BLOCKEND  ---      ---       LVL=1
      01000F05H   LINE      CODE     ---       #33
      01000F10H   LINE      CODE     ---       #34
LX51 LINKER/LOCATER V4.66.66.0                                                        10/09/2018  12:38:49  PAGE 27


      01000F10H   LINE      CODE     ---       #35
      01000F15H   LINE      CODE     ---       #36
      01000F21H   LINE      CODE     ---       #38
      01000F43H   LINE      CODE     ---       #39
      01000F75H   LINE      CODE     ---       #40
      01000FA7H   LINE      CODE     ---       #41
      01000FCCH   LINE      CODE     ---       #42
      01000FD3H   LINE      CODE     ---       #43
      01000FD8H   LINE      CODE     ---       #44
      ---         BLOCKEND  ---      ---       LVL=0

      01000FD9H   BLOCK     CODE     ---       LVL=0
      020001C5H   SYMBOL    XDATA    ---       str
      01000FE4H   BLOCK     CODE     NEAR LAB  LVL=1
      020001C8H   SYMBOL    XDATA    BYTE      phvalue
      020001C9H   SYMBOL    XDATA    WORD      value
      ---         BLOCKEND  ---      ---       LVL=1
      01000FD9H   LINE      CODE     ---       #46
      01000FE4H   LINE      CODE     ---       #47
      01000FE4H   LINE      CODE     ---       #50
      01000FF1H   LINE      CODE     ---       #52
      01001013H   LINE      CODE     ---       #53
      01001045H   LINE      CODE     ---       #54
      01001077H   LINE      CODE     ---       #55
      0100109CH   LINE      CODE     ---       #56
      010010A3H   LINE      CODE     ---       #60
      010010A8H   LINE      CODE     ---       #61
      ---         BLOCKEND  ---      ---       LVL=0

      ---         MODULE    ---      ---       MAIN
      0100115EH   PUBLIC    CODE     ---       display_background
      010018CDH   PUBLIC    CODE     ---       bsp_init
      010010A9H   PUBLIC    CODE     ---       main
      00000080H   SFRSYM    DATA     BYTE      P0
      00000090H   SFRSYM    DATA     BYTE      P1
      000000A0H   SFRSYM    DATA     BYTE      P2
      000000B0H   SFRSYM    DATA     BYTE      P3
      000000B0H.4 SFRSYM    DATA     BIT       T0
      000000D0H.6 SFRSYM    DATA     BIT       AC
      000000B0H.5 SFRSYM    DATA     BIT       T1
      00000090H   SFRSYM    DATA     BIT       T2
      000000A8H.7 SFRSYM    DATA     BIT       EA
      000000A8H   SFRSYM    DATA     BYTE      IE
      000000BDH   SFRSYM    DATA     BYTE      ADC_RES
      000000C8H.6 SFRSYM    DATA     BIT       EXF2
      000000B0H.7 SFRSYM    DATA     BIT       RD
      000000A8H.4 SFRSYM    DATA     BIT       ES
      000000B8H   SFRSYM    DATA     BYTE      IP
      00000098H   SFRSYM    DATA     BIT       RI
      000000B0H.2 SFRSYM    DATA     BIT       INT0
      000000D0H.7 SFRSYM    DATA     BIT       CY
      00000098H.1 SFRSYM    DATA     BIT       TI
      000000B0H.3 SFRSYM    DATA     BIT       INT1
      000000CBH   SFRSYM    DATA     BYTE      RCAP2H
      000000B8H.4 SFRSYM    DATA     BIT       PS
      00000081H   SFRSYM    DATA     BYTE      SP
      00000080H.2 SFRSYM    DATA     BIT       IO_LAMP
      00000090H.1 SFRSYM    DATA     BIT       T2EX
      000000D0H.2 SFRSYM    DATA     BIT       OV
      000000A0H.1 SFRSYM    DATA     BIT       reset
      000000CAH   SFRSYM    DATA     BYTE      RCAP2L
      000000C8H.1 SFRSYM    DATA     BIT       C_T2
      000000B0H.6 SFRSYM    DATA     BIT       WR
      000000C8H.5 SFRSYM    DATA     BIT       RCLK
      000000C8H.4 SFRSYM    DATA     BIT       TCLK
LX51 LINKER/LOCATER V4.66.66.0                                                        10/09/2018  12:38:49  PAGE 28


      000000BCH   SFRSYM    DATA     BYTE      ADC_CONTR
      00000099H   SFRSYM    DATA     BYTE      SBUF
      00000087H   SFRSYM    DATA     BYTE      PCON
      00000098H   SFRSYM    DATA     BYTE      SCON
      00000089H   SFRSYM    DATA     BYTE      TMOD
      00000088H   SFRSYM    DATA     BYTE      TCON
      00000080H.3 SFRSYM    DATA     BIT       IO_TURB
      000000A0H.3 SFRSYM    DATA     BIT       sda
      00000080H.1 SFRSYM    DATA     BIT       IO_PUMP
      00000088H.1 SFRSYM    DATA     BIT       IE0
      00000088H.3 SFRSYM    DATA     BIT       IE1
      000000F0H   SFRSYM    DATA     BYTE      B
      000000A0H.5 SFRSYM    DATA     BIT       scl
      000000C8H   SFRSYM    DATA     BIT       CP_RL2
      000000E0H   SFRSYM    DATA     BYTE      ACC
      000000A8H.1 SFRSYM    DATA     BIT       ET0
      000000A8H.3 SFRSYM    DATA     BIT       ET1
      00000088H.5 SFRSYM    DATA     BIT       TF0
      000000A8H.5 SFRSYM    DATA     BIT       ET2
      00000088H.7 SFRSYM    DATA     BIT       TF1
      000000C8H.7 SFRSYM    DATA     BIT       TF2
      00000098H.2 SFRSYM    DATA     BIT       RB8
      0000008CH   SFRSYM    DATA     BYTE      TH0
      000000A8H   SFRSYM    DATA     BIT       EX0
      00000088H   SFRSYM    DATA     BIT       IT0
      0000008DH   SFRSYM    DATA     BYTE      TH1
      000000A0H.4 SFRSYM    DATA     BIT       bl
      00000098H.3 SFRSYM    DATA     BIT       TB8
      000000A8H.2 SFRSYM    DATA     BIT       EX1
      00000088H.2 SFRSYM    DATA     BIT       IT1
      000000CDH   SFRSYM    DATA     BYTE      TH2
      000000D0H   SFRSYM    DATA     BIT       P
      00000098H.7 SFRSYM    DATA     BIT       SM0
      0000008AH   SFRSYM    DATA     BYTE      TL0
      00000098H.6 SFRSYM    DATA     BIT       SM1
      0000008BH   SFRSYM    DATA     BYTE      TL1
      00000098H.5 SFRSYM    DATA     BIT       SM2
      000000CCH   SFRSYM    DATA     BYTE      TL2
      000000B8H.1 SFRSYM    DATA     BIT       PT0
      000000B8H.3 SFRSYM    DATA     BIT       PT1
      000000D0H.3 SFRSYM    DATA     BIT       RS0
      000000A0H   SFRSYM    DATA     BIT       cs
      000000B8H.5 SFRSYM    DATA     BIT       PT2
      00000088H.4 SFRSYM    DATA     BIT       TR0
      000000D0H.4 SFRSYM    DATA     BIT       RS1
      00000088H.6 SFRSYM    DATA     BIT       TR1
      000000C8H.2 SFRSYM    DATA     BIT       TR2
      000000B8H   SFRSYM    DATA     BIT       PX0
      000000B8H.2 SFRSYM    DATA     BIT       PX1
      0000009DH   SFRSYM    DATA     BYTE      P1ASF
      00000083H   SFRSYM    DATA     BYTE      DPH
      000000BEH   SFRSYM    DATA     BYTE      ADC_RESL
      00000082H   SFRSYM    DATA     BYTE      DPL
      000000C8H.3 SFRSYM    DATA     BIT       EXEN2
      000000A0H.2 SFRSYM    DATA     BIT       rs
      00000098H.4 SFRSYM    DATA     BIT       REN
      000000C8H   SFRSYM    DATA     BYTE      T2CON
      000000B0H   SFRSYM    DATA     BIT       RXD
      000000B0H.1 SFRSYM    DATA     BIT       TXD
      000000D0H.5 SFRSYM    DATA     BIT       F0
      000000D0H   SFRSYM    DATA     BYTE      PSW

      010010A9H   BLOCK     CODE     ---       LVL=0
      010010A9H   LINE      CODE     ---       #15
      010010A9H   LINE      CODE     ---       #16
LX51 LINKER/LOCATER V4.66.66.0                                                        10/09/2018  12:38:49  PAGE 29


      010010A9H   LINE      CODE     ---       #17
      010010ACH   LINE      CODE     ---       #18
      010010ACH   LINE      CODE     ---       #19
      010010ACH   LINE      CODE     ---       #20
      010010B2H   LINE      CODE     ---       #21
      010010B2H   LINE      CODE     ---       #22
      010010B5H   LINE      CODE     ---       #23
      010010BAH   LINE      CODE     ---       #24
      010010BAH   LINE      CODE     ---       #25
      010010C0H   LINE      CODE     ---       #26
      010010C0H   LINE      CODE     ---       #27
      010010C3H   LINE      CODE     ---       #28
      010010C8H   LINE      CODE     ---       #29
      010010C8H   LINE      CODE     ---       #30
      010010CEH   LINE      CODE     ---       #31
      010010CEH   LINE      CODE     ---       #32
      010010D1H   LINE      CODE     ---       #33
      010010D6H   LINE      CODE     ---       #34
      010010D6H   LINE      CODE     ---       #35
      010010DCH   LINE      CODE     ---       #36
      010010DCH   LINE      CODE     ---       #37
      010010DFH   LINE      CODE     ---       #38
      010010E4H   LINE      CODE     ---       #39
      010010E4H   LINE      CODE     ---       #40
      010010EAH   LINE      CODE     ---       #41
      010010EAH   LINE      CODE     ---       #42
      010010EDH   LINE      CODE     ---       #43
      010010F2H   LINE      CODE     ---       #44
      010010F2H   LINE      CODE     ---       #45
      010010F8H   LINE      CODE     ---       #46
      010010F8H   LINE      CODE     ---       #47
      010010FEH   LINE      CODE     ---       #48
      010010FEH   LINE      CODE     ---       #49
      01001107H   LINE      CODE     ---       #50
      0100110CH   LINE      CODE     ---       #51
      01001110H   LINE      CODE     ---       #52
      01001110H   LINE      CODE     ---       #53
      01001121H   LINE      CODE     ---       #54
      01001123H   LINE      CODE     ---       #56
      0100113BH   LINE      CODE     ---       #57
      0100113DH   LINE      CODE     ---       #58
      01001140H   LINE      CODE     ---       #59
      01001140H   LINE      CODE     ---       #60
      01001149H   LINE      CODE     ---       #61
      01001149H   LINE      CODE     ---       #63
      01001152H   LINE      CODE     ---       #64
      01001157H   LINE      CODE     ---       #65
      0100115BH   LINE      CODE     ---       #66
      0100115BH   LINE      CODE     ---       #67
      0100115BH   LINE      CODE     ---       #68
      ---         BLOCKEND  ---      ---       LVL=0

      010018CDH   BLOCK     CODE     ---       LVL=0
      010018CDH   LINE      CODE     ---       #71
      010018CDH   LINE      CODE     ---       #72
      010018CDH   LINE      CODE     ---       #73
      010018D0H   LINE      CODE     ---       #74
      010018D3H   LINE      CODE     ---       #75
      010018D6H   LINE      CODE     ---       #76
      010018D9H   LINE      CODE     ---       #77
      010018DCH   LINE      CODE     ---       #78
      ---         BLOCKEND  ---      ---       LVL=0

      0100115EH   BLOCK     CODE     ---       LVL=0
      0100115EH   LINE      CODE     ---       #80
LX51 LINKER/LOCATER V4.66.66.0                                                        10/09/2018  12:38:49  PAGE 30


      0100115EH   LINE      CODE     ---       #81
      0100115EH   LINE      CODE     ---       #82
      01001165H   LINE      CODE     ---       #83
      01001186H   LINE      CODE     ---       #84
      010011A4H   LINE      CODE     ---       #85
      010011C2H   LINE      CODE     ---       #86
      010011E0H   LINE      CODE     ---       #87
      ---         BLOCKEND  ---      ---       LVL=0

      ---         MODULE    ---      ---       TFT_LCD
      01001B3AH   PUBLIC    CONST    ---       Zk_ASCII8X16
      0100191AH   PUBLIC    CONST    ---       hz16
      0200019DH   PUBLIC    XDATA    BYTE      ?_Gui_DrawFont_GBK16?BYTE
      010002EEH   PUBLIC    CODE     ---       _Gui_DrawFont_GBK16
      02000107H   PUBLIC    XDATA    BYTE      ?_Fast_DrawFont_GBK16?BYTE
      01000C50H   PUBLIC    CODE     ---       _Fast_DrawFont_GBK16
      01000AB8H   PUBLIC    CODE     ---       _Display_ASCII8X16
      0200010DH   PUBLIC    XDATA    BYTE      ?_Display_ASCII8X16_Color?BYTE
      01000576H   PUBLIC    CODE     ---       _Display_ASCII8X16_Color
      0100166AH   PUBLIC    CODE     ---       _dsp_single_colour
      01001481H   PUBLIC    CODE     ---       _PutPixel
      0200014CH   PUBLIC    XDATA    BYTE      ?_Lcd_SetRegion?BYTE
      010015B3H   PUBLIC    CODE     ---       _Lcd_SetRegion
      0100075EH   PUBLIC    CODE     ---       lcd_initial
      010018DFH   PUBLIC    CODE     ---       Lcd_Reset
      0100182BH   PUBLIC    CODE     ---       _LCD_WriteData_16Bit
      010018ABH   PUBLIC    CODE     ---       _Lcd_WriteData
      010018F8H   PUBLIC    CODE     ---       _Lcd_WriteIndex
      0100188DH   PUBLIC    CODE     ---       _SPI_WriteData
      010017B1H   PUBLIC    CODE     ---       _lcd_delay_ms
      00000080H   SFRSYM    DATA     BYTE      P0
      00000090H   SFRSYM    DATA     BYTE      P1
      000000A0H   SFRSYM    DATA     BYTE      P2
      000000B0H   SFRSYM    DATA     BYTE      P3
      000000B0H.4 SFRSYM    DATA     BIT       T0
      000000D0H.6 SFRSYM    DATA     BIT       AC
      000000B0H.5 SFRSYM    DATA     BIT       T1
      00000090H   SFRSYM    DATA     BIT       T2
      000000A8H.7 SFRSYM    DATA     BIT       EA
      000000A8H   SFRSYM    DATA     BYTE      IE
      000000C8H.6 SFRSYM    DATA     BIT       EXF2
      000000B0H.7 SFRSYM    DATA     BIT       RD
      000000A8H.4 SFRSYM    DATA     BIT       ES
      000000B8H   SFRSYM    DATA     BYTE      IP
      00000098H   SFRSYM    DATA     BIT       RI
      000000B0H.2 SFRSYM    DATA     BIT       INT0
      000000D0H.7 SFRSYM    DATA     BIT       CY
      00000098H.1 SFRSYM    DATA     BIT       TI
      000000B0H.3 SFRSYM    DATA     BIT       INT1
      000000CBH   SFRSYM    DATA     BYTE      RCAP2H
      000000B8H.4 SFRSYM    DATA     BIT       PS
      00000081H   SFRSYM    DATA     BYTE      SP
      00000090H.1 SFRSYM    DATA     BIT       T2EX
      000000D0H.2 SFRSYM    DATA     BIT       OV
      000000A0H.1 SFRSYM    DATA     BIT       reset
      000000CAH   SFRSYM    DATA     BYTE      RCAP2L
      000000C8H.1 SFRSYM    DATA     BIT       C_T2
      000000B0H.6 SFRSYM    DATA     BIT       WR
      000000C8H.5 SFRSYM    DATA     BIT       RCLK
      000000C8H.4 SFRSYM    DATA     BIT       TCLK
      00000099H   SFRSYM    DATA     BYTE      SBUF
      00000087H   SFRSYM    DATA     BYTE      PCON
      00000098H   SFRSYM    DATA     BYTE      SCON
      00000089H   SFRSYM    DATA     BYTE      TMOD
      00000088H   SFRSYM    DATA     BYTE      TCON
LX51 LINKER/LOCATER V4.66.66.0                                                        10/09/2018  12:38:49  PAGE 31


      000000A0H.3 SFRSYM    DATA     BIT       sda
      00000088H.1 SFRSYM    DATA     BIT       IE0
      00000088H.3 SFRSYM    DATA     BIT       IE1
      000000F0H   SFRSYM    DATA     BYTE      B
      000000A0H.5 SFRSYM    DATA     BIT       scl
      000000C8H   SFRSYM    DATA     BIT       CP_RL2
      000000E0H   SFRSYM    DATA     BYTE      ACC
      000000A8H.1 SFRSYM    DATA     BIT       ET0
      000000A8H.3 SFRSYM    DATA     BIT       ET1
      00000088H.5 SFRSYM    DATA     BIT       TF0
      000000A8H.5 SFRSYM    DATA     BIT       ET2
      00000088H.7 SFRSYM    DATA     BIT       TF1
      000000C8H.7 SFRSYM    DATA     BIT       TF2
      00000098H.2 SFRSYM    DATA     BIT       RB8
      0000008CH   SFRSYM    DATA     BYTE      TH0
      000000A8H   SFRSYM    DATA     BIT       EX0
      00000088H   SFRSYM    DATA     BIT       IT0
      0000008DH   SFRSYM    DATA     BYTE      TH1
      000000A0H.4 SFRSYM    DATA     BIT       bl
      00000098H.3 SFRSYM    DATA     BIT       TB8
      000000A8H.2 SFRSYM    DATA     BIT       EX1
      00000088H.2 SFRSYM    DATA     BIT       IT1
      000000CDH   SFRSYM    DATA     BYTE      TH2
      000000D0H   SFRSYM    DATA     BIT       P
      00000098H.7 SFRSYM    DATA     BIT       SM0
      0000008AH   SFRSYM    DATA     BYTE      TL0
      00000098H.6 SFRSYM    DATA     BIT       SM1
      0000008BH   SFRSYM    DATA     BYTE      TL1
      00000098H.5 SFRSYM    DATA     BIT       SM2
      000000CCH   SFRSYM    DATA     BYTE      TL2
      000000B8H.1 SFRSYM    DATA     BIT       PT0
      000000B8H.3 SFRSYM    DATA     BIT       PT1
      000000D0H.3 SFRSYM    DATA     BIT       RS0
      000000A0H   SFRSYM    DATA     BIT       cs
      000000B8H.5 SFRSYM    DATA     BIT       PT2
      00000088H.4 SFRSYM    DATA     BIT       TR0
      000000D0H.4 SFRSYM    DATA     BIT       RS1
      00000088H.6 SFRSYM    DATA     BIT       TR1
      000000C8H.2 SFRSYM    DATA     BIT       TR2
      000000B8H   SFRSYM    DATA     BIT       PX0
      000000B8H.2 SFRSYM    DATA     BIT       PX1
      00000083H   SFRSYM    DATA     BYTE      DPH
      00000082H   SFRSYM    DATA     BYTE      DPL
      000000C8H.3 SFRSYM    DATA     BIT       EXEN2
      000000A0H.2 SFRSYM    DATA     BIT       rs
      00000098H.4 SFRSYM    DATA     BIT       REN
      000000C8H   SFRSYM    DATA     BYTE      T2CON
      000000B0H   SFRSYM    DATA     BIT       RXD
      000000B0H.1 SFRSYM    DATA     BIT       TXD
      000000D0H.5 SFRSYM    DATA     BIT       F0
      000000D0H   SFRSYM    DATA     BYTE      PSW

      010017B1H   BLOCK     CODE     ---       LVL=0
      00000006H   SYMBOL    DATA     WORD      time
      010017B1H   BLOCK     CODE     NEAR LAB  LVL=1
      00000004H   SYMBOL    DATA     WORD      i
      00000002H   SYMBOL    DATA     WORD      j
      ---         BLOCKEND  ---      ---       LVL=1
      010017B1H   LINE      CODE     ---       #362
      010017B1H   LINE      CODE     ---       #363
      010017B1H   LINE      CODE     ---       #365
      010017BBH   LINE      CODE     ---       #366
      010017D0H   LINE      CODE     ---       #367
      ---         BLOCKEND  ---      ---       LVL=0

LX51 LINKER/LOCATER V4.66.66.0                                                        10/09/2018  12:38:49  PAGE 32


      0100188DH   BLOCK     CODE     ---       LVL=0
      00000007H   SYMBOL    DATA     BYTE      Data
      0100188DH   BLOCK     CODE     NEAR LAB  LVL=1
      00000006H   SYMBOL    DATA     BYTE      i
      ---         BLOCKEND  ---      ---       LVL=1
      0100188DH   LINE      CODE     ---       #371
      0100188DH   LINE      CODE     ---       #372
      0100188DH   LINE      CODE     ---       #373
      0100188DH   LINE      CODE     ---       #374
      0100188FH   LINE      CODE     ---       #375
      0100188FH   LINE      CODE     ---       #376
      01001893H   LINE      CODE     ---       #377
      01001897H   LINE      CODE     ---       #378
      01001899H   LINE      CODE     ---       #379
      0100189BH   LINE      CODE     ---       #380
      0100189DH   LINE      CODE     ---       #381
      010018A1H   LINE      CODE     ---       #382
      010018A3H   LINE      CODE     ---       #383
      ---         BLOCKEND  ---      ---       LVL=0

      010018F8H   BLOCK     CODE     ---       LVL=0
      00000007H   SYMBOL    DATA     BYTE      Data
      010018F8H   LINE      CODE     ---       #385
      010018F8H   LINE      CODE     ---       #386
      010018F8H   LINE      CODE     ---       #388
      010018FAH   LINE      CODE     ---       #389
      010018FCH   LINE      CODE     ---       #390
      010018FFH   LINE      CODE     ---       #391
      01001901H   LINE      CODE     ---       #392
      ---         BLOCKEND  ---      ---       LVL=0

      010018A4H   BLOCK     CODE     ---       LVL=0
      ---         BLOCKEND  ---      ---       LVL=0

      010018ABH   BLOCK     CODE     ---       LVL=0
      00000007H   SYMBOL    DATA     BYTE      Data
      02000154H   SYMBOL    XDATA    BYTE      i
      010018ABH   BLOCK     CODE     NEAR LAB  LVL=1
      02000154H   SYMBOL    XDATA    BYTE      i
      ---         BLOCKEND  ---      ---       LVL=1
      010018ABH   LINE      CODE     ---       #394
      010018ABH   LINE      CODE     ---       #395
      010018ABH   LINE      CODE     ---       #396
      010018B0H   LINE      CODE     ---       #397
      010018B2H   LINE      CODE     ---       #398
      010018B4H   LINE      CODE     ---       #399
      010018B7H   LINE      CODE     ---       #400
      010018B9H   LINE      CODE     ---       #401
      ---         BLOCKEND  ---      ---       LVL=0

      0100182BH   BLOCK     CODE     ---       LVL=0
      00000004H   SYMBOL    DATA     WORD      Data
      0100182FH   BLOCK     CODE     NEAR LAB  LVL=1
      0200014CH   SYMBOL    XDATA    BYTE      i
      ---         BLOCKEND  ---      ---       LVL=1
      0100182BH   LINE      CODE     ---       #403
      0100182FH   LINE      CODE     ---       #404
      0100182FH   LINE      CODE     ---       #405
      01001834H   LINE      CODE     ---       #406
      01001836H   LINE      CODE     ---       #407
      01001838H   LINE      CODE     ---       #408
      0100183DH   LINE      CODE     ---       #409
      01001842H   LINE      CODE     ---       #410
      01001844H   LINE      CODE     ---       #412
      ---         BLOCKEND  ---      ---       LVL=0
LX51 LINKER/LOCATER V4.66.66.0                                                        10/09/2018  12:38:49  PAGE 33



      010018DFH   BLOCK     CODE     ---       LVL=0
      010018DFH   LINE      CODE     ---       #414
      010018DFH   LINE      CODE     ---       #415
      010018DFH   LINE      CODE     ---       #416
      010018E1H   LINE      CODE     ---       #417
      010018E8H   LINE      CODE     ---       #418
      010018EAH   LINE      CODE     ---       #419
      ---         BLOCKEND  ---      ---       LVL=0

      0100075EH   BLOCK     CODE     ---       LVL=0
      0100075EH   LINE      CODE     ---       #423
      0100075EH   LINE      CODE     ---       #424
      0100075EH   LINE      CODE     ---       #425
      01000761H   LINE      CODE     ---       #428
      01000766H   LINE      CODE     ---       #429
      0100076DH   LINE      CODE     ---       #432
      01000772H   LINE      CODE     ---       #433
      01000777H   LINE      CODE     ---       #434
      0100077CH   LINE      CODE     ---       #435
      01000781H   LINE      CODE     ---       #437
      01000786H   LINE      CODE     ---       #438
      0100078BH   LINE      CODE     ---       #439
      01000790H   LINE      CODE     ---       #440
      01000795H   LINE      CODE     ---       #442
      0100079AH   LINE      CODE     ---       #443
      0100079FH   LINE      CODE     ---       #444
      010007A4H   LINE      CODE     ---       #445
      010007A9H   LINE      CODE     ---       #446
      010007AEH   LINE      CODE     ---       #447
      010007B3H   LINE      CODE     ---       #448
      010007B8H   LINE      CODE     ---       #450
      010007BDH   LINE      CODE     ---       #451
      010007C2H   LINE      CODE     ---       #454
      010007C7H   LINE      CODE     ---       #455
      010007CCH   LINE      CODE     ---       #456
      010007D1H   LINE      CODE     ---       #457
      010007D6H   LINE      CODE     ---       #458
      010007DBH   LINE      CODE     ---       #459
      010007E0H   LINE      CODE     ---       #461
      010007E5H   LINE      CODE     ---       #462
      010007EAH   LINE      CODE     ---       #463
      010007EFH   LINE      CODE     ---       #465
      010007F4H   LINE      CODE     ---       #466
      010007F9H   LINE      CODE     ---       #467
      010007FEH   LINE      CODE     ---       #468
      01000803H   LINE      CODE     ---       #469
      01000808H   LINE      CODE     ---       #470
      0100080DH   LINE      CODE     ---       #472
      01000812H   LINE      CODE     ---       #473
      01000817H   LINE      CODE     ---       #475
      0100081CH   LINE      CODE     ---       #479
      01000821H   LINE      CODE     ---       #482
      01000826H   LINE      CODE     ---       #483
      0100082BH   LINE      CODE     ---       #484
      01000830H   LINE      CODE     ---       #485
      01000835H   LINE      CODE     ---       #486
      0100083AH   LINE      CODE     ---       #487
      0100083FH   LINE      CODE     ---       #488
      01000844H   LINE      CODE     ---       #489
      01000849H   LINE      CODE     ---       #490
      0100084EH   LINE      CODE     ---       #491
      01000853H   LINE      CODE     ---       #492
      01000858H   LINE      CODE     ---       #493
      0100085DH   LINE      CODE     ---       #494
LX51 LINKER/LOCATER V4.66.66.0                                                        10/09/2018  12:38:49  PAGE 34


      01000862H   LINE      CODE     ---       #495
      01000867H   LINE      CODE     ---       #496
      0100086CH   LINE      CODE     ---       #497
      01000871H   LINE      CODE     ---       #498
      01000876H   LINE      CODE     ---       #500
      0100087BH   LINE      CODE     ---       #501
      01000880H   LINE      CODE     ---       #502
      01000885H   LINE      CODE     ---       #503
      0100088AH   LINE      CODE     ---       #504
      0100088FH   LINE      CODE     ---       #505
      01000894H   LINE      CODE     ---       #506
      01000899H   LINE      CODE     ---       #507
      0100089EH   LINE      CODE     ---       #508
      010008A3H   LINE      CODE     ---       #509
      010008A8H   LINE      CODE     ---       #510
      010008ADH   LINE      CODE     ---       #511
      010008B2H   LINE      CODE     ---       #512
      010008B7H   LINE      CODE     ---       #513
      010008BCH   LINE      CODE     ---       #514
      010008C1H   LINE      CODE     ---       #515
      010008C6H   LINE      CODE     ---       #516
      010008CBH   LINE      CODE     ---       #518
      010008CBH   LINE      CODE     ---       #519
      010008CEH   LINE      CODE     ---       #520
      010008D3H   LINE      CODE     ---       #521
      010008D8H   LINE      CODE     ---       #522
      010008DDH   LINE      CODE     ---       #524
      010008DFH   LINE      CODE     ---       #525
      010008E2H   LINE      CODE     ---       #526
      010008E7H   LINE      CODE     ---       #527
      010008ECH   LINE      CODE     ---       #528
      010008F1H   LINE      CODE     ---       #530
      010008F6H   LINE      CODE     ---       #531
      010008FBH   LINE      CODE     ---       #532
      010008FDH   LINE      CODE     ---       #533
      01000900H   LINE      CODE     ---       #535
      01000905H   LINE      CODE     ---       #536
      0100090AH   LINE      CODE     ---       #539
      ---         BLOCKEND  ---      ---       LVL=0

      010015B3H   BLOCK     CODE     ---       LVL=0
      0200014CH   SYMBOL    XDATA    WORD      x_start
      00000004H   SYMBOL    DATA     WORD      y_start
      00000002H   SYMBOL    DATA     WORD      x_end
      02000152H   SYMBOL    XDATA    WORD      y_end
      010015B3H   LINE      CODE     ---       #551
      010015BBH   LINE      CODE     ---       #552
      010015BBH   LINE      CODE     ---       #567
      010015BBH   LINE      CODE     ---       #568
      010015BEH   LINE      CODE     ---       #569
      010015C9H   LINE      CODE     ---       #570
      010015CEH   LINE      CODE     ---       #571
      010015D5H   LINE      CODE     ---       #573
      010015D7H   LINE      CODE     ---       #574
      010015DAH   LINE      CODE     ---       #575
      010015E1H   LINE      CODE     ---       #576
      010015E6H   LINE      CODE     ---       #577
      010015F1H   LINE      CODE     ---       #579
      ---         BLOCKEND  ---      ---       LVL=0

      0100147CH   BLOCK     CODE     ---       LVL=0
      ---         BLOCKEND  ---      ---       LVL=0

      01001481H   BLOCK     CODE     ---       LVL=0
      02000146H   SYMBOL    XDATA    WORD      x_start
LX51 LINKER/LOCATER V4.66.66.0                                                        10/09/2018  12:38:49  PAGE 35


      02000148H   SYMBOL    XDATA    WORD      y_start
      0200014AH   SYMBOL    XDATA    WORD      color
      01001481H   LINE      CODE     ---       #583
      01001499H   LINE      CODE     ---       #584
      01001499H   LINE      CODE     ---       #585
      010014C5H   LINE      CODE     ---       #586
      ---         BLOCKEND  ---      ---       LVL=0

      0100166AH   BLOCK     CODE     ---       LVL=0
      02000107H   SYMBOL    XDATA    INT       color
      01001672H   BLOCK     CODE     NEAR LAB  LVL=1
      00000003H   SYMBOL    DATA     BYTE      i
      00000002H   SYMBOL    DATA     BYTE      j
      ---         BLOCKEND  ---      ---       LVL=1
      0100166AH   LINE      CODE     ---       #592
      01001672H   LINE      CODE     ---       #593
      01001672H   LINE      CODE     ---       #595
      01001686H   LINE      CODE     ---       #596
      01001688H   LINE      CODE     ---       #597
      0100168AH   LINE      CODE     ---       #598
      0100169FH   LINE      CODE     ---       #599
      ---         BLOCKEND  ---      ---       LVL=0

      01000576H   BLOCK     CODE     ---       LVL=0
      0200010DH   SYMBOL    XDATA    WORD      x0
      0200010FH   SYMBOL    XDATA    WORD      y0
      02000111H   SYMBOL    XDATA    ---       s
      02000114H   SYMBOL    XDATA    WORD      forecolor
      02000116H   SYMBOL    XDATA    WORD      backgroundcolor
      0100058DH   BLOCK     CODE     NEAR LAB  LVL=1
      02000118H   SYMBOL    XDATA    INT       i
      00000002H   SYMBOL    DATA     INT       j
      00000004H   SYMBOL    DATA     INT       k
      0200011AH   SYMBOL    XDATA    INT       x
      0200011CH   SYMBOL    XDATA    INT       y
      0200011EH   SYMBOL    XDATA    INT       xx
      00000007H   SYMBOL    DATA     BYTE      qm
      02000120H   SYMBOL    XDATA    LONG      ulOffset
      02000124H   SYMBOL    XDATA    ---       ywbuf
      02000144H   SYMBOL    XDATA    ---       temp
      ---         BLOCKEND  ---      ---       LVL=1
      01000576H   LINE      CODE     ---       #603
      0100058DH   LINE      CODE     ---       #604
      0100058DH   LINE      CODE     ---       #613
      010005B3H   LINE      CODE     ---       #614
      010005B3H   LINE      CODE     ---       #615
      010005CBH   LINE      CODE     ---       #616
      010005CBH   LINE      CODE     ---       #617
      010005D0H   LINE      CODE     ---       #618
      010005D4H   LINE      CODE     ---       #620
      010005D4H   LINE      CODE     ---       #622
      010005D4H   LINE      CODE     ---       #623
      010005EEH   LINE      CODE     ---       #625
      01000600H   LINE      CODE     ---       #627
      01000603H   LINE      CODE     ---       #628
      01000603H   LINE      CODE     ---       #629
      0100062AH   LINE      CODE     ---       #630
      01000635H   LINE      CODE     ---       #632
      0100063CH   LINE      CODE     ---       #633
      0100063CH   LINE      CODE     ---       #634
      01000658H   LINE      CODE     ---       #635
      01000658H   LINE      CODE     ---       #636
      0100065FH   LINE      CODE     ---       #638
      0100068EH   LINE      CODE     ---       #639
      0100068EH   LINE      CODE     ---       #640
LX51 LINKER/LOCATER V4.66.66.0                                                        10/09/2018  12:38:49  PAGE 36


      010006BEH   LINE      CODE     ---       #641
      010006CDH   LINE      CODE     ---       #642
      010006CFH   LINE      CODE     ---       #644
      010006CFH   LINE      CODE     ---       #645
      010006FFH   LINE      CODE     ---       #646
      01000719H   LINE      CODE     ---       #647
      01000719H   LINE      CODE     ---       #648
      0100072AH   LINE      CODE     ---       #649
      0100074CH   LINE      CODE     ---       #650
      0100074CH   LINE      CODE     ---       #651
      0100075DH   LINE      CODE     ---       #652
      ---         BLOCKEND  ---      ---       LVL=0

      01000AB8H   BLOCK     CODE     ---       LVL=0
      02000155H   SYMBOL    XDATA    WORD      x0
      02000157H   SYMBOL    XDATA    WORD      y0
      02000159H   SYMBOL    XDATA    ---       s
      01000ACFH   BLOCK     CODE     NEAR LAB  LVL=1
      0200015CH   SYMBOL    XDATA    INT       i
      00000002H   SYMBOL    DATA     INT       j
      00000004H   SYMBOL    DATA     INT       k
      0200015EH   SYMBOL    XDATA    INT       x
      02000160H   SYMBOL    XDATA    INT       y
      00000006H   SYMBOL    DATA     INT       xx
      00000007H   SYMBOL    DATA     BYTE      qm
      02000162H   SYMBOL    XDATA    LONG      ulOffset
      02000166H   SYMBOL    XDATA    ---       ywbuf
      02000186H   SYMBOL    XDATA    ---       temp
      ---         BLOCKEND  ---      ---       LVL=1
      01000AB8H   LINE      CODE     ---       #655
      01000ACFH   LINE      CODE     ---       #656
      01000ACFH   LINE      CODE     ---       #665
      01000AF3H   LINE      CODE     ---       #666
      01000AF3H   LINE      CODE     ---       #667
      01000B0BH   LINE      CODE     ---       #668
      01000B0BH   LINE      CODE     ---       #669
      01000B10H   LINE      CODE     ---       #670
      01000B14H   LINE      CODE     ---       #672
      01000B14H   LINE      CODE     ---       #674
      01000B14H   LINE      CODE     ---       #675
      01000B2CH   LINE      CODE     ---       #677
      01000B3EH   LINE      CODE     ---       #679
      01000B41H   LINE      CODE     ---       #680
      01000B41H   LINE      CODE     ---       #681
      01000B68H   LINE      CODE     ---       #682
      01000B73H   LINE      CODE     ---       #684
      01000B7AH   LINE      CODE     ---       #685
      01000B7AH   LINE      CODE     ---       #686
      01000B96H   LINE      CODE     ---       #687
      01000B96H   LINE      CODE     ---       #688
      01000B9DH   LINE      CODE     ---       #690
      01000BCCH   LINE      CODE     ---       #691
      01000BCCH   LINE      CODE     ---       #692
      01000BF5H   LINE      CODE     ---       #693
      01000C08H   LINE      CODE     ---       #694
      01000C08H   LINE      CODE     ---       #701
      01000C19H   LINE      CODE     ---       #702
      01000C3BH   LINE      CODE     ---       #704
      01000C3BH   LINE      CODE     ---       #705
      01000C4FH   LINE      CODE     ---       #706
      ---         BLOCKEND  ---      ---       LVL=0

      01000C50H   BLOCK     CODE     ---       LVL=0
      02000107H   SYMBOL    XDATA    WORD      x
      02000109H   SYMBOL    XDATA    WORD      y
LX51 LINKER/LOCATER V4.66.66.0                                                        10/09/2018  12:38:49  PAGE 37


      0200010BH   SYMBOL    XDATA    WORD      fc
      0200010DH   SYMBOL    XDATA    WORD      bc
      0200010FH   SYMBOL    XDATA    ---       s
      01000C64H   BLOCK     CODE     NEAR LAB  LVL=1
      00000003H   SYMBOL    DATA     BYTE      i
      00000002H   SYMBOL    DATA     BYTE      j
      02000112H   SYMBOL    XDATA    WORD      k
      02000114H   SYMBOL    XDATA    WORD      HZnum
      ---         BLOCKEND  ---      ---       LVL=1
      01000C50H   LINE      CODE     ---       #709
      01000C64H   LINE      CODE     ---       #710
      01000C64H   LINE      CODE     ---       #714
      01000C6DH   LINE      CODE     ---       #715
      01000C80H   LINE      CODE     ---       #716
      01000C80H   LINE      CODE     ---       #717
      01000C88H   LINE      CODE     ---       #718
      01000C88H   LINE      CODE     ---       #719
      01000CA8H   LINE      CODE     ---       #720
      01000CA8H   LINE      CODE     ---       #721
      01000CF8H   LINE      CODE     ---       #722
      01000D2EH   LINE      CODE     ---       #723
      01000D30H   LINE      CODE     ---       #724
      01000D30H   LINE      CODE     ---       #725
      01000D32H   LINE      CODE     ---       #726
      01000D32H   LINE      CODE     ---       #727
      01000D7BH   LINE      CODE     ---       #729
      01000D7BH   LINE      CODE     ---       #730
      01000D9AH   LINE      CODE     ---       #731
      01000D9AH   LINE      CODE     ---       #732
      01000DA0H   LINE      CODE     ---       #733
      01000DA6H   LINE      CODE     ---       #736
      01000DA6H   LINE      CODE     ---       #737
      01000DB7H   LINE      CODE     ---       #738
      01000DCFH   LINE      CODE     ---       #739
      01000DD2H   LINE      CODE     ---       #743
      01000DDCH   LINE      CODE     ---       #745
      01000DDFH   LINE      CODE     ---       #746
      ---         BLOCKEND  ---      ---       LVL=0

      010002EEH   BLOCK     CODE     ---       LVL=0
      0200019DH   SYMBOL    XDATA    WORD      x
      0200019FH   SYMBOL    XDATA    WORD      y
      020001A1H   SYMBOL    XDATA    WORD      fc
      020001A3H   SYMBOL    XDATA    WORD      bc
      020001A5H   SYMBOL    XDATA    ---       s
      01000304H   BLOCK     CODE     NEAR LAB  LVL=1
      020001A8H   SYMBOL    XDATA    BYTE      i
      020001A9H   SYMBOL    XDATA    BYTE      j
      020001AAH   SYMBOL    XDATA    WORD      k
      020001ACH   SYMBOL    XDATA    WORD      x0
      ---         BLOCKEND  ---      ---       LVL=1
      010002EEH   LINE      CODE     ---       #749
      01000304H   LINE      CODE     ---       #750
      01000304H   LINE      CODE     ---       #753
      0100030CH   LINE      CODE     ---       #755
      0100031FH   LINE      CODE     ---       #756
      0100031FH   LINE      CODE     ---       #757
      01000327H   LINE      CODE     ---       #758
      01000327H   LINE      CODE     ---       #759
      01000341H   LINE      CODE     ---       #760
      01000341H   LINE      CODE     ---       #761
      01000393H   LINE      CODE     ---       #762
      01000393H   LINE      CODE     ---       #763
      01000397H   LINE      CODE     ---       #764
      01000397H   LINE      CODE     ---       #765
LX51 LINKER/LOCATER V4.66.66.0                                                        10/09/2018  12:38:49  PAGE 38


      0100039CH   LINE      CODE     ---       #766
      0100039CH   LINE      CODE     ---       #767
      0100040FH   LINE      CODE     ---       #768
      0100040FH   LINE      CODE     ---       #769
      0100044DH   LINE      CODE     ---       #770
      0100044DH   LINE      CODE     ---       #771
      0100045CH   LINE      CODE     ---       #772
      01000461H   LINE      CODE     ---       #773
      01000461H   LINE      CODE     ---       #774
      010004DAH   LINE      CODE     ---       #776
      010004DAH   LINE      CODE     ---       #777
      0100051EH   LINE      CODE     ---       #778
      0100051EH   LINE      CODE     ---       #779
      0100052DH   LINE      CODE     ---       #780
      0100053CH   LINE      CODE     ---       #781
      0100053CH   LINE      CODE     ---       #782
      0100054DH   LINE      CODE     ---       #783
      01000565H   LINE      CODE     ---       #784
      01000568H   LINE      CODE     ---       #786
      01000572H   LINE      CODE     ---       #788
      01000575H   LINE      CODE     ---       #789
      ---         BLOCKEND  ---      ---       LVL=0

      ---         MODULE    ---      ---       DS18B20
      00000020H.2 PUBLIC    BIT      BIT       fg
      020001BEH   PUBLIC    XDATA    BYTE      xiaoshu2
      020001BDH   PUBLIC    XDATA    BYTE      xiaoshu1
      020001BCH   PUBLIC    XDATA    BYTE      date
      020001BAH   PUBLIC    XDATA    WORD      svalue
      020001B9H   PUBLIC    XDATA    BYTE      xiaoshu
      020001B8H   PUBLIC    XDATA    BYTE      tempL
      020001B7H   PUBLIC    XDATA    BYTE      tempH
      01000DE0H   PUBLIC    CODE     ---       _ReadTemperature
      010017D1H   PUBLIC    CODE     ---       _WriteOneChar
      01001760H   PUBLIC    CODE     ---       ReadOneChar
      01001789H   PUBLIC    CODE     ---       Init_DS18B20
      010018EDH   PUBLIC    CODE     ---       _delay
      00000080H   SFRSYM    DATA     BYTE      P0
      00000090H   SFRSYM    DATA     BYTE      P1
      000000A0H   SFRSYM    DATA     BYTE      P2
      000000B0H   SFRSYM    DATA     BYTE      P3
      000000B0H.4 SFRSYM    DATA     BIT       T0
      000000D0H.6 SFRSYM    DATA     BIT       AC
      000000B0H.5 SFRSYM    DATA     BIT       T1
      00000090H   SFRSYM    DATA     BIT       T2
      000000A8H.7 SFRSYM    DATA     BIT       EA
      000000A8H   SFRSYM    DATA     BYTE      IE
      000000A0H.2 SFRSYM    DATA     BIT       DQ
      000000C8H.6 SFRSYM    DATA     BIT       EXF2
      000000B0H.7 SFRSYM    DATA     BIT       RD
      000000A8H.4 SFRSYM    DATA     BIT       ES
      000000B8H   SFRSYM    DATA     BYTE      IP
      00000098H   SFRSYM    DATA     BIT       RI
      000000B0H.2 SFRSYM    DATA     BIT       INT0
      000000D0H.7 SFRSYM    DATA     BIT       CY
      00000098H.1 SFRSYM    DATA     BIT       TI
      000000B0H.3 SFRSYM    DATA     BIT       INT1
      000000CBH   SFRSYM    DATA     BYTE      RCAP2H
      000000B8H.4 SFRSYM    DATA     BIT       PS
      00000081H   SFRSYM    DATA     BYTE      SP
      00000090H.1 SFRSYM    DATA     BIT       T2EX
      000000D0H.2 SFRSYM    DATA     BIT       OV
      000000CAH   SFRSYM    DATA     BYTE      RCAP2L
      000000C8H.1 SFRSYM    DATA     BIT       C_T2
      000000B0H.6 SFRSYM    DATA     BIT       WR
LX51 LINKER/LOCATER V4.66.66.0                                                        10/09/2018  12:38:49  PAGE 39


      000000C8H.5 SFRSYM    DATA     BIT       RCLK
      000000C8H.4 SFRSYM    DATA     BIT       TCLK
      00000099H   SFRSYM    DATA     BYTE      SBUF
      00000087H   SFRSYM    DATA     BYTE      PCON
      00000098H   SFRSYM    DATA     BYTE      SCON
      00000089H   SFRSYM    DATA     BYTE      TMOD
      00000088H   SFRSYM    DATA     BYTE      TCON
      00000088H.1 SFRSYM    DATA     BIT       IE0
      00000088H.3 SFRSYM    DATA     BIT       IE1
      000000F0H   SFRSYM    DATA     BYTE      B
      000000C8H   SFRSYM    DATA     BIT       CP_RL2
      000000E0H   SFRSYM    DATA     BYTE      ACC
      000000A8H.1 SFRSYM    DATA     BIT       ET0
      000000A8H.3 SFRSYM    DATA     BIT       ET1
      00000088H.5 SFRSYM    DATA     BIT       TF0
      000000A8H.5 SFRSYM    DATA     BIT       ET2
      00000088H.7 SFRSYM    DATA     BIT       TF1
      000000C8H.7 SFRSYM    DATA     BIT       TF2
      00000098H.2 SFRSYM    DATA     BIT       RB8
      0000008CH   SFRSYM    DATA     BYTE      TH0
      000000A8H   SFRSYM    DATA     BIT       EX0
      00000088H   SFRSYM    DATA     BIT       IT0
      0000008DH   SFRSYM    DATA     BYTE      TH1
      00000098H.3 SFRSYM    DATA     BIT       TB8
      000000A8H.2 SFRSYM    DATA     BIT       EX1
      00000088H.2 SFRSYM    DATA     BIT       IT1
      000000CDH   SFRSYM    DATA     BYTE      TH2
      000000D0H   SFRSYM    DATA     BIT       P
      00000098H.7 SFRSYM    DATA     BIT       SM0
      0000008AH   SFRSYM    DATA     BYTE      TL0
      00000098H.6 SFRSYM    DATA     BIT       SM1
      0000008BH   SFRSYM    DATA     BYTE      TL1
      00000098H.5 SFRSYM    DATA     BIT       SM2
      000000CCH   SFRSYM    DATA     BYTE      TL2
      000000B8H.1 SFRSYM    DATA     BIT       PT0
      000000B8H.3 SFRSYM    DATA     BIT       PT1
      000000D0H.3 SFRSYM    DATA     BIT       RS0
      000000B8H.5 SFRSYM    DATA     BIT       PT2
      00000088H.4 SFRSYM    DATA     BIT       TR0
      000000D0H.4 SFRSYM    DATA     BIT       RS1
      00000088H.6 SFRSYM    DATA     BIT       TR1
      000000C8H.2 SFRSYM    DATA     BIT       TR2
      000000B8H   SFRSYM    DATA     BIT       PX0
      000000B8H.2 SFRSYM    DATA     BIT       PX1
      00000083H   SFRSYM    DATA     BYTE      DPH
      00000082H   SFRSYM    DATA     BYTE      DPL
      000000C8H.3 SFRSYM    DATA     BIT       EXEN2
      00000098H.4 SFRSYM    DATA     BIT       REN
      000000C8H   SFRSYM    DATA     BYTE      T2CON
      000000B0H   SFRSYM    DATA     BIT       RXD
      000000B0H.1 SFRSYM    DATA     BIT       TXD
      000000D0H.5 SFRSYM    DATA     BIT       F0
      000000D0H   SFRSYM    DATA     BYTE      PSW

      010018EDH   BLOCK     CODE     ---       LVL=0
      00000006H   SYMBOL    DATA     WORD      i
      010018EDH   LINE      CODE     ---       #23
      010018EDH   LINE      CODE     ---       #24
      010018EDH   LINE      CODE     ---       #25
      010018F7H   LINE      CODE     ---       #26
      ---         BLOCKEND  ---      ---       LVL=0

      01001789H   BLOCK     CODE     ---       LVL=0
      01001789H   BLOCK     CODE     NEAR LAB  LVL=1
      00000005H   SYMBOL    DATA     BYTE      x
LX51 LINKER/LOCATER V4.66.66.0                                                        10/09/2018  12:38:49  PAGE 40


      ---         BLOCKEND  ---      ---       LVL=1
      01001789H   LINE      CODE     ---       #34
      01001789H   LINE      CODE     ---       #35
      01001789H   LINE      CODE     ---       #36
      0100178BH   LINE      CODE     ---       #37
      0100178DH   LINE      CODE     ---       #38
      01001793H   LINE      CODE     ---       #39
      01001795H   LINE      CODE     ---       #40
      0100179CH   LINE      CODE     ---       #41
      0100179EH   LINE      CODE     ---       #42
      010017A5H   LINE      CODE     ---       #43
      010017AAH   LINE      CODE     ---       #44
      ---         BLOCKEND  ---      ---       LVL=0

      01001760H   BLOCK     CODE     ---       LVL=0
      01001760H   BLOCK     CODE     NEAR LAB  LVL=1
      00000005H   SYMBOL    DATA     BYTE      i
      00000003H   SYMBOL    DATA     BYTE      dat
      ---         BLOCKEND  ---      ---       LVL=1
      01001760H   LINE      CODE     ---       #54
      01001760H   LINE      CODE     ---       #55
      01001760H   LINE      CODE     ---       #56
      01001761H   LINE      CODE     ---       #57
      01001762H   LINE      CODE     ---       #58
      01001764H   LINE      CODE     ---       #59
      01001764H   LINE      CODE     ---       #60
      01001766H   LINE      CODE     ---       #61
      0100176DH   LINE      CODE     ---       #62
      0100176FH   LINE      CODE     ---       #63
      01001773H   LINE      CODE     ---       #64
      01001775H   LINE      CODE     ---       #65
      01001778H   LINE      CODE     ---       #66
      0100177BH   LINE      CODE     ---       #67
      01001782H   LINE      CODE     ---       #68
      01001784H   LINE      CODE     ---       #69
      01001788H   LINE      CODE     ---       #70
      ---         BLOCKEND  ---      ---       LVL=0

      010017D1H   BLOCK     CODE     ---       LVL=0
      00000005H   SYMBOL    DATA     BYTE      dat
      010017D3H   BLOCK     CODE     NEAR LAB  LVL=1
      00000003H   SYMBOL    DATA     BYTE      i
      ---         BLOCKEND  ---      ---       LVL=1
      010017D1H   LINE      CODE     ---       #80
      010017D3H   LINE      CODE     ---       #81
      010017D3H   LINE      CODE     ---       #82
      010017D3H   LINE      CODE     ---       #83
      010017D5H   LINE      CODE     ---       #84
      010017D5H   LINE      CODE     ---       #85
      010017D7H   LINE      CODE     ---       #86
      010017DBH   LINE      CODE     ---       #87
      010017E2H   LINE      CODE     ---       #88
      010017E4H   LINE      CODE     ---       #89
      010017E8H   LINE      CODE     ---       #90
      010017EAH   LINE      CODE     ---       #91
      ---         BLOCKEND  ---      ---       LVL=0

      01000DE0H   BLOCK     CODE     ---       LVL=0
      0200010DH   SYMBOL    XDATA    ---       tempstr
      01000DE0H   LINE      CODE     ---       #102
      01000DEBH   LINE      CODE     ---       #103
      01000DEBH   LINE      CODE     ---       #104
      01000DEEH   LINE      CODE     ---       #105
      01000DF3H   LINE      CODE     ---       #106
      01000DF8H   LINE      CODE     ---       #107
LX51 LINKER/LOCATER V4.66.66.0                                                        10/09/2018  12:38:49  PAGE 41


      01000DFFH   LINE      CODE     ---       #108
      01000E02H   LINE      CODE     ---       #109
      01000E07H   LINE      CODE     ---       #110
      01000E0CH   LINE      CODE     ---       #111
      01000E14H   LINE      CODE     ---       #112
      01000E1CH   LINE      CODE     ---       #113
      01000E21H   LINE      CODE     ---       #114
      01000E21H   LINE      CODE     ---       #115
      01000E25H   LINE      CODE     ---       #116
      01000E2CH   LINE      CODE     ---       #117
      01000E2EH   LINE      CODE     ---       #118
      01000E2EH   LINE      CODE     ---       #119
      01000E4DH   LINE      CODE     ---       #120
      01000E66H   LINE      CODE     ---       #121
      01000E81H   LINE      CODE     ---       #122
      01000E8EH   LINE      CODE     ---       #124
      01000EAEH   LINE      CODE     ---       #125
      01000ED3H   LINE      CODE     ---       #126
      01000EDBH   LINE      CODE     ---       #127
      01000EEDH   LINE      CODE     ---       #128
      01000EF5H   LINE      CODE     ---       #129
      01000EFCH   LINE      CODE     ---       #131
      01000F04H   LINE      CODE     ---       #132
      ---         BLOCKEND  ---      ---       LVL=0

      ---         MODULE    ---      ---       ?C_STARTUP
      01000000H   PUBLIC    CODE     ---       ?C_STARTUP

      ---         MODULE    ---      ---       ?C?CLDPTR
      01000046H   PUBLIC    CODE     ---       ?C?CLDPTR

      ---         MODULE    ---      ---       ?C?CLDOPTR
      0100005FH   PUBLIC    CODE     ---       ?C?CLDOPTR

      ---         MODULE    ---      ---       ?C?CSTPTR
      0100008CH   PUBLIC    CODE     ---       ?C?CSTPTR

      ---         MODULE    ---      ---       ?C?CSTOPTR
      0100009EH   PUBLIC    CODE     ---       ?C?CSTOPTR

      ---         MODULE    ---      ---       ?C?UIDIV
      010000C0H   PUBLIC    CODE     ---       ?C?UIDIV

      ---         MODULE    ---      ---       ?C?SIDIV
      01000115H   PUBLIC    CODE     ---       ?C?SIDIV

      ---         MODULE    ---      ---       ?C?IILDX
      0100014BH   PUBLIC    CODE     ---       ?C?IILDX

      ---         MODULE    ---      ---       ?C?ILDIX
      01000161H   PUBLIC    CODE     ---       ?C?ILDIX

      ---         MODULE    ---      ---       ?C?LMUL
      01000177H   PUBLIC    CODE     ---       ?C?LMUL

      ---         MODULE    ---      ---       ?C?ULDIV
      01000202H   PUBLIC    CODE     ---       ?C?ULDIV

      ---         MODULE    ---      ---       ?C?ULCMP
      01000294H   PUBLIC    CODE     ---       ?C?ULCMP

      ---         MODULE    ---      ---       ?C?LSTXDATA
      010002A5H   PUBLIC    CODE     ---       ?C?LSTXDATA

      ---         MODULE    ---      ---       ?C?LSTKXDATA
LX51 LINKER/LOCATER V4.66.66.0                                                        10/09/2018  12:38:49  PAGE 42


      010002B1H   PUBLIC    CODE     ---       ?C?LSTKXDATA

      ---         MODULE    ---      ---       ?C?OFFXADD
      010002E2H   PUBLIC    CODE     ---       ?C?OFFXADD

      ---         MODULE    ---      ---       STRLEN
      0100000EH   PUBLIC    CODE     ---       _STRLEN

      ---         MODULE    ---      ---       ?C_INIT
      01001245H   PUBLIC    CODE     ---       ?C_START



*** WARNING L57: UNCALLED FUNCTION, IGNORED FOR OVERLAY PROCESS
    NAME:    _DELAY_MS/DELAY

*** WARNING L57: UNCALLED FUNCTION, IGNORED FOR OVERLAY PROCESS
    NAME:    _UARTSENDSTRING/UART

*** WARNING L57: UNCALLED FUNCTION, IGNORED FOR OVERLAY PROCESS
    NAME:    CLEARBUF/UART

*** WARNING L57: UNCALLED FUNCTION, IGNORED FOR OVERLAY PROCESS
    NAME:    _UART2_SENDSTRING/UART2

*** WARNING L57: UNCALLED FUNCTION, IGNORED FOR OVERLAY PROCESS
    NAME:    _UART2SENDDATA/UART2

*** WARNING L57: UNCALLED FUNCTION, IGNORED FOR OVERLAY PROCESS
    NAME:    CLEARBUF2/UART2

*** WARNING L57: UNCALLED FUNCTION, IGNORED FOR OVERLAY PROCESS
    NAME:    _GET_LIGHT_VALUE/ADC

*** WARNING L57: UNCALLED FUNCTION, IGNORED FOR OVERLAY PROCESS
    NAME:    _DISPLAY_ASCII8X16/TFT_LCD

*** WARNING L57: UNCALLED FUNCTION, IGNORED FOR OVERLAY PROCESS
    NAME:    _GUI_DRAWFONT_GBK16/TFT_LCD

Program Size: data=17.3 xdata=469 const=4682 code=6424
LX51 RUN COMPLETE.  9 WARNING(S),  0 ERROR(S)
