###############################################################################
#                                                                             #
# IAR C/C++ Compiler V8.10.3.10338/W32 for 8051         29/Sep/2018  17:09:03 #
# Copyright 2004-2011 IAR Systems AB.                                         #
#                                                                             #
#    Core               =  plain                                              #
#    Code model         =  banked                                             #
#    Data model         =  large                                              #
#    Calling convention =  xdata reentrant                                    #
#    Constant location  =  data_rom                                           #
#    Dptr setup         =  1,16                                               #
#    Source file        =  E:\BYSJ\bysj2018\SRC\11\ZigBeePro\Projects\zstack\ #
#                          Samples\SampleApp\Source\dig_sensor.c              #
#    Command line       =  -f E:\BYSJ\bysj2018\SRC\11\ZigBeePro\Projects\zsta #
#                          ck\Samples\SampleApp\CC2530DB\..\..\..\Tools\CC253 #
#                          0DB\f8wEndev.cfg (-DCPU32MHZ -DROOT=__near_func    #
#                          -DMAC_CFG_TX_DATA_MAX=3 -DMAC_CFG_TX_MAX=6         #
#                          -DMAC_CFG_RX_MAX=3) -f E:\BYSJ\bysj2018\SRC\11\Zig #
#                          BeePro\Projects\zstack\Samples\SampleApp\CC2530DB\ #
#                          ..\..\..\Tools\CC2530DB\f8wConfig.cfg              #
#                          (-DZIGBEEPRO -DSECURE=0 -DZG_SECURE_DYNAMIC=0      #
#                          -DREFLECTOR -DDEFAULT_CHANLIST=0x00000800          #
#                          -DZDAPP_CONFIG_PAN_ID=0x1234                       #
#                          -DNWK_START_DELAY=100 -DEXTENDED_JOINING_RANDOM_MA #
#                          SK=0x007F -DBEACON_REQUEST_DELAY=100               #
#                          -DBEACON_REQ_DELAY_MASK=0x00FF                     #
#                          -DLINK_STATUS_JITTER_MASK=0x007F                   #
#                          -DROUTE_EXPIRY_TIME=30 -DAPSC_ACK_WAIT_DURATION_PO #
#                          LLED=3000 -DNWK_INDIRECT_MSG_TIMEOUT=7             #
#                          -DMAX_RREQ_ENTRIES=8 -DAPSC_MAX_FRAME_RETRIES=3    #
#                          -DNWK_MAX_DATA_RETRIES=2                           #
#                          -DMAX_POLL_FAILURE_RETRIES=2 -DMAX_BCAST=9         #
#                          -DAPS_MAX_GROUPS=16 -DMAX_RTG_ENTRIES=40           #
#                          -DNWK_MAX_BINDING_ENTRIES=4                        #
#                          -DMAX_BINDING_CLUSTER_IDS=4 "-DDEFAULT_KEY={0x01,  #
#                          0x03, 0x05, 0x07, 0x09, 0x0B, 0x0D, 0x0F, 0x00,    #
#                          0x02, 0x04, 0x06, 0x08, 0x0A, 0x0C, 0x0D}"         #
#                          -DMAC_MAX_FRAME_SIZE=116                           #
#                          -DZDNWKMGR_MIN_TRANSMISSIONS=20 "-DCONST=const     #
#                          __code" -DGENERIC=__generic                        #
#                          -DRFD_RCVC_ALWAYS_ON=FALSE -DPOLL_RATE=1000        #
#                          -DQUEUED_POLL_RATE=100 -DRESPONSE_POLL_RATE=100)   #
#                          -DREJOIN_POLL_RATE=440 E:\BYSJ\bysj2018\SRC\11\Zig #
#                          BeePro\Projects\zstack\Samples\SampleApp\Source\di #
#                          g_sensor.c -D NWK_AUTO_POLL -D ZTOOL_P1 -D         #
#                          MT_TASK -D MT_SYS_FUNC -D MT_ZDO_FUNC -D           #
#                          LCD_SUPPORTED=DEBUG -lC E:\BYSJ\bysj2018\SRC\11\Zi #
#                          gBeePro\Projects\zstack\Samples\SampleApp\CC2530DB #
#                          \EndDeviceEB\List\ -lA E:\BYSJ\bysj2018\SRC\11\Zig #
#                          BeePro\Projects\zstack\Samples\SampleApp\CC2530DB\ #
#                          EndDeviceEB\List\ --diag_suppress Pe001,Pa010 -o   #
#                          E:\BYSJ\bysj2018\SRC\11\ZigBeePro\Projects\zstack\ #
#                          Samples\SampleApp\CC2530DB\EndDeviceEB\Obj\ -e     #
#                          --no_code_motion --debug --core=plain --dptr=16,1  #
#                          --data_model=large --code_model=banked             #
#                          --calling_convention=xdata_reentrant               #
#                          --place_constants=data_rom --nr_virtual_regs 16    #
#                          -I E:\BYSJ\bysj2018\SRC\11\ZigBeePro\Projects\zsta #
#                          ck\Samples\SampleApp\CC2530DB\ -I                  #
#                          E:\BYSJ\bysj2018\SRC\11\ZigBeePro\Projects\zstack\ #
#                          Samples\SampleApp\CC2530DB\..\Source\ -I           #
#                          E:\BYSJ\bysj2018\SRC\11\ZigBeePro\Projects\zstack\ #
#                          Samples\SampleApp\CC2530DB\..\..\..\ZMain\TI2530DB #
#                          \ -I E:\BYSJ\bysj2018\SRC\11\ZigBeePro\Projects\zs #
#                          tack\Samples\SampleApp\CC2530DB\..\..\..\..\..\Com #
#                          ponents\hal\include\ -I E:\BYSJ\bysj2018\SRC\11\Zi #
#                          gBeePro\Projects\zstack\Samples\SampleApp\CC2530DB #
#                          \..\..\..\..\..\Components\hal\target\CC2530EB\    #
#                          -I E:\BYSJ\bysj2018\SRC\11\ZigBeePro\Projects\zsta #
#                          ck\Samples\SampleApp\CC2530DB\..\..\..\..\..\Compo #
#                          nents\mac\include\ -I E:\BYSJ\bysj2018\SRC\11\ZigB #
#                          eePro\Projects\zstack\Samples\SampleApp\CC2530DB\. #
#                          .\..\..\..\..\Components\mac\high_level\ -I        #
#                          E:\BYSJ\bysj2018\SRC\11\ZigBeePro\Projects\zstack\ #
#                          Samples\SampleApp\CC2530DB\..\..\..\..\..\Componen #
#                          ts\mac\low_level\srf04\ -I                         #
#                          E:\BYSJ\bysj2018\SRC\11\ZigBeePro\Projects\zstack\ #
#                          Samples\SampleApp\CC2530DB\..\..\..\..\..\Componen #
#                          ts\mac\low_level\srf04\single_chip\ -I             #
#                          E:\BYSJ\bysj2018\SRC\11\ZigBeePro\Projects\zstack\ #
#                          Samples\SampleApp\CC2530DB\..\..\..\..\..\Componen #
#                          ts\mt\ -I E:\BYSJ\bysj2018\SRC\11\ZigBeePro\Projec #
#                          ts\zstack\Samples\SampleApp\CC2530DB\..\..\..\..\. #
#                          .\Components\osal\include\ -I                      #
#                          E:\BYSJ\bysj2018\SRC\11\ZigBeePro\Projects\zstack\ #
#                          Samples\SampleApp\CC2530DB\..\..\..\..\..\Componen #
#                          ts\services\saddr\ -I E:\BYSJ\bysj2018\SRC\11\ZigB #
#                          eePro\Projects\zstack\Samples\SampleApp\CC2530DB\. #
#                          .\..\..\..\..\Components\services\sdata\ -I        #
#                          E:\BYSJ\bysj2018\SRC\11\ZigBeePro\Projects\zstack\ #
#                          Samples\SampleApp\CC2530DB\..\..\..\..\..\Componen #
#                          ts\stack\af\ -I E:\BYSJ\bysj2018\SRC\11\ZigBeePro\ #
#                          Projects\zstack\Samples\SampleApp\CC2530DB\..\..\. #
#                          .\..\..\Components\stack\nwk\ -I                   #
#                          E:\BYSJ\bysj2018\SRC\11\ZigBeePro\Projects\zstack\ #
#                          Samples\SampleApp\CC2530DB\..\..\..\..\..\Componen #
#                          ts\stack\sapi\ -I E:\BYSJ\bysj2018\SRC\11\ZigBeePr #
#                          o\Projects\zstack\Samples\SampleApp\CC2530DB\..\.. #
#                          \..\..\..\Components\stack\sec\ -I                 #
#                          E:\BYSJ\bysj2018\SRC\11\ZigBeePro\Projects\zstack\ #
#                          Samples\SampleApp\CC2530DB\..\..\..\..\..\Componen #
#                          ts\stack\sys\ -I E:\BYSJ\bysj2018\SRC\11\ZigBeePro #
#                          \Projects\zstack\Samples\SampleApp\CC2530DB\..\..\ #
#                          ..\..\..\Components\stack\zdo\ -I                  #
#                          E:\BYSJ\bysj2018\SRC\11\ZigBeePro\Projects\zstack\ #
#                          Samples\SampleApp\CC2530DB\..\..\..\..\..\Componen #
#                          ts\zmac\ -I E:\BYSJ\bysj2018\SRC\11\ZigBeePro\Proj #
#                          ects\zstack\Samples\SampleApp\CC2530DB\..\..\..\.. #
#                          \..\Components\zmac\f8w\ -Ohz --require_prototypes #
#    List file          =  E:\BYSJ\bysj2018\SRC\11\ZigBeePro\Projects\zstack\ #
#                          Samples\SampleApp\CC2530DB\EndDeviceEB\List\dig_se #
#                          nsor.lst                                           #
#    Object file        =  E:\BYSJ\bysj2018\SRC\11\ZigBeePro\Projects\zstack\ #
#                          Samples\SampleApp\CC2530DB\EndDeviceEB\Obj\dig_sen #
#                          sor.r51                                            #
#                                                                             #
#                                                                             #
###############################################################################

E:\BYSJ\bysj2018\SRC\11\ZigBeePro\Projects\zstack\Samples\SampleApp\Source\dig_sensor.c
      1          #include "dig_sensor.h"

   \                                 In  segment SFR_AN, at 0x80
   \   union <unnamed> volatile __sfr _A_P0
   \                     _A_P0:
   \   000000                DS 1

   \                                 In  segment SFR_AN, at 0x90
   \   union <unnamed> volatile __sfr _A_P1
   \                     _A_P1:
   \   000000                DS 1

   \                                 In  segment SFR_AN, at 0xf3
   \   unsigned char volatile __sfr P0SEL
   \                     P0SEL:
   \   000000                DS 1

   \                                 In  segment SFR_AN, at 0xf6
   \   unsigned char volatile __sfr P1INP
   \                     P1INP:
   \   000000                DS 1

   \                                 In  segment SFR_AN, at 0xfd
   \   unsigned char volatile __sfr P0DIR
   \                     P0DIR:
   \   000000                DS 1

   \                                 In  segment SFR_AN, at 0xfe
   \   unsigned char volatile __sfr P1DIR
   \                     P1DIR:
   \   000000                DS 1
      2          
      3          #define DATA_PIN05          P0_5    //定义P0.5口为传感器的输入端
      4          

   \                                 In  segment XDATA_Z, align 1, keep-with-next
      5          uint8 relay_one_value =0;
   \                     relay_one_value:
   \   000000                DS 1
   \   000001                REQUIRE __INIT_XDATA_Z

   \                                 In  segment XDATA_Z, align 1, keep-with-next
      6          uint8 relay_two_value =0;
   \                     relay_two_value:
   \   000000                DS 1
   \   000001                REQUIRE __INIT_XDATA_Z

   \                                 In  segment XDATA_Z, align 1, keep-with-next
      7          uint8 relay_three_value =0;
   \                     relay_three_value:
   \   000000                DS 1
   \   000001                REQUIRE __INIT_XDATA_Z
      8          

   \                                 In  segment BANKED_CODE, align 1, keep-with-next
      9          void InitDigSensor(void)
   \                     InitDigSensor:
     10          {  
   \   000000                ; Saved register size: 0
   \   000000                ; Auto size: 0
     11          #ifdef DEVICE_LIGHT
     12            P0DIR &= ~0x20;;        //P0.5       
     13            P0SEL &= ~0x20;;        //设置P0.5为普通IO口
     14          #endif
     15          #ifdef DEVICE_MQ2
     16            P0DIR &= ~0x40;;        //P0.6      
   \   000000   53FDBF       ANL     0xfd,#0xbf
     17            //P0SEL &= ~0x40;;        //设置P0.6为普通IO口
     18          #endif
     19          #ifdef DEVICE_HT11
     20            P0DIR &= ~0x80;        //P0.7      
   \   000003   53FD7F       ANL     0xfd,#0x7f
     21            P0SEL &= ~0x80;        //设置P0.7为普通IO口
   \   000006   53F37F       ANL     0xf3,#0x7f
     22          #endif
     23            
     24          #ifdef DEVICE_RELAY_PUMP
     25            P1DIR |= (0x01<<5);   //output mode
   \   000009   43FE20       ORL     0xfe,#0x20
     26            P1INP &= ~(0x01<<5);  //Pull up 
   \   00000C   53F6DF       ANL     0xf6,#0xdf
     27            P1_5 = 0;// LOW 	
   \   00000F   C295         CLR     0x90.5
     28          #endif  
     29          #ifdef DEVICE_RELAY_LAMP
     30            P1DIR |= (0x01<<6);   //output mode
   \   000011   43FE40       ORL     0xfe,#0x40
     31            P1INP &= ~(0x01<<6);  //Pull up 
   \   000014   53F6BF       ANL     0xf6,#0xbf
     32            P1_6 = 0;// LOW 	
   \   000017   C296         CLR     0x90.6
     33          #endif
     34          #ifdef DEVICE_RELAY_CLOD
     35            P1DIR |= (0x01<<7);   //output mode
     36            P1INP &= ~(0x01<<7);  //Pull up 
     37            P1_7 = 0;// LOW 	
     38          #endif
     39          }
   \   000019   02....       LJMP    ?BRET
   \   00001C                REQUIRE P0DIR
   \   00001C                REQUIRE P0SEL
   \   00001C                REQUIRE P1DIR
   \   00001C                REQUIRE P1INP
   \   00001C                REQUIRE _A_P1
     40          

   \                                 In  segment BANKED_CODE, align 1, keep-with-next
     41          uint8 GetLightData(void) //人体传感器
   \                     GetLightData:
     42          {
   \   000000                ; Saved register size: 0
   \   000000                ; Auto size: 0
     43            uint8 LightState;
     44            LightState = DATA_PIN05;
     45            
     46            return LightState;
   \   000000   A285         MOV     C,0x80.5
   \   000002   E4           CLR     A
   \   000003   33           RLC     A
   \   000004   F9           MOV     R1,A
   \   000005   02....       LJMP    ?BRET
   \   000008                REQUIRE _A_P0
     47          }
     48          
     49          

   \                                 In  segment BANKED_CODE, align 1, keep-with-next
     50          void CtrlRelyOne(uint8 state) //继电器设备一
   \                     CtrlRelyOne:
     51          {
   \   000000   C082         PUSH    DPL
   \   000002   C083         PUSH    DPH
   \   000004                ; Saved register size: 2
   \   000004                ; Auto size: 0
     52            if(state == 0x01)
   \   000004   7401         MOV     A,#0x1
   \   000006   69           XRL     A,R1
   \   000007   7009         JNZ     ??CtrlRelyOne_0
     53            {
     54              P1_5 = 0x01;
   \   000009   D295         SETB    0x90.5
     55              relay_one_value = 0x01;
   \   00000B   90....       MOV     DPTR,#relay_one_value
   \   00000E   7401         MOV     A,#0x1
   \   000010   8006         SJMP    ??CtrlRelyOne_1
     56            }else
     57            {
     58              P1_5 = 0x00;
   \                     ??CtrlRelyOne_0:
   \   000012   C295         CLR     0x90.5
     59              relay_one_value = 0x00;
   \   000014   90....       MOV     DPTR,#relay_one_value
   \   000017   E4           CLR     A
     60            }
   \                     ??CtrlRelyOne_1:
   \   000018                REQUIRE ?Subroutine0
   \   000018                REQUIRE _A_P1
   \   000018                ; // Fall through to label ?Subroutine0
     61          }

   \                                 In  segment BANKED_CODE, align 1, keep-with-next
   \                     ?Subroutine0:
   \   000000   F0           MOVX    @DPTR,A
   \   000001   D083         POP     DPH
   \   000003   D082         POP     DPL
   \   000005   02....       LJMP    ?BRET
     62          

   \                                 In  segment BANKED_CODE, align 1, keep-with-next
     63          void CtrlRelyTwo(uint8 state) //继电器设备二
   \                     CtrlRelyTwo:
     64          {
   \   000000   C082         PUSH    DPL
   \   000002   C083         PUSH    DPH
   \   000004                ; Saved register size: 2
   \   000004                ; Auto size: 0
     65            if(state == 0x01)
   \   000004   7401         MOV     A,#0x1
   \   000006   69           XRL     A,R1
   \   000007   7009         JNZ     ??CtrlRelyTwo_0
     66            {
     67              P1_6 = 0x01;
   \   000009   D296         SETB    0x90.6
     68              relay_two_value = 0x01;
   \   00000B   90....       MOV     DPTR,#relay_two_value
   \   00000E   7401         MOV     A,#0x1
   \   000010   8006         SJMP    ??CtrlRelyTwo_1
     69            }else
     70            {
     71              P1_6 = 0x00;
   \                     ??CtrlRelyTwo_0:
   \   000012   C296         CLR     0x90.6
     72              relay_two_value = 0x00;
   \   000014   90....       MOV     DPTR,#relay_two_value
   \   000017   E4           CLR     A
     73            }
   \                     ??CtrlRelyTwo_1:
   \   000018   80..         SJMP    ?Subroutine0
   \   00001A                REQUIRE _A_P1
     74          }

   \                                 In  segment BANKED_CODE, align 1, keep-with-next
     75          void CtrlRelyThree(uint8 state) //继电器设备三
   \                     CtrlRelyThree:
     76          {
   \   000000   C082         PUSH    DPL
   \   000002   C083         PUSH    DPH
   \   000004                ; Saved register size: 2
   \   000004                ; Auto size: 0
     77            if(state == 0x01)
   \   000004   7401         MOV     A,#0x1
   \   000006   69           XRL     A,R1
   \   000007   7009         JNZ     ??CtrlRelyThree_0
     78            {
     79              P1_7 = 0x01;
   \   000009   D297         SETB    0x90.7
     80              relay_three_value = 0x01;
   \   00000B   90....       MOV     DPTR,#relay_three_value
   \   00000E   7401         MOV     A,#0x1
   \   000010   8006         SJMP    ??CtrlRelyThree_1
     81            }else
     82            {
     83              P1_7 = 0x00;
   \                     ??CtrlRelyThree_0:
   \   000012   C297         CLR     0x90.7
     84              relay_three_value = 0x00;
   \   000014   90....       MOV     DPTR,#relay_three_value
   \   000017   E4           CLR     A
     85            }
   \                     ??CtrlRelyThree_1:
   \   000018   80..         SJMP    ?Subroutine0
   \   00001A                REQUIRE _A_P1
     86          }

   \                                 In  segment BANK_RELAYS, align 1
   \                     ??InitDigSensor?relay:
   \   000000   12....       LCALL   ?BDISPATCH
   \   000003   ......       DC24    InitDigSensor

   \                                 In  segment BANK_RELAYS, align 1
   \                     ??GetLightData?relay:
   \   000000   12....       LCALL   ?BDISPATCH
   \   000003   ......       DC24    GetLightData

   \                                 In  segment BANK_RELAYS, align 1
   \                     ??CtrlRelyOne?relay:
   \   000000   12....       LCALL   ?BDISPATCH
   \   000003   ......       DC24    CtrlRelyOne

   \                                 In  segment BANK_RELAYS, align 1
   \                     ??CtrlRelyTwo?relay:
   \   000000   12....       LCALL   ?BDISPATCH
   \   000003   ......       DC24    CtrlRelyTwo

   \                                 In  segment BANK_RELAYS, align 1
   \                     ??CtrlRelyThree?relay:
   \   000000   12....       LCALL   ?BDISPATCH
   \   000003   ......       DC24    CtrlRelyThree

   Maximum stack usage in bytes:

     Function      ISTACK PSTACK XSTACK
     --------      ------ ------ ------
     CtrlRelyOne       2      0      0
     CtrlRelyThree     2      0      0
     CtrlRelyTwo       2      0      0
     GetLightData      0      0      0
     InitDigSensor     0      0      0


   Segment part sizes:

     Function/Label        Bytes
     --------------        -----
     _A_P0                    1
     _A_P1                    1
     P0SEL                    1
     P1INP                    1
     P0DIR                    1
     P1DIR                    1
     relay_one_value          1
     relay_two_value          1
     relay_three_value        1
     InitDigSensor           28
     GetLightData             8
     CtrlRelyOne             24
     ?Subroutine0             8
     CtrlRelyTwo             26
     CtrlRelyThree           26
     ??InitDigSensor?relay    6
     ??GetLightData?relay     6
     ??CtrlRelyOne?relay      6
     ??CtrlRelyTwo?relay      6
     ??CtrlRelyThree?relay    6

 
 120 bytes in segment BANKED_CODE
  30 bytes in segment BANK_RELAYS
   6 bytes in segment SFR_AN
   3 bytes in segment XDATA_Z
 
 150 bytes of CODE  memory
   0 bytes of DATA  memory (+ 6 bytes shared)
   3 bytes of XDATA memory

Errors: none
Warnings: none
