///////////////////////////////////////////////////////////////////////////////
//                                                                            /
// IAR C/C++ Compiler V8.10.3.10338/W32 for 8051        29/Sep/2018  17:09:03 /
// Copyright 2004-2011 IAR Systems AB.                                        /
//                                                                            /
//    Core               =  plain                                             /
//    Code model         =  banked                                            /
//    Data model         =  large                                             /
//    Calling convention =  xdata reentrant                                   /
//    Constant location  =  data_rom                                          /
//    Dptr setup         =  1,16                                              /
//    Source file        =  E:\BYSJ\bysj2018\SRC\11\ZigBeePro\Projects\zstack /
//                          \Samples\SampleApp\Source\dig_sensor.c            /
//    Command line       =  -f E:\BYSJ\bysj2018\SRC\11\ZigBeePro\Projects\zst /
//                          ack\Samples\SampleApp\CC2530DB\..\..\..\Tools\CC2 /
//                          530DB\f8wEndev.cfg (-DCPU32MHZ                    /
//                          -DROOT=__near_func -DMAC_CFG_TX_DATA_MAX=3        /
//                          -DMAC_CFG_TX_MAX=6 -DMAC_CFG_RX_MAX=3) -f         /
//                          E:\BYSJ\bysj2018\SRC\11\ZigBeePro\Projects\zstack /
//                          \Samples\SampleApp\CC2530DB\..\..\..\Tools\CC2530 /
//                          DB\f8wConfig.cfg (-DZIGBEEPRO -DSECURE=0          /
//                          -DZG_SECURE_DYNAMIC=0 -DREFLECTOR                 /
//                          -DDEFAULT_CHANLIST=0x00000800                     /
//                          -DZDAPP_CONFIG_PAN_ID=0x1234                      /
//                          -DNWK_START_DELAY=100 -DEXTENDED_JOINING_RANDOM_M /
//                          ASK=0x007F -DBEACON_REQUEST_DELAY=100             /
//                          -DBEACON_REQ_DELAY_MASK=0x00FF                    /
//                          -DLINK_STATUS_JITTER_MASK=0x007F                  /
//                          -DROUTE_EXPIRY_TIME=30 -DAPSC_ACK_WAIT_DURATION_P /
//                          OLLED=3000 -DNWK_INDIRECT_MSG_TIMEOUT=7           /
//                          -DMAX_RREQ_ENTRIES=8 -DAPSC_MAX_FRAME_RETRIES=3   /
//                          -DNWK_MAX_DATA_RETRIES=2                          /
//                          -DMAX_POLL_FAILURE_RETRIES=2 -DMAX_BCAST=9        /
//                          -DAPS_MAX_GROUPS=16 -DMAX_RTG_ENTRIES=40          /
//                          -DNWK_MAX_BINDING_ENTRIES=4                       /
//                          -DMAX_BINDING_CLUSTER_IDS=4                       /
//                          "-DDEFAULT_KEY={0x01, 0x03, 0x05, 0x07, 0x09,     /
//                          0x0B, 0x0D, 0x0F, 0x00, 0x02, 0x04, 0x06, 0x08,   /
//                          0x0A, 0x0C, 0x0D}" -DMAC_MAX_FRAME_SIZE=116       /
//                          -DZDNWKMGR_MIN_TRANSMISSIONS=20 "-DCONST=const    /
//                          __code" -DGENERIC=__generic                       /
//                          -DRFD_RCVC_ALWAYS_ON=FALSE -DPOLL_RATE=1000       /
//                          -DQUEUED_POLL_RATE=100 -DRESPONSE_POLL_RATE=100)  /
//                          -DREJOIN_POLL_RATE=440 E:\BYSJ\bysj2018\SRC\11\Zi /
//                          gBeePro\Projects\zstack\Samples\SampleApp\Source\ /
//                          dig_sensor.c -D NWK_AUTO_POLL -D ZTOOL_P1 -D      /
//                          MT_TASK -D MT_SYS_FUNC -D MT_ZDO_FUNC -D          /
//                          LCD_SUPPORTED=DEBUG -lC                           /
//                          E:\BYSJ\bysj2018\SRC\11\ZigBeePro\Projects\zstack /
//                          \Samples\SampleApp\CC2530DB\EndDeviceEB\List\     /
//                          -lA E:\BYSJ\bysj2018\SRC\11\ZigBeePro\Projects\zs /
//                          tack\Samples\SampleApp\CC2530DB\EndDeviceEB\List\ /
//                           --diag_suppress Pe001,Pa010 -o                   /
//                          E:\BYSJ\bysj2018\SRC\11\ZigBeePro\Projects\zstack /
//                          \Samples\SampleApp\CC2530DB\EndDeviceEB\Obj\ -e   /
//                          --no_code_motion --debug --core=plain             /
//                          --dptr=16,1 --data_model=large                    /
//                          --code_model=banked --calling_convention=xdata_re /
//                          entrant --place_constants=data_rom                /
//                          --nr_virtual_regs 16 -I                           /
//                          E:\BYSJ\bysj2018\SRC\11\ZigBeePro\Projects\zstack /
//                          \Samples\SampleApp\CC2530DB\ -I                   /
//                          E:\BYSJ\bysj2018\SRC\11\ZigBeePro\Projects\zstack /
//                          \Samples\SampleApp\CC2530DB\..\Source\ -I         /
//                          E:\BYSJ\bysj2018\SRC\11\ZigBeePro\Projects\zstack /
//                          \Samples\SampleApp\CC2530DB\..\..\..\ZMain\TI2530 /
//                          DB\ -I E:\BYSJ\bysj2018\SRC\11\ZigBeePro\Projects /
//                          \zstack\Samples\SampleApp\CC2530DB\..\..\..\..\.. /
//                          \Components\hal\include\ -I                       /
//                          E:\BYSJ\bysj2018\SRC\11\ZigBeePro\Projects\zstack /
//                          \Samples\SampleApp\CC2530DB\..\..\..\..\..\Compon /
//                          ents\hal\target\CC2530EB\ -I                      /
//                          E:\BYSJ\bysj2018\SRC\11\ZigBeePro\Projects\zstack /
//                          \Samples\SampleApp\CC2530DB\..\..\..\..\..\Compon /
//                          ents\mac\include\ -I E:\BYSJ\bysj2018\SRC\11\ZigB /
//                          eePro\Projects\zstack\Samples\SampleApp\CC2530DB\ /
//                          ..\..\..\..\..\Components\mac\high_level\ -I      /
//                          E:\BYSJ\bysj2018\SRC\11\ZigBeePro\Projects\zstack /
//                          \Samples\SampleApp\CC2530DB\..\..\..\..\..\Compon /
//                          ents\mac\low_level\srf04\ -I                      /
//                          E:\BYSJ\bysj2018\SRC\11\ZigBeePro\Projects\zstack /
//                          \Samples\SampleApp\CC2530DB\..\..\..\..\..\Compon /
//                          ents\mac\low_level\srf04\single_chip\ -I          /
//                          E:\BYSJ\bysj2018\SRC\11\ZigBeePro\Projects\zstack /
//                          \Samples\SampleApp\CC2530DB\..\..\..\..\..\Compon /
//                          ents\mt\ -I E:\BYSJ\bysj2018\SRC\11\ZigBeePro\Pro /
//                          jects\zstack\Samples\SampleApp\CC2530DB\..\..\..\ /
//                          ..\..\Components\osal\include\ -I                 /
//                          E:\BYSJ\bysj2018\SRC\11\ZigBeePro\Projects\zstack /
//                          \Samples\SampleApp\CC2530DB\..\..\..\..\..\Compon /
//                          ents\services\saddr\ -I                           /
//                          E:\BYSJ\bysj2018\SRC\11\ZigBeePro\Projects\zstack /
//                          \Samples\SampleApp\CC2530DB\..\..\..\..\..\Compon /
//                          ents\services\sdata\ -I                           /
//                          E:\BYSJ\bysj2018\SRC\11\ZigBeePro\Projects\zstack /
//                          \Samples\SampleApp\CC2530DB\..\..\..\..\..\Compon /
//                          ents\stack\af\ -I E:\BYSJ\bysj2018\SRC\11\ZigBeeP /
//                          ro\Projects\zstack\Samples\SampleApp\CC2530DB\..\ /
//                          ..\..\..\..\Components\stack\nwk\ -I              /
//                          E:\BYSJ\bysj2018\SRC\11\ZigBeePro\Projects\zstack /
//                          \Samples\SampleApp\CC2530DB\..\..\..\..\..\Compon /
//                          ents\stack\sapi\ -I E:\BYSJ\bysj2018\SRC\11\ZigBe /
//                          ePro\Projects\zstack\Samples\SampleApp\CC2530DB\. /
//                          .\..\..\..\..\Components\stack\sec\ -I            /
//                          E:\BYSJ\bysj2018\SRC\11\ZigBeePro\Projects\zstack /
//                          \Samples\SampleApp\CC2530DB\..\..\..\..\..\Compon /
//                          ents\stack\sys\ -I E:\BYSJ\bysj2018\SRC\11\ZigBee /
//                          Pro\Projects\zstack\Samples\SampleApp\CC2530DB\.. /
//                          \..\..\..\..\Components\stack\zdo\ -I             /
//                          E:\BYSJ\bysj2018\SRC\11\ZigBeePro\Projects\zstack /
//                          \Samples\SampleApp\CC2530DB\..\..\..\..\..\Compon /
//                          ents\zmac\ -I E:\BYSJ\bysj2018\SRC\11\ZigBeePro\P /
//                          rojects\zstack\Samples\SampleApp\CC2530DB\..\..\. /
//                          .\..\..\Components\zmac\f8w\ -Ohz                 /
//                          --require_prototypes                              /
//    List file          =  E:\BYSJ\bysj2018\SRC\11\ZigBeePro\Projects\zstack /
//                          \Samples\SampleApp\CC2530DB\EndDeviceEB\List\dig_ /
//                          sensor.s51                                        /
//                                                                            /
//                                                                            /
///////////////////////////////////////////////////////////////////////////////

        NAME dig_sensor

        RTMODEL "__SystemLibrary", "CLib"
        RTMODEL "__calling_convention", "xdata_reentrant"
        RTMODEL "__code_model", "banked"
        RTMODEL "__core", "plain"
        RTMODEL "__data_model", "large"
        RTMODEL "__dptr_size", "16"
        RTMODEL "__extended_stack", "disabled"
        RTMODEL "__location_for_constants", "data"
        RTMODEL "__number_of_dptrs", "1"
        RTMODEL "__rt_version", "1"

        RSEG DOVERLAY:DATA:NOROOT(0)
        RSEG IOVERLAY:IDATA:NOROOT(0)
        RSEG ISTACK:IDATA:NOROOT(0)
        RSEG PSTACK:XDATA:NOROOT(0)
        RSEG XSTACK:XDATA:NOROOT(0)

        EXTERN ?BDISPATCH
        EXTERN ?BRET
        EXTERN __INIT_XDATA_Z

        PUBLIC ??CtrlRelyOne?relay
        FUNCTION ??CtrlRelyOne?relay,0203H
        PUBLIC ??CtrlRelyThree?relay
        FUNCTION ??CtrlRelyThree?relay,0203H
        PUBLIC ??CtrlRelyTwo?relay
        FUNCTION ??CtrlRelyTwo?relay,0203H
        PUBLIC ??GetLightData?relay
        FUNCTION ??GetLightData?relay,0203H
        PUBLIC ??InitDigSensor?relay
        FUNCTION ??InitDigSensor?relay,0203H
        PUBLIC CtrlRelyOne
        FUNCTION CtrlRelyOne,0203H
        ARGFRAME XSTACK, 0, STACK
        LOCFRAME ISTACK, 2, STACK
        PUBLIC CtrlRelyThree
        FUNCTION CtrlRelyThree,0203H
        ARGFRAME XSTACK, 0, STACK
        LOCFRAME ISTACK, 2, STACK
        PUBLIC CtrlRelyTwo
        FUNCTION CtrlRelyTwo,0203H
        ARGFRAME XSTACK, 0, STACK
        LOCFRAME ISTACK, 2, STACK
        PUBLIC GetLightData
        FUNCTION GetLightData,0203H
        ARGFRAME XSTACK, 0, STACK
        PUBLIC InitDigSensor
        FUNCTION InitDigSensor,0203H
        ARGFRAME XSTACK, 0, STACK
        PUBWEAK P0DIR
        PUBWEAK P0SEL
        PUBWEAK P1DIR
        PUBWEAK P1INP
        PUBWEAK _A_P0
        PUBWEAK _A_P1
        PUBLIC relay_one_value
        PUBLIC relay_three_value
        PUBLIC relay_two_value
        
        CFI Names cfiNames0
        CFI StackFrame CFA_SP SP IDATA
        CFI StackFrame CFA_PSP16 PSP16 XDATA
        CFI StackFrame CFA_XSP16 XSP16 XDATA
        CFI StaticOverlayFrame CFA_IOVERLAY IOVERLAY
        CFI StaticOverlayFrame CFA_DOVERLAY DOVERLAY
        CFI Resource `PSW.CY`:1, `B.BR0`:1, `B.BR1`:1, `B.BR2`:1, `B.BR3`:1
        CFI Resource `B.BR4`:1, `B.BR5`:1, `B.BR6`:1, `B.BR7`:1, `VB.BR8`:1
        CFI Resource `VB.BR9`:1, `VB.BR10`:1, `VB.BR11`:1, `VB.BR12`:1
        CFI Resource `VB.BR13`:1, `VB.BR14`:1, `VB.BR15`:1, VB:8, B:8, A:8
        CFI Resource PSW:8, DPL0:8, DPH0:8, R0:8, R1:8, R2:8, R3:8, R4:8, R5:8
        CFI Resource R6:8, R7:8, V0:8, V1:8, V2:8, V3:8, V4:8, V5:8, V6:8, V7:8
        CFI Resource V8:8, V9:8, V10:8, V11:8, V12:8, V13:8, V14:8, V15:8, SP:8
        CFI Resource PSPH:8, PSPL:8, PSP16:16, XSPH:8, XSPL:8, XSP16:16
        CFI VirtualResource ?RET:24
        CFI Resource ?BRET_EXT:8
        CFI VirtualResource ?RET_HIGH:8, ?RET_LOW:8
        CFI ResourceParts PSP16 PSPH, PSPL
        CFI ResourceParts XSP16 XSPH, XSPL
        CFI ResourceParts ?RET ?BRET_EXT, ?RET_HIGH, ?RET_LOW
        CFI EndNames cfiNames0
        
        CFI Common cfiCommon0 Using cfiNames0
        CFI CodeAlign 1
        CFI DataAlign -1
        CFI ReturnAddress ?RET CODE
        CFI CFA_DOVERLAY Used
        CFI CFA_IOVERLAY Used
        CFI CFA_SP SP+-3
        CFI CFA_PSP16 PSP16+0
        CFI CFA_XSP16 XSP16+0
        CFI `PSW.CY` SameValue
        CFI `B.BR0` SameValue
        CFI `B.BR1` SameValue
        CFI `B.BR2` SameValue
        CFI `B.BR3` SameValue
        CFI `B.BR4` SameValue
        CFI `B.BR5` SameValue
        CFI `B.BR6` SameValue
        CFI `B.BR7` SameValue
        CFI `VB.BR8` SameValue
        CFI `VB.BR9` SameValue
        CFI `VB.BR10` SameValue
        CFI `VB.BR11` SameValue
        CFI `VB.BR12` SameValue
        CFI `VB.BR13` SameValue
        CFI `VB.BR14` SameValue
        CFI `VB.BR15` SameValue
        CFI VB SameValue
        CFI B Undefined
        CFI A Undefined
        CFI PSW SameValue
        CFI DPL0 SameValue
        CFI DPH0 SameValue
        CFI R0 Undefined
        CFI R1 Undefined
        CFI R2 Undefined
        CFI R3 Undefined
        CFI R4 Undefined
        CFI R5 Undefined
        CFI R6 SameValue
        CFI R7 SameValue
        CFI V0 SameValue
        CFI V1 SameValue
        CFI V2 SameValue
        CFI V3 SameValue
        CFI V4 SameValue
        CFI V5 SameValue
        CFI V6 SameValue
        CFI V7 SameValue
        CFI V8 SameValue
        CFI V9 SameValue
        CFI V10 SameValue
        CFI V11 SameValue
        CFI V12 SameValue
        CFI V13 SameValue
        CFI V14 SameValue
        CFI V15 SameValue
        CFI PSPH Undefined
        CFI PSPL Undefined
        CFI XSPH Undefined
        CFI XSPL Undefined
        CFI ?RET Concat
        CFI ?BRET_EXT Frame(CFA_SP, 3)
        CFI ?RET_HIGH Frame(CFA_SP, 2)
        CFI ?RET_LOW Frame(CFA_SP, 1)
        CFI EndCommon cfiCommon0
        
CtrlRelyOne         SYMBOL "CtrlRelyOne"
??CtrlRelyOne?relay SYMBOL "?relay", CtrlRelyOne
CtrlRelyThree       SYMBOL "CtrlRelyThree"
??CtrlRelyThree?relay SYMBOL "?relay", CtrlRelyThree
CtrlRelyTwo         SYMBOL "CtrlRelyTwo"
??CtrlRelyTwo?relay SYMBOL "?relay", CtrlRelyTwo
GetLightData        SYMBOL "GetLightData"
??GetLightData?relay SYMBOL "?relay", GetLightData
InitDigSensor       SYMBOL "InitDigSensor"
??InitDigSensor?relay SYMBOL "?relay", InitDigSensor

// E:\BYSJ\bysj2018\SRC\11\ZigBeePro\Projects\zstack\Samples\SampleApp\Source\dig_sensor.c
//    1 #include "dig_sensor.h"

        ASEGN SFR_AN:DATA:NOROOT,080H
// union <unnamed> volatile __sfr _A_P0
_A_P0:
        DATA8
        DS 1

        ASEGN SFR_AN:DATA:NOROOT,090H
// union <unnamed> volatile __sfr _A_P1
_A_P1:
        DATA8
        DS 1

        ASEGN SFR_AN:DATA:NOROOT,0f3H
// unsigned char volatile __sfr P0SEL
P0SEL:
        DATA8
        DS 1

        ASEGN SFR_AN:DATA:NOROOT,0f6H
// unsigned char volatile __sfr P1INP
P1INP:
        DATA8
        DS 1

        ASEGN SFR_AN:DATA:NOROOT,0fdH
// unsigned char volatile __sfr P0DIR
P0DIR:
        DATA8
        DS 1

        ASEGN SFR_AN:DATA:NOROOT,0feH
// unsigned char volatile __sfr P1DIR
P1DIR:
        DATA8
        DS 1
//    2 
//    3 #define DATA_PIN05          P0_5    //定义P0.5口为传感器的输入端
//    4 

        RSEG XDATA_Z:XDATA:NOROOT(0)
        DATA8
//    5 uint8 relay_one_value =0;
relay_one_value:
        DS 1
        REQUIRE __INIT_XDATA_Z

        RSEG XDATA_Z:XDATA:NOROOT(0)
        DATA8
//    6 uint8 relay_two_value =0;
relay_two_value:
        DS 1
        REQUIRE __INIT_XDATA_Z

        RSEG XDATA_Z:XDATA:NOROOT(0)
        DATA8
//    7 uint8 relay_three_value =0;
relay_three_value:
        DS 1
        REQUIRE __INIT_XDATA_Z
//    8 

        RSEG BANKED_CODE:CODE:NOROOT(0)
//    9 void InitDigSensor(void)
InitDigSensor:
        CFI Block cfiBlock0 Using cfiCommon0
        CFI Function InitDigSensor
        CODE
//   10 {  
        ; Saved register size: 0
        ; Auto size: 0
//   11 #ifdef DEVICE_LIGHT
//   12   P0DIR &= ~0x20;;        //P0.5       
//   13   P0SEL &= ~0x20;;        //设置P0.5为普通IO口
//   14 #endif
//   15 #ifdef DEVICE_MQ2
//   16   P0DIR &= ~0x40;;        //P0.6      
        ANL     0xfd,#0xbf
//   17   //P0SEL &= ~0x40;;        //设置P0.6为普通IO口
//   18 #endif
//   19 #ifdef DEVICE_HT11
//   20   P0DIR &= ~0x80;        //P0.7      
        ANL     0xfd,#0x7f
//   21   P0SEL &= ~0x80;        //设置P0.7为普通IO口
        ANL     0xf3,#0x7f
//   22 #endif
//   23   
//   24 #ifdef DEVICE_RELAY_PUMP
//   25   P1DIR |= (0x01<<5);   //output mode
        ORL     0xfe,#0x20
//   26   P1INP &= ~(0x01<<5);  //Pull up 
        ANL     0xf6,#0xdf
//   27   P1_5 = 0;// LOW 	
        CLR     0x90.5
//   28 #endif  
//   29 #ifdef DEVICE_RELAY_LAMP
//   30   P1DIR |= (0x01<<6);   //output mode
        ORL     0xfe,#0x40
//   31   P1INP &= ~(0x01<<6);  //Pull up 
        ANL     0xf6,#0xbf
//   32   P1_6 = 0;// LOW 	
        CLR     0x90.6
//   33 #endif
//   34 #ifdef DEVICE_RELAY_CLOD
//   35   P1DIR |= (0x01<<7);   //output mode
//   36   P1INP &= ~(0x01<<7);  //Pull up 
//   37   P1_7 = 0;// LOW 	
//   38 #endif
//   39 }
        LJMP    ?BRET
        CFI EndBlock cfiBlock0
        REQUIRE P0DIR
        REQUIRE P0SEL
        REQUIRE P1DIR
        REQUIRE P1INP
        REQUIRE _A_P1
//   40 

        RSEG BANKED_CODE:CODE:NOROOT(0)
//   41 uint8 GetLightData(void) //人体传感器
GetLightData:
        CFI Block cfiBlock1 Using cfiCommon0
        CFI Function GetLightData
        CODE
//   42 {
        ; Saved register size: 0
        ; Auto size: 0
//   43   uint8 LightState;
//   44   LightState = DATA_PIN05;
//   45   
//   46   return LightState;
        MOV     C,0x80.5
        CLR     A
        RLC     A
        MOV     R1,A
        LJMP    ?BRET
        CFI EndBlock cfiBlock1
        REQUIRE _A_P0
//   47 }
//   48 
//   49 

        RSEG BANKED_CODE:CODE:NOROOT(0)
//   50 void CtrlRelyOne(uint8 state) //继电器设备一
CtrlRelyOne:
        CFI Block cfiBlock2 Using cfiCommon0
        CFI Function CtrlRelyOne
        CODE
//   51 {
        PUSH    DPL
        CFI DPL0 Frame(CFA_SP, 4)
        CFI CFA_SP SP+-4
        PUSH    DPH
        CFI DPH0 Frame(CFA_SP, 5)
        CFI CFA_SP SP+-5
        ; Saved register size: 2
        ; Auto size: 0
//   52   if(state == 0x01)
        MOV     A,#0x1
        XRL     A,R1
        JNZ     ??CtrlRelyOne_0
//   53   {
//   54     P1_5 = 0x01;
        SETB    0x90.5
//   55     relay_one_value = 0x01;
        MOV     DPTR,#relay_one_value
        MOV     A,#0x1
        SJMP    ??CtrlRelyOne_1
//   56   }else
//   57   {
//   58     P1_5 = 0x00;
??CtrlRelyOne_0:
        CLR     0x90.5
//   59     relay_one_value = 0x00;
        MOV     DPTR,#relay_one_value
        CLR     A
        CFI EndBlock cfiBlock2
//   60   }
??CtrlRelyOne_1:
        REQUIRE ?Subroutine0
        REQUIRE _A_P1
        ; // Fall through to label ?Subroutine0
//   61 }

        RSEG BANKED_CODE:CODE:NOROOT(0)
?Subroutine0:
        CFI Block cfiBlock3 Using cfiCommon0
        CFI NoFunction
        CFI CFA_SP SP+-5
        CFI DPL0 Frame(CFA_SP, 4)
        CFI DPH0 Frame(CFA_SP, 5)
        MOVX    @DPTR,A
        POP     DPH
        CFI CFA_SP SP+-4
        CFI DPH0 SameValue
        POP     DPL
        CFI CFA_SP SP+-3
        CFI DPL0 SameValue
        LJMP    ?BRET
        CFI EndBlock cfiBlock3
//   62 

        RSEG BANKED_CODE:CODE:NOROOT(0)
//   63 void CtrlRelyTwo(uint8 state) //继电器设备二
CtrlRelyTwo:
        CFI Block cfiBlock4 Using cfiCommon0
        CFI Function CtrlRelyTwo
        CODE
//   64 {
        PUSH    DPL
        CFI DPL0 Frame(CFA_SP, 4)
        CFI CFA_SP SP+-4
        PUSH    DPH
        CFI DPH0 Frame(CFA_SP, 5)
        CFI CFA_SP SP+-5
        ; Saved register size: 2
        ; Auto size: 0
//   65   if(state == 0x01)
        MOV     A,#0x1
        XRL     A,R1
        JNZ     ??CtrlRelyTwo_0
//   66   {
//   67     P1_6 = 0x01;
        SETB    0x90.6
//   68     relay_two_value = 0x01;
        MOV     DPTR,#relay_two_value
        MOV     A,#0x1
        SJMP    ??CtrlRelyTwo_1
//   69   }else
//   70   {
//   71     P1_6 = 0x00;
??CtrlRelyTwo_0:
        CLR     0x90.6
//   72     relay_two_value = 0x00;
        MOV     DPTR,#relay_two_value
        CLR     A
//   73   }
??CtrlRelyTwo_1:
        SJMP    ?Subroutine0
        CFI EndBlock cfiBlock4
        REQUIRE _A_P1
//   74 }

        RSEG BANKED_CODE:CODE:NOROOT(0)
//   75 void CtrlRelyThree(uint8 state) //继电器设备三
CtrlRelyThree:
        CFI Block cfiBlock5 Using cfiCommon0
        CFI Function CtrlRelyThree
        CODE
//   76 {
        PUSH    DPL
        CFI DPL0 Frame(CFA_SP, 4)
        CFI CFA_SP SP+-4
        PUSH    DPH
        CFI DPH0 Frame(CFA_SP, 5)
        CFI CFA_SP SP+-5
        ; Saved register size: 2
        ; Auto size: 0
//   77   if(state == 0x01)
        MOV     A,#0x1
        XRL     A,R1
        JNZ     ??CtrlRelyThree_0
//   78   {
//   79     P1_7 = 0x01;
        SETB    0x90.7
//   80     relay_three_value = 0x01;
        MOV     DPTR,#relay_three_value
        MOV     A,#0x1
        SJMP    ??CtrlRelyThree_1
//   81   }else
//   82   {
//   83     P1_7 = 0x00;
??CtrlRelyThree_0:
        CLR     0x90.7
//   84     relay_three_value = 0x00;
        MOV     DPTR,#relay_three_value
        CLR     A
//   85   }
??CtrlRelyThree_1:
        SJMP    ?Subroutine0
        CFI EndBlock cfiBlock5
        REQUIRE _A_P1
//   86 }

        RSEG BANK_RELAYS:CODE:REORDER:NOROOT(0)
??InitDigSensor?relay:
        LCALL   ?BDISPATCH
        DATA
        DC24    InitDigSensor

        RSEG BANK_RELAYS:CODE:REORDER:NOROOT(0)
??GetLightData?relay:
        LCALL   ?BDISPATCH
        DATA
        DC24    GetLightData

        RSEG BANK_RELAYS:CODE:REORDER:NOROOT(0)
??CtrlRelyOne?relay:
        LCALL   ?BDISPATCH
        DATA
        DC24    CtrlRelyOne

        RSEG BANK_RELAYS:CODE:REORDER:NOROOT(0)
??CtrlRelyTwo?relay:
        LCALL   ?BDISPATCH
        DATA
        DC24    CtrlRelyTwo

        RSEG BANK_RELAYS:CODE:REORDER:NOROOT(0)
??CtrlRelyThree?relay:
        LCALL   ?BDISPATCH
        DATA
        DC24    CtrlRelyThree

        END
// 
// 120 bytes in segment BANKED_CODE
//  30 bytes in segment BANK_RELAYS
//   6 bytes in segment SFR_AN
//   3 bytes in segment XDATA_Z
// 
// 150 bytes of CODE  memory
//   0 bytes of DATA  memory (+ 6 bytes shared)
//   3 bytes of XDATA memory
//
//Errors: none
//Warnings: none
