///////////////////////////////////////////////////////////////////////////////
//                                                                            /
// IAR C/C++ Compiler V8.10.3.10338/W32 for 8051        29/Sep/2018  17:09:03 /
// Copyright 2004-2011 IAR Systems AB.                                        /
//                                                                            /
//    Core               =  plain                                             /
//    Code model         =  banked                                            /
//    Data model         =  large                                             /
//    Calling convention =  xdata reentrant                                   /
//    Constant location  =  data_rom                                          /
//    Dptr setup         =  1,16                                              /
//    Source file        =  E:\BYSJ\bysj2018\SRC\11\ZigBeePro\Components\mt\M /
//                          T_UART.c                                          /
//    Command line       =  -f E:\BYSJ\bysj2018\SRC\11\ZigBeePro\Projects\zst /
//                          ack\Samples\SampleApp\CC2530DB\..\..\..\Tools\CC2 /
//                          530DB\f8wEndev.cfg (-DCPU32MHZ                    /
//                          -DROOT=__near_func -DMAC_CFG_TX_DATA_MAX=3        /
//                          -DMAC_CFG_TX_MAX=6 -DMAC_CFG_RX_MAX=3) -f         /
//                          E:\BYSJ\bysj2018\SRC\11\ZigBeePro\Projects\zstack /
//                          \Samples\SampleApp\CC2530DB\..\..\..\Tools\CC2530 /
//                          DB\f8wConfig.cfg (-DZIGBEEPRO -DSECURE=0          /
//                          -DZG_SECURE_DYNAMIC=0 -DREFLECTOR                 /
//                          -DDEFAULT_CHANLIST=0x00000800                     /
//                          -DZDAPP_CONFIG_PAN_ID=0x1234                      /
//                          -DNWK_START_DELAY=100 -DEXTENDED_JOINING_RANDOM_M /
//                          ASK=0x007F -DBEACON_REQUEST_DELAY=100             /
//                          -DBEACON_REQ_DELAY_MASK=0x00FF                    /
//                          -DLINK_STATUS_JITTER_MASK=0x007F                  /
//                          -DROUTE_EXPIRY_TIME=30 -DAPSC_ACK_WAIT_DURATION_P /
//                          OLLED=3000 -DNWK_INDIRECT_MSG_TIMEOUT=7           /
//                          -DMAX_RREQ_ENTRIES=8 -DAPSC_MAX_FRAME_RETRIES=3   /
//                          -DNWK_MAX_DATA_RETRIES=2                          /
//                          -DMAX_POLL_FAILURE_RETRIES=2 -DMAX_BCAST=9        /
//                          -DAPS_MAX_GROUPS=16 -DMAX_RTG_ENTRIES=40          /
//                          -DNWK_MAX_BINDING_ENTRIES=4                       /
//                          -DMAX_BINDING_CLUSTER_IDS=4                       /
//                          "-DDEFAULT_KEY={0x01, 0x03, 0x05, 0x07, 0x09,     /
//                          0x0B, 0x0D, 0x0F, 0x00, 0x02, 0x04, 0x06, 0x08,   /
//                          0x0A, 0x0C, 0x0D}" -DMAC_MAX_FRAME_SIZE=116       /
//                          -DZDNWKMGR_MIN_TRANSMISSIONS=20 "-DCONST=const    /
//                          __code" -DGENERIC=__generic                       /
//                          -DRFD_RCVC_ALWAYS_ON=FALSE -DPOLL_RATE=1000       /
//                          -DQUEUED_POLL_RATE=100 -DRESPONSE_POLL_RATE=100)  /
//                          -DREJOIN_POLL_RATE=440 E:\BYSJ\bysj2018\SRC\11\Zi /
//                          gBeePro\Components\mt\MT_UART.c -D NWK_AUTO_POLL  /
//                          -D ZTOOL_P1 -D MT_TASK -D MT_SYS_FUNC -D          /
//                          MT_ZDO_FUNC -D LCD_SUPPORTED=DEBUG -lC            /
//                          E:\BYSJ\bysj2018\SRC\11\ZigBeePro\Projects\zstack /
//                          \Samples\SampleApp\CC2530DB\EndDeviceEB\List\     /
//                          -lA E:\BYSJ\bysj2018\SRC\11\ZigBeePro\Projects\zs /
//                          tack\Samples\SampleApp\CC2530DB\EndDeviceEB\List\ /
//                           --diag_suppress Pe001,Pa010 -o                   /
//                          E:\BYSJ\bysj2018\SRC\11\ZigBeePro\Projects\zstack /
//                          \Samples\SampleApp\CC2530DB\EndDeviceEB\Obj\ -e   /
//                          --no_code_motion --debug --core=plain             /
//                          --dptr=16,1 --data_model=large                    /
//                          --code_model=banked --calling_convention=xdata_re /
//                          entrant --place_constants=data_rom                /
//                          --nr_virtual_regs 16 -I                           /
//                          E:\BYSJ\bysj2018\SRC\11\ZigBeePro\Projects\zstack /
//                          \Samples\SampleApp\CC2530DB\ -I                   /
//                          E:\BYSJ\bysj2018\SRC\11\ZigBeePro\Projects\zstack /
//                          \Samples\SampleApp\CC2530DB\..\Source\ -I         /
//                          E:\BYSJ\bysj2018\SRC\11\ZigBeePro\Projects\zstack /
//                          \Samples\SampleApp\CC2530DB\..\..\..\ZMain\TI2530 /
//                          DB\ -I E:\BYSJ\bysj2018\SRC\11\ZigBeePro\Projects /
//                          \zstack\Samples\SampleApp\CC2530DB\..\..\..\..\.. /
//                          \Components\hal\include\ -I                       /
//                          E:\BYSJ\bysj2018\SRC\11\ZigBeePro\Projects\zstack /
//                          \Samples\SampleApp\CC2530DB\..\..\..\..\..\Compon /
//                          ents\hal\target\CC2530EB\ -I                      /
//                          E:\BYSJ\bysj2018\SRC\11\ZigBeePro\Projects\zstack /
//                          \Samples\SampleApp\CC2530DB\..\..\..\..\..\Compon /
//                          ents\mac\include\ -I E:\BYSJ\bysj2018\SRC\11\ZigB /
//                          eePro\Projects\zstack\Samples\SampleApp\CC2530DB\ /
//                          ..\..\..\..\..\Components\mac\high_level\ -I      /
//                          E:\BYSJ\bysj2018\SRC\11\ZigBeePro\Projects\zstack /
//                          \Samples\SampleApp\CC2530DB\..\..\..\..\..\Compon /
//                          ents\mac\low_level\srf04\ -I                      /
//                          E:\BYSJ\bysj2018\SRC\11\ZigBeePro\Projects\zstack /
//                          \Samples\SampleApp\CC2530DB\..\..\..\..\..\Compon /
//                          ents\mac\low_level\srf04\single_chip\ -I          /
//                          E:\BYSJ\bysj2018\SRC\11\ZigBeePro\Projects\zstack /
//                          \Samples\SampleApp\CC2530DB\..\..\..\..\..\Compon /
//                          ents\mt\ -I E:\BYSJ\bysj2018\SRC\11\ZigBeePro\Pro /
//                          jects\zstack\Samples\SampleApp\CC2530DB\..\..\..\ /
//                          ..\..\Components\osal\include\ -I                 /
//                          E:\BYSJ\bysj2018\SRC\11\ZigBeePro\Projects\zstack /
//                          \Samples\SampleApp\CC2530DB\..\..\..\..\..\Compon /
//                          ents\services\saddr\ -I                           /
//                          E:\BYSJ\bysj2018\SRC\11\ZigBeePro\Projects\zstack /
//                          \Samples\SampleApp\CC2530DB\..\..\..\..\..\Compon /
//                          ents\services\sdata\ -I                           /
//                          E:\BYSJ\bysj2018\SRC\11\ZigBeePro\Projects\zstack /
//                          \Samples\SampleApp\CC2530DB\..\..\..\..\..\Compon /
//                          ents\stack\af\ -I E:\BYSJ\bysj2018\SRC\11\ZigBeeP /
//                          ro\Projects\zstack\Samples\SampleApp\CC2530DB\..\ /
//                          ..\..\..\..\Components\stack\nwk\ -I              /
//                          E:\BYSJ\bysj2018\SRC\11\ZigBeePro\Projects\zstack /
//                          \Samples\SampleApp\CC2530DB\..\..\..\..\..\Compon /
//                          ents\stack\sapi\ -I E:\BYSJ\bysj2018\SRC\11\ZigBe /
//                          ePro\Projects\zstack\Samples\SampleApp\CC2530DB\. /
//                          .\..\..\..\..\Components\stack\sec\ -I            /
//                          E:\BYSJ\bysj2018\SRC\11\ZigBeePro\Projects\zstack /
//                          \Samples\SampleApp\CC2530DB\..\..\..\..\..\Compon /
//                          ents\stack\sys\ -I E:\BYSJ\bysj2018\SRC\11\ZigBee /
//                          Pro\Projects\zstack\Samples\SampleApp\CC2530DB\.. /
//                          \..\..\..\..\Components\stack\zdo\ -I             /
//                          E:\BYSJ\bysj2018\SRC\11\ZigBeePro\Projects\zstack /
//                          \Samples\SampleApp\CC2530DB\..\..\..\..\..\Compon /
//                          ents\zmac\ -I E:\BYSJ\bysj2018\SRC\11\ZigBeePro\P /
//                          rojects\zstack\Samples\SampleApp\CC2530DB\..\..\. /
//                          .\..\..\Components\zmac\f8w\ -Ohz                 /
//                          --require_prototypes                              /
//    List file          =  E:\BYSJ\bysj2018\SRC\11\ZigBeePro\Projects\zstack /
//                          \Samples\SampleApp\CC2530DB\EndDeviceEB\List\MT_U /
//                          ART.s51                                           /
//                                                                            /
//                                                                            /
///////////////////////////////////////////////////////////////////////////////

        NAME MT_UART

        RTMODEL "__SystemLibrary", "CLib"
        RTMODEL "__calling_convention", "xdata_reentrant"
        RTMODEL "__code_model", "banked"
        RTMODEL "__core", "plain"
        RTMODEL "__data_model", "large"
        RTMODEL "__dptr_size", "16"
        RTMODEL "__extended_stack", "disabled"
        RTMODEL "__location_for_constants", "data"
        RTMODEL "__number_of_dptrs", "1"
        RTMODEL "__rt_version", "1"

        RSEG DOVERLAY:DATA:NOROOT(0)
        RSEG IOVERLAY:IDATA:NOROOT(0)
        RSEG ISTACK:IDATA:NOROOT(0)
        RSEG PSTACK:XDATA:NOROOT(0)
        RSEG XSTACK:XDATA:NOROOT(0)

        EXTERN ?ALLOC_XSTACK8
        EXTERN ?BANKED_ENTER_XDATA
        EXTERN ?BANKED_LEAVE_XDATA
        EXTERN ?BDISPATCH
        EXTERN ?BRET
        EXTERN ?DEALLOC_XSTACK8
        EXTERN ?V0
        EXTERN ?XSP
        EXTERN ?XSTACK_DISP0_8
        EXTERN __INIT_XDATA_Z

        PUBLIC ??MT_UartCalcFCS?relay
        FUNCTION ??MT_UartCalcFCS?relay,0203H
        PUBLIC ??MT_UartInit?relay
        FUNCTION ??MT_UartInit?relay,0203H
        PUBLIC ??MT_UartProcessZToolData?relay
        FUNCTION ??MT_UartProcessZToolData?relay,0203H
        PUBLIC ??MT_UartRegisterTaskID?relay
        FUNCTION ??MT_UartRegisterTaskID?relay,0203H
        PUBLIC App_TaskID
        PUBLIC CMD_Token
        PUBLIC FSC_Token
        PUBLIC LEN_Token
        PUBLIC MT_UartCalcFCS
        FUNCTION MT_UartCalcFCS,0203H
        ARGFRAME XSTACK, 0, STACK
        LOCFRAME ISTACK, 2, STACK
        PUBLIC MT_UartInit
        FUNCTION MT_UartInit,021203H
        ARGFRAME XSTACK, 0, STACK
        LOCFRAME ISTACK, 2, STACK
        LOCFRAME XSTACK, 29, STACK
        PUBLIC MT_UartProcessZToolData
        FUNCTION MT_UartProcessZToolData,021603H
        ARGFRAME XSTACK, 0, STACK
        LOCFRAME ISTACK, 1, STACK
        LOCFRAME XSTACK, 13, STACK
        PUBLIC MT_UartRegisterTaskID
        FUNCTION MT_UartRegisterTaskID,0203H
        ARGFRAME XSTACK, 0, STACK
        LOCFRAME ISTACK, 2, STACK
        PUBLIC UART1_RX_BUF
        PUBLIC UART1_RX_STA
        PUBLIC Uart1RxLen
        PUBLIC pMsg
        PUBLIC state
        PUBLIC tempDataLen
        
        CFI Names cfiNames0
        CFI StackFrame CFA_SP SP IDATA
        CFI StackFrame CFA_PSP16 PSP16 XDATA
        CFI StackFrame CFA_XSP16 XSP16 XDATA
        CFI StaticOverlayFrame CFA_IOVERLAY IOVERLAY
        CFI StaticOverlayFrame CFA_DOVERLAY DOVERLAY
        CFI Resource `PSW.CY`:1, `B.BR0`:1, `B.BR1`:1, `B.BR2`:1, `B.BR3`:1
        CFI Resource `B.BR4`:1, `B.BR5`:1, `B.BR6`:1, `B.BR7`:1, `VB.BR8`:1
        CFI Resource `VB.BR9`:1, `VB.BR10`:1, `VB.BR11`:1, `VB.BR12`:1
        CFI Resource `VB.BR13`:1, `VB.BR14`:1, `VB.BR15`:1, VB:8, B:8, A:8
        CFI Resource PSW:8, DPL0:8, DPH0:8, R0:8, R1:8, R2:8, R3:8, R4:8, R5:8
        CFI Resource R6:8, R7:8, V0:8, V1:8, V2:8, V3:8, V4:8, V5:8, V6:8, V7:8
        CFI Resource V8:8, V9:8, V10:8, V11:8, V12:8, V13:8, V14:8, V15:8, SP:8
        CFI Resource PSPH:8, PSPL:8, PSP16:16, XSPH:8, XSPL:8, XSP16:16
        CFI VirtualResource ?RET:24
        CFI Resource ?BRET_EXT:8
        CFI VirtualResource ?RET_HIGH:8, ?RET_LOW:8
        CFI ResourceParts PSP16 PSPH, PSPL
        CFI ResourceParts XSP16 XSPH, XSPL
        CFI ResourceParts ?RET ?BRET_EXT, ?RET_HIGH, ?RET_LOW
        CFI EndNames cfiNames0
        
        CFI Common cfiCommon0 Using cfiNames0
        CFI CodeAlign 1
        CFI DataAlign -1
        CFI ReturnAddress ?RET CODE
        CFI CFA_DOVERLAY Used
        CFI CFA_IOVERLAY Used
        CFI CFA_SP SP+-3
        CFI CFA_PSP16 PSP16+0
        CFI CFA_XSP16 XSP16+0
        CFI `PSW.CY` SameValue
        CFI `B.BR0` SameValue
        CFI `B.BR1` SameValue
        CFI `B.BR2` SameValue
        CFI `B.BR3` SameValue
        CFI `B.BR4` SameValue
        CFI `B.BR5` SameValue
        CFI `B.BR6` SameValue
        CFI `B.BR7` SameValue
        CFI `VB.BR8` SameValue
        CFI `VB.BR9` SameValue
        CFI `VB.BR10` SameValue
        CFI `VB.BR11` SameValue
        CFI `VB.BR12` SameValue
        CFI `VB.BR13` SameValue
        CFI `VB.BR14` SameValue
        CFI `VB.BR15` SameValue
        CFI VB SameValue
        CFI B Undefined
        CFI A Undefined
        CFI PSW SameValue
        CFI DPL0 SameValue
        CFI DPH0 SameValue
        CFI R0 Undefined
        CFI R1 Undefined
        CFI R2 Undefined
        CFI R3 Undefined
        CFI R4 Undefined
        CFI R5 Undefined
        CFI R6 SameValue
        CFI R7 SameValue
        CFI V0 SameValue
        CFI V1 SameValue
        CFI V2 SameValue
        CFI V3 SameValue
        CFI V4 SameValue
        CFI V5 SameValue
        CFI V6 SameValue
        CFI V7 SameValue
        CFI V8 SameValue
        CFI V9 SameValue
        CFI V10 SameValue
        CFI V11 SameValue
        CFI V12 SameValue
        CFI V13 SameValue
        CFI V14 SameValue
        CFI V15 SameValue
        CFI PSPH Undefined
        CFI PSPL Undefined
        CFI XSPH Undefined
        CFI XSPL Undefined
        CFI ?RET Concat
        CFI ?BRET_EXT Frame(CFA_SP, 3)
        CFI ?RET_HIGH Frame(CFA_SP, 2)
        CFI ?RET_LOW Frame(CFA_SP, 1)
        CFI EndCommon cfiCommon0
        
HalUARTOpen         SYMBOL "HalUARTOpen"
Hal_UART_RxBufLen   SYMBOL "Hal_UART_RxBufLen"
osal_msg_allocate   SYMBOL "osal_msg_allocate"
HalUARTRead         SYMBOL "HalUARTRead"
osal_msg_send       SYMBOL "osal_msg_send"
??HalUARTOpen?relay SYMBOL "?relay", HalUARTOpen
??HalUARTRead?relay SYMBOL "?relay", HalUARTRead
??Hal_UART_RxBufLen?relay SYMBOL "?relay", Hal_UART_RxBufLen
??osal_msg_allocate?relay SYMBOL "?relay", osal_msg_allocate
??osal_msg_send?relay SYMBOL "?relay", osal_msg_send
MT_UartCalcFCS      SYMBOL "MT_UartCalcFCS"
??MT_UartCalcFCS?relay SYMBOL "?relay", MT_UartCalcFCS
MT_UartInit         SYMBOL "MT_UartInit"
??MT_UartInit?relay SYMBOL "?relay", MT_UartInit
MT_UartProcessZToolData SYMBOL "MT_UartProcessZToolData"
??MT_UartProcessZToolData?relay SYMBOL "?relay", MT_UartProcessZToolData
MT_UartRegisterTaskID SYMBOL "MT_UartRegisterTaskID"
??MT_UartRegisterTaskID?relay SYMBOL "?relay", MT_UartRegisterTaskID

        EXTERN HalUARTOpen
        FUNCTION HalUARTOpen,0202H
        ARGFRAME ISTACK, 2, STACK
        ARGFRAME PSTACK, 0, STACK
        ARGFRAME XSTACK, 29, STACK
        ARGFRAME IOVERLAY, 0, STATIC
        ARGFRAME DOVERLAY, 0, STATIC
        EXTERN Hal_UART_RxBufLen
        FUNCTION Hal_UART_RxBufLen,0202H
        ARGFRAME ISTACK, 0, STACK
        ARGFRAME PSTACK, 0, STACK
        ARGFRAME XSTACK, 13, STACK
        ARGFRAME IOVERLAY, 0, STATIC
        ARGFRAME DOVERLAY, 0, STATIC
        EXTERN osal_msg_allocate
        FUNCTION osal_msg_allocate,0202H
        ARGFRAME ISTACK, 0, STACK
        ARGFRAME PSTACK, 0, STACK
        ARGFRAME XSTACK, 13, STACK
        ARGFRAME IOVERLAY, 0, STATIC
        ARGFRAME DOVERLAY, 0, STATIC
        EXTERN HalUARTRead
        FUNCTION HalUARTRead,0202H
        ARGFRAME ISTACK, 0, STACK
        ARGFRAME PSTACK, 0, STACK
        ARGFRAME XSTACK, 13, STACK
        ARGFRAME IOVERLAY, 0, STATIC
        ARGFRAME DOVERLAY, 0, STATIC
        EXTERN osal_msg_send
        FUNCTION osal_msg_send,0202H
        ARGFRAME ISTACK, 0, STACK
        ARGFRAME PSTACK, 0, STACK
        ARGFRAME XSTACK, 13, STACK
        ARGFRAME IOVERLAY, 0, STATIC
        ARGFRAME DOVERLAY, 0, STATIC
        EXTERN ??HalUARTOpen?relay
        FUNCTION ??HalUARTOpen?relay,00H
        EXTERN ??HalUARTRead?relay
        FUNCTION ??HalUARTRead?relay,00H
        EXTERN ??Hal_UART_RxBufLen?relay
        FUNCTION ??Hal_UART_RxBufLen?relay,00H
        EXTERN ??osal_msg_allocate?relay
        FUNCTION ??osal_msg_allocate?relay,00H
        EXTERN ??osal_msg_send?relay
        FUNCTION ??osal_msg_send?relay,00H

// E:\BYSJ\bysj2018\SRC\11\ZigBeePro\Components\mt\MT_UART.c
//    1 /***************************************************************************************************
//    2   Filename:       MT_UART.c
//    3   Revised:        $Date: 2009-03-12 16:25:22 -0700 (Thu, 12 Mar 2009) $
//    4   Revision:       $Revision: 19404 $
//    5 
//    6   Description:  This module handles anything dealing with the serial port.
//    7 
//    8   Copyright 2007 Texas Instruments Incorporated. All rights reserved.
//    9 
//   10   IMPORTANT: Your use of this Software is limited to those specific rights
//   11   granted under the terms of a software license agreement between the user
//   12   who downloaded the software, his/her employer (which must be your employer)
//   13   and Texas Instruments Incorporated (the "License").  You may not use this
//   14   Software unless you agree to abide by the terms of the License. The License
//   15   limits your use, and you acknowledge, that the Software may not be modified,
//   16   copied or distributed unless embedded on a Texas Instruments microcontroller
//   17   or used solely and exclusively in conjunction with a Texas Instruments radio
//   18   frequency transceiver, which is integrated into your product.  Other than for
//   19   the foregoing purpose, you may not use, reproduce, copy, prepare derivative
//   20   works of, modify, distribute, perform, display or sell this Software and/or
//   21   its documentation for any purpose.
//   22 
//   23   YOU FURTHER ACKNOWLEDGE AND AGREE THAT THE SOFTWARE AND DOCUMENTATION ARE
//   24   PROVIDED AS IS?WITHOUT WARRANTY OF ANY KIND, EITHER EXPRESS OR IMPLIED,
//   25   INCLUDING WITHOUT LIMITATION, ANY WARRANTY OF MERCHANTABILITY, TITLE,
//   26   NON-INFRINGEMENT AND FITNESS FOR A PARTICULAR PURPOSE. IN NO EVENT SHALL
//   27   TEXAS INSTRUMENTS OR ITS LICENSORS BE LIABLE OR OBLIGATED UNDER CONTRACT,
//   28   NEGLIGENCE, STRICT LIABILITY, CONTRIBUTION, BREACH OF WARRANTY, OR OTHER
//   29   LEGAL EQUITABLE THEORY ANY DIRECT OR INDIRECT DAMAGES OR EXPENSES
//   30   INCLUDING BUT NOT LIMITED TO ANY INCIDENTAL, SPECIAL, INDIRECT, PUNITIVE
//   31   OR CONSEQUENTIAL DAMAGES, LOST PROFITS OR LOST DATA, COST OF PROCUREMENT
//   32   OF SUBSTITUTE GOODS, TECHNOLOGY, SERVICES, OR ANY CLAIMS BY THIRD PARTIES
//   33   (INCLUDING BUT NOT LIMITED TO ANY DEFENSE THEREOF), OR OTHER SIMILAR COSTS.
//   34 
//   35   Should you have any questions regarding your right to use this Software,
//   36   contact Texas Instruments Incorporated at www.anlde.com.
//   37 
//   38 ***************************************************************************************************/
//   39 
//   40 /***************************************************************************************************
//   41  * INCLUDES
//   42  ***************************************************************************************************/
//   43 #include "ZComDef.h"
//   44 #include "OSAL.h"
//   45 #include "hal_uart.h"
//   46 #include "MT.h"
//   47 #include "MT_UART.h"
//   48 #include "OSAL_Memory.h"
//   49 
//   50 
//   51 /***************************************************************************************************
//   52  * MACROS
//   53  ***************************************************************************************************/
//   54 
//   55 /***************************************************************************************************
//   56  * CONSTANTS
//   57  ***************************************************************************************************/
//   58 /* State values for ZTool protocal */
//   59 #define SOP_STATE      0x00
//   60 #define CMD_STATE1     0x01
//   61 #define CMD_STATE2     0x02
//   62 #define LEN_STATE      0x03
//   63 #define DATA_STATE     0x04
//   64 #define FCS_STATE      0x05
//   65 
//   66 /***************************************************************************************************
//   67  *                                         GLOBAL VARIABLES
//   68  ***************************************************************************************************/
//   69 /* Used to indentify the application ID for osal task */

        RSEG XDATA_Z:XDATA:NOROOT(0)
        DATA8
//   70 byte App_TaskID;
App_TaskID:
        DS 1
        REQUIRE __INIT_XDATA_Z
//   71 
//   72 /* ZTool protocal parameters */

        RSEG XDATA_Z:XDATA:NOROOT(0)
        DATA8
//   73 uint8 state = 0;
state:
        DS 1
        REQUIRE __INIT_XDATA_Z

        RSEG XDATA_Z:XDATA:NOROOT(0)
        DATA16
//   74 uint8  CMD_Token[2];
CMD_Token:
        DS 2
        REQUIRE __INIT_XDATA_Z

        RSEG XDATA_Z:XDATA:NOROOT(0)
        DATA8
//   75 uint8  LEN_Token;
LEN_Token:
        DS 1
        REQUIRE __INIT_XDATA_Z

        RSEG XDATA_Z:XDATA:NOROOT(0)
        DATA8
//   76 uint8  FSC_Token;
FSC_Token:
        DS 1
        REQUIRE __INIT_XDATA_Z

        RSEG XDATA_Z:XDATA:NOROOT(0)
        DATA16
//   77 mtOSALSerialData_t  *pMsg;
pMsg:
        DS 2
        REQUIRE __INIT_XDATA_Z

        RSEG XDATA_Z:XDATA:NOROOT(0)
        DATA8
//   78 uint8  tempDataLen;
tempDataLen:
        DS 1
        REQUIRE __INIT_XDATA_Z
//   79 

        RSEG XDATA_Z:XDATA:NOROOT(0)
        DATA8
//   80 uint8 UART1_RX_STA = 0;
UART1_RX_STA:
        DS 1
        REQUIRE __INIT_XDATA_Z

        RSEG XDATA_Z:XDATA:NOROOT(0)
        DATA8
//   81 uint8 Uart1RxLen;
Uart1RxLen:
        DS 1
        REQUIRE __INIT_XDATA_Z

        RSEG XDATA_Z:XDATA:NOROOT(0)
        DATA8
//   82 uint8 UART1_RX_BUF[127];
UART1_RX_BUF:
        DS 127
        REQUIRE __INIT_XDATA_Z
//   83 
//   84 #if defined (ZAPP_P1) || defined (ZAPP_P2)
//   85 uint16  MT_UartMaxZAppBufLen;
//   86 bool    MT_UartZAppRxStatus;
//   87 #endif
//   88 
//   89 
//   90 /***************************************************************************************************
//   91  *                                          LOCAL FUNCTIONS
//   92  ***************************************************************************************************/
//   93 
//   94 /***************************************************************************************************
//   95  * @fn      MT_UartInit
//   96  *
//   97  * @brief   Initialize MT with UART support
//   98  *
//   99  * @param   None
//  100  *
//  101  * @return  None
//  102 ***************************************************************************************************/

        RSEG BANKED_CODE:CODE:NOROOT(0)
//  103 void MT_UartInit ()
MT_UartInit:
        CFI Block cfiBlock0 Using cfiCommon0
        CFI Function MT_UartInit
        CODE
//  104 {
        FUNCALL MT_UartInit, HalUARTOpen
        LOCFRAME ISTACK, 2, STACK
        LOCFRAME PSTACK, 0, STACK
        LOCFRAME XSTACK, 29, STACK
        LOCFRAME IOVERLAY, 0, STATIC
        LOCFRAME DOVERLAY, 0, STATIC
        ARGFRAME ISTACK, 2, STACK
        ARGFRAME PSTACK, 0, STACK
        ARGFRAME XSTACK, 29, STACK
        ARGFRAME IOVERLAY, 0, STATIC
        ARGFRAME DOVERLAY, 0, STATIC
        PUSH    DPL
        CFI DPL0 Frame(CFA_SP, 4)
        CFI CFA_SP SP+-4
        PUSH    DPH
        CFI DPH0 Frame(CFA_SP, 5)
        CFI CFA_SP SP+-5
        ; Saved register size: 2
        ; Auto size: 29
        MOV     A,#-0x1d
        LCALL   ?ALLOC_XSTACK8
        CFI CFA_XSP16 add(XSP16, 29)
//  105   halUARTCfg_t uartConfig;
//  106 
//  107   /* Initialize APP ID */
//  108   App_TaskID = 0;
        MOV     DPTR,#App_TaskID
        CLR     A
        MOVX    @DPTR,A
//  109 
//  110   /* UART Configuration */
//  111   uartConfig.configured           = TRUE;
        MOV     DPL,?XSP + 0
        MOV     DPH,?XSP + 1
        INC     A
        MOVX    @DPTR,A
//  112   uartConfig.baudRate             = MT_UART_DEFAULT_BAUDRATE;
        LCALL   ?XSTACK_DISP0_8
        MOV     A,#0x4
        MOVX    @DPTR,A
//  113   //uartConfig.flowControl          = MT_UART_DEFAULT_OVERFLOW;
//  114   uartConfig.flowControl          = FALSE;
        MOV     A,#0x2
        LCALL   ?XSTACK_DISP0_8
        CLR     A
        MOVX    @DPTR,A
//  115   uartConfig.flowControlThreshold = MT_UART_DEFAULT_THRESHOLD;
        MOV     A,#0x3
        LCALL   ?XSTACK_DISP0_8
        MOV     A,#0x40
        MOVX    @DPTR,A
        INC     DPTR
        CLR     A
        MOVX    @DPTR,A
//  116   uartConfig.rx.maxBufSize        = MT_UART_DEFAULT_MAX_RX_BUFF;
        MOV     A,#0xa
        LCALL   ?XSTACK_DISP0_8
        MOV     A,#-0x80
        MOVX    @DPTR,A
        INC     DPTR
        CLR     A
        MOVX    @DPTR,A
//  117   uartConfig.tx.maxBufSize        = MT_UART_DEFAULT_MAX_TX_BUFF;
        MOV     A,#0x12
        LCALL   ?XSTACK_DISP0_8
        MOV     A,#-0x80
        MOVX    @DPTR,A
        INC     DPTR
        CLR     A
        MOVX    @DPTR,A
//  118   uartConfig.idleTimeout          = MT_UART_DEFAULT_IDLE_TIMEOUT;
        MOV     A,#0x5
        LCALL   ?XSTACK_DISP0_8
        MOV     A,#0x6
        MOVX    @DPTR,A
//  119   uartConfig.intEnable            = TRUE;
        MOV     A,#0x16
        LCALL   ?XSTACK_DISP0_8
        MOV     A,#0x1
        MOVX    @DPTR,A
//  120 #if defined (ZTOOL_P1) || defined (ZTOOL_P2)
//  121   uartConfig.callBackFunc         = MT_UartProcessZToolData; //串口接受回调函数
        MOV     A,#0x1b
        LCALL   ?XSTACK_DISP0_8
        MOV     A,#??MT_UartProcessZToolData?relay & 0xff
        MOVX    @DPTR,A
        INC     DPTR
        MOV     A,#(??MT_UartProcessZToolData?relay >> 8) & 0xff
        MOVX    @DPTR,A
//  122 #elif defined (ZAPP_P1) || defined (ZAPP_P2)
//  123   uartConfig.callBackFunc         = MT_UartProcessZAppData;
//  124 #else
//  125   uartConfig.callBackFunc         = NULL;
//  126 #endif
//  127 
//  128   /* Start UART */
//  129 #if defined (MT_UART_DEFAULT_PORT)
//  130   HalUARTOpen (MT_UART_DEFAULT_PORT, &uartConfig);
        ; Setup parameters for call to function HalUARTOpen
        MOV     DPL,?XSP + 0
        MOV     DPH,?XSP + 1
        MOV     R2,DPL
        MOV     R3,DPH
        MOV     R1,#0x0
        LCALL   ??HalUARTOpen?relay
//  131 #ifdef COOR_DEVICE_UART1 //配置串口1
//  132   HalUARTOpen (1, &uartConfig);
//  133 #endif
//  134 #else
//  135   /* Silence IAR compiler warning */
//  136   (void)uartConfig;
//  137 #endif
//  138 
//  139   /* Initialize for ZApp */
//  140 #if defined (ZAPP_P1) || defined (ZAPP_P2)
//  141   /* Default max bytes that ZAPP can take */
//  142   MT_UartMaxZAppBufLen  = 1;
//  143   MT_UartZAppRxStatus   = MT_UART_ZAPP_RX_READY;
//  144 #endif
//  145 
//  146 }
        MOV     A,#0x1d
        LCALL   ?DEALLOC_XSTACK8
        CFI EndBlock cfiBlock0
        REQUIRE ?Subroutine0
        ; // Fall through to label ?Subroutine0

        RSEG BANKED_CODE:CODE:NOROOT(0)
?Subroutine0:
        CFI Block cfiBlock1 Using cfiCommon0
        CFI NoFunction
        CFI CFA_SP SP+-5
        CFI DPL0 Frame(CFA_SP, 4)
        CFI DPH0 Frame(CFA_SP, 5)
        POP     DPH
        CFI CFA_SP SP+-4
        CFI DPH0 SameValue
        POP     DPL
        CFI CFA_SP SP+-3
        CFI DPL0 SameValue
        LJMP    ?BRET
        CFI EndBlock cfiBlock1
//  147 
//  148 /***************************************************************************************************
//  149  * @fn      MT_SerialRegisterTaskID
//  150  *
//  151  * @brief   This function registers the taskID of the application so it knows
//  152  *          where to send the messages whent they come in.
//  153  *
//  154  * @param   void
//  155  *
//  156  * @return  void
//  157  ***************************************************************************************************/

        RSEG BANKED_CODE:CODE:NOROOT(0)
//  158 void MT_UartRegisterTaskID( byte taskID )
MT_UartRegisterTaskID:
        CFI Block cfiBlock2 Using cfiCommon0
        CFI Function MT_UartRegisterTaskID
        CODE
//  159 {
        PUSH    DPL
        CFI DPL0 Frame(CFA_SP, 4)
        CFI CFA_SP SP+-4
        PUSH    DPH
        CFI DPH0 Frame(CFA_SP, 5)
        CFI CFA_SP SP+-5
        ; Saved register size: 2
        ; Auto size: 0
//  160   App_TaskID = taskID;
        MOV     A,R1
        MOV     DPTR,#App_TaskID
        MOVX    @DPTR,A
//  161 }
        SJMP    ?Subroutine0
        CFI EndBlock cfiBlock2
//  162 
//  163 /***************************************************************************************************
//  164  * @fn      SPIMgr_CalcFCS
//  165  *
//  166  * @brief   Calculate the FCS of a message buffer by XOR'ing each byte.
//  167  *          Remember to NOT include SOP and FCS fields, so start at the CMD field.
//  168  *
//  169  * @param   byte *msg_ptr - message pointer
//  170  * @param   byte len - length (in bytes) of message
//  171  *
//  172  * @return  result byte
//  173  ***************************************************************************************************/

        RSEG BANKED_CODE:CODE:NOROOT(0)
//  174 byte MT_UartCalcFCS( uint8 *msg_ptr, uint8 len )
MT_UartCalcFCS:
        CFI Block cfiBlock3 Using cfiCommon0
        CFI Function MT_UartCalcFCS
        CODE
//  175 {
        PUSH    DPL
        CFI DPL0 Frame(CFA_SP, 4)
        CFI CFA_SP SP+-4
        PUSH    DPH
        CFI DPH0 Frame(CFA_SP, 5)
        CFI CFA_SP SP+-5
        ; Saved register size: 2
        ; Auto size: 0
        MOV     A,R1
        MOV     R4,A
//  176   byte x;
//  177   byte xorResult;
//  178 
//  179   xorResult = 0;
        MOV     R1,#0x0
//  180 
//  181   for ( x = 0; x < len; x++, msg_ptr++ )
        MOV     R0,#0x0
        SJMP    ??MT_UartCalcFCS_0
//  182     xorResult = xorResult ^ *msg_ptr;
??MT_UartCalcFCS_1:
        MOV     DPL,R2
        MOV     DPH,R3
        MOVX    A,@DPTR
        XCH     A,R1
        XRL     A,R1
        MOV     R1,A
        INC     R0
        INC     DPTR
        MOV     R2,DPL
        MOV     R3,DPH
??MT_UartCalcFCS_0:
        MOV     A,R0
        CLR     C
        SUBB    A,R4
        JC      ??MT_UartCalcFCS_1
//  183 
//  184   return ( xorResult );
        SJMP    ?Subroutine0
        CFI EndBlock cfiBlock3
//  185 }
//  186 
//  187 
//  188 /***************************************************************************************************
//  189  * @fn      MT_UartProcessZToolData
//  190  *
//  191  * @brief   | SOP | Data Length  |   CMD   |   Data   |  FCS  |
//  192  *          |  1  |     1        |    2    |  0-Len   |   1   |
//  193  *
//  194  *          Parses the data and determine either is SPI or just simply serial data
//  195  *          then send the data to correct place (MT or APP)
//  196  *
//  197  * @param   port     - UART port
//  198  *          event    - Event that causes the callback
//  199  *
//  200  *
//  201  * @return  None
//  202  ***************************************************************************************************/

        RSEG BANKED_CODE:CODE:NOROOT(0)
//  203 void MT_UartProcessZToolData ( uint8 port, uint8 event ) //自定xУ艉 1
MT_UartProcessZToolData:
        CFI Block cfiBlock4 Using cfiCommon0
        CFI Function MT_UartProcessZToolData
        CODE
//  204 {
        FUNCALL MT_UartProcessZToolData, Hal_UART_RxBufLen
        LOCFRAME ISTACK, 0, STACK
        LOCFRAME PSTACK, 0, STACK
        LOCFRAME XSTACK, 13, STACK
        LOCFRAME IOVERLAY, 0, STATIC
        LOCFRAME DOVERLAY, 0, STATIC
        ARGFRAME ISTACK, 0, STACK
        ARGFRAME PSTACK, 0, STACK
        ARGFRAME XSTACK, 13, STACK
        ARGFRAME IOVERLAY, 0, STATIC
        ARGFRAME DOVERLAY, 0, STATIC
        FUNCALL MT_UartProcessZToolData, osal_msg_allocate
        LOCFRAME ISTACK, 0, STACK
        LOCFRAME PSTACK, 0, STACK
        LOCFRAME XSTACK, 13, STACK
        LOCFRAME IOVERLAY, 0, STATIC
        LOCFRAME DOVERLAY, 0, STATIC
        ARGFRAME ISTACK, 0, STACK
        ARGFRAME PSTACK, 0, STACK
        ARGFRAME XSTACK, 13, STACK
        ARGFRAME IOVERLAY, 0, STATIC
        ARGFRAME DOVERLAY, 0, STATIC
        FUNCALL MT_UartProcessZToolData, HalUARTRead
        LOCFRAME ISTACK, 0, STACK
        LOCFRAME PSTACK, 0, STACK
        LOCFRAME XSTACK, 13, STACK
        LOCFRAME IOVERLAY, 0, STATIC
        LOCFRAME DOVERLAY, 0, STATIC
        ARGFRAME ISTACK, 0, STACK
        ARGFRAME PSTACK, 0, STACK
        ARGFRAME XSTACK, 13, STACK
        ARGFRAME IOVERLAY, 0, STATIC
        ARGFRAME DOVERLAY, 0, STATIC
        FUNCALL MT_UartProcessZToolData, osal_msg_send
        LOCFRAME ISTACK, 0, STACK
        LOCFRAME PSTACK, 0, STACK
        LOCFRAME XSTACK, 13, STACK
        LOCFRAME IOVERLAY, 0, STATIC
        LOCFRAME DOVERLAY, 0, STATIC
        ARGFRAME ISTACK, 0, STACK
        ARGFRAME PSTACK, 0, STACK
        ARGFRAME XSTACK, 13, STACK
        ARGFRAME IOVERLAY, 0, STATIC
        ARGFRAME DOVERLAY, 0, STATIC
        FUNCALL MT_UartProcessZToolData, Hal_UART_RxBufLen
        LOCFRAME ISTACK, 0, STACK
        LOCFRAME PSTACK, 0, STACK
        LOCFRAME XSTACK, 13, STACK
        LOCFRAME IOVERLAY, 0, STATIC
        LOCFRAME DOVERLAY, 0, STATIC
        ARGFRAME ISTACK, 0, STACK
        ARGFRAME PSTACK, 0, STACK
        ARGFRAME XSTACK, 13, STACK
        ARGFRAME IOVERLAY, 0, STATIC
        ARGFRAME DOVERLAY, 0, STATIC
        FUNCALL MT_UartProcessZToolData, HalUARTRead
        LOCFRAME ISTACK, 0, STACK
        LOCFRAME PSTACK, 0, STACK
        LOCFRAME XSTACK, 13, STACK
        LOCFRAME IOVERLAY, 0, STATIC
        LOCFRAME DOVERLAY, 0, STATIC
        ARGFRAME ISTACK, 0, STACK
        ARGFRAME PSTACK, 0, STACK
        ARGFRAME XSTACK, 13, STACK
        ARGFRAME IOVERLAY, 0, STATIC
        ARGFRAME DOVERLAY, 0, STATIC
        MOV     A,#-0xd
        LCALL   ?BANKED_ENTER_XDATA
        CFI DPH0 load(1, XDATA, add(CFA_XSP16, literal(-1)))
        CFI DPL0 load(1, XDATA, add(CFA_XSP16, literal(-2)))
        CFI ?BRET_EXT load(1, XDATA, add(CFA_XSP16, literal(-3)))
        CFI ?RET_HIGH load(1, XDATA, add(CFA_XSP16, literal(-4)))
        CFI ?RET_LOW load(1, XDATA, add(CFA_XSP16, literal(-5)))
        CFI R7 load(1, XDATA, add(CFA_XSP16, literal(-6)))
        CFI V4 load(1, XDATA, add(CFA_XSP16, literal(-7)))
        CFI V3 load(1, XDATA, add(CFA_XSP16, literal(-8)))
        CFI V2 load(1, XDATA, add(CFA_XSP16, literal(-9)))
        CFI V1 load(1, XDATA, add(CFA_XSP16, literal(-10)))
        CFI V0 load(1, XDATA, add(CFA_XSP16, literal(-11)))
        CFI VB load(1, XDATA, add(CFA_XSP16, literal(-12)))
        CFI R6 load(1, XDATA, add(CFA_XSP16, literal(-13)))
        CFI CFA_SP SP+0
        CFI CFA_XSP16 add(XSP16, 13)
        ; Saved register size: 13
        ; Auto size: 0
        MOV     ?V0 + 0,R2
//  205   osal_event_hdr_t  *msg_ptr;
//  206   uint8 uart0RxLen;
//  207   //uint8 dataBuffer0[127];
//  208   
//  209    if(( event & ( HAL_UART_RX_FULL | HAL_UART_RX_ABOUT_FULL | HAL_UART_RX_TIMEOUT ) ) )
        MOV     A,#0x7
        ANL     A,?V0 + 0
        JZ      ??MT_UartProcessZToolData_0
//  210    {
//  211      if(port == HAL_UART_PORT_0)
        MOV     A,R1
        JNZ     ??MT_UartProcessZToolData_1
//  212      {
//  213        uart0RxLen = Hal_UART_RxBufLen(HAL_UART_PORT_0);
        ; Setup parameters for call to function Hal_UART_RxBufLen
        MOV     R1,#0x0
        LCALL   ??Hal_UART_RxBufLen?relay
        MOV     A,R2
        MOV     ?V0 + 4,A
//  214        
//  215        msg_ptr = (osal_event_hdr_t *)osal_msg_allocate( uart0RxLen + sizeof(osal_event_hdr_t) );
        ; Setup parameters for call to function osal_msg_allocate
        ADD     A,#0x2
        INC     R2
        INC     R2
        CLR     A
        ADDC    A,#0x0
        MOV     R3,A
        LCALL   ??osal_msg_allocate?relay
        MOV     ?V0 + 2,R2
        MOV     ?V0 + 3,R3
        MOV     R6,?V0 + 2
        MOV     R7,?V0 + 3
//  216        if(msg_ptr)
        MOV     A,R6
        ORL     A,R7
        JZ      ??MT_UartProcessZToolData_0
//  217        {
//  218          msg_ptr->event = CMD_SERIAL_MSG_0; //串口0
        MOV     DPL,R6
        MOV     DPH,R7
        MOV     A,#0x1
        MOVX    @DPTR,A
//  219          msg_ptr->status = uart0RxLen;
        INC     DPTR
        MOV     A,?V0 + 4
        MOVX    @DPTR,A
//  220          HalUARTRead( HAL_UART_PORT_0, (uint8 *)(msg_ptr + 1), uart0RxLen );
        ; Setup parameters for call to function HalUARTRead
        MOV     R4,A
        MOV     R5,#0x0
        MOV     A,R6
        ADD     A,#0x2
        INC     R2
        INC     R2
        MOV     A,R7
        ADDC    A,#0x0
        MOV     R3,A
        MOV     R1,#0x0
        LCALL   ??HalUARTRead?relay
//  221 
//  222          //HalUARTWrite(1, (uint8 *)msg_ptr, 20); 
//  223          osal_msg_send( App_TaskID, (uint8 *)msg_ptr );
        ; Setup parameters for call to function osal_msg_send
        MOV     A,R6
        MOV     R2,A
        MOV     A,R7
        MOV     R3,A
        MOV     DPTR,#App_TaskID
        MOVX    A,@DPTR
        MOV     R1,A
        LCALL   ??osal_msg_send?relay
        SJMP    ??MT_UartProcessZToolData_0
//  224        }
//  225      }else //uart1 for sim800a
//  226      { 
//  227        UART1_RX_STA = 1;
??MT_UartProcessZToolData_1:
        MOV     DPTR,#UART1_RX_STA
        MOV     A,#0x1
        MOVX    @DPTR,A
//  228        
//  229        Uart1RxLen = Hal_UART_RxBufLen(HAL_UART_PORT_1);
        ; Setup parameters for call to function Hal_UART_RxBufLen
        MOV     R1,A
        LCALL   ??Hal_UART_RxBufLen?relay
        MOV     A,R2
        MOV     DPTR,#Uart1RxLen
        MOVX    @DPTR,A
//  230        HalUARTRead(HAL_UART_PORT_1, UART1_RX_BUF, Uart1RxLen);
        ; Setup parameters for call to function HalUARTRead
        MOV     R4,A
        MOV     R5,#0x0
        MOV     R2,#UART1_RX_BUF & 0xff
        MOV     R3,#(UART1_RX_BUF >> 8) & 0xff
        MOV     R1,#0x1
        LCALL   ??HalUARTRead?relay
//  231      }
//  232    }
//  233 }
??MT_UartProcessZToolData_0:
        MOV     R7,#0x5
        LJMP    ?BANKED_LEAVE_XDATA
        CFI EndBlock cfiBlock4

        RSEG BANK_RELAYS:CODE:REORDER:NOROOT(0)
??MT_UartInit?relay:
        LCALL   ?BDISPATCH
        DATA
        DC24    MT_UartInit

        RSEG BANK_RELAYS:CODE:REORDER:NOROOT(0)
??MT_UartRegisterTaskID?relay:
        LCALL   ?BDISPATCH
        DATA
        DC24    MT_UartRegisterTaskID

        RSEG BANK_RELAYS:CODE:REORDER:NOROOT(0)
??MT_UartCalcFCS?relay:
        LCALL   ?BDISPATCH
        DATA
        DC24    MT_UartCalcFCS

        RSEG BANK_RELAYS:CODE:REORDER:NOROOT(0)
??MT_UartProcessZToolData?relay:
        LCALL   ?BDISPATCH
        DATA
        DC24    MT_UartProcessZToolData

        END
//  234 
//  235 /*void MT_UartProcessZToolData ( uint8 port, uint8 event ) //自定xУ艉 2
//  236 {
//  237   uint8  ch;
//  238   //uint8  bytesInRxBuffer;
//  239   uint8  msglen = 0;
//  240   uint8  msgBuffer[18];
//  241   state = SOP_STATE;
//  242   
//  243   (void)event;  // Intentionally unreferenced parameter
//  244   while (Hal_UART_RxBufLen(port))
//  245   {
//  246      HalUARTRead (port, &ch, 1); 
//  247      msgBuffer[msglen ++] = ch; //存储数据
//  248      switch (state)
//  249      {
//  250       case SOP_STATE:
//  251         if (ch == 0xEE) //帧头
//  252         {
//  253           break;
//  254         }else if (ch == 0xCC)
//  255         {
//  256           state = DATA_STATE;
//  257           break;
//  258         }else
//  259           break;
//  260       case DATA_STATE:
//  261         if(msglen == 18)
//  262         {
//  263           if( ch == 0xFF)
//  264           {
//  265             pMsg = (mtOSALSerialData_t *)osal_msg_allocate( sizeof ( mtOSALSerialData_t ));
//  266             if(pMsg)
//  267             {
//  268               if(port == 0)
//  269                 pMsg->hdr.event = CMD_SERIAL_MSG_0; //串口0
//  270               else if(port == 1)
//  271                 pMsg->hdr.event = CMD_SERIAL_MSG_1; //串口1
//  272               
//  273               osal_memcpy(pMsg->msg, msgBuffer, 18);
//  274               osal_msg_send( App_TaskID, (byte *)pMsg );
//  275               state = SOP_STATE;
//  276             }else
//  277             {
//  278               state = SOP_STATE;
//  279             }
//  280           }else
//  281           {
//  282             //deallocate the msg 
//  283             osal_msg_deallocate ( (uint8 *)pMsg );
//  284             state = SOP_STATE;
//  285           }
//  286         }
//  287         break;
//  288       default:
//  289        break;
//  290      }
//  291   }
//  292 }
//  293 */
//  294 
//  295  /*
//  296 void MT_UartProcessZToolData ( uint8 port, uint8 event )//系统定义回调函数
//  297 {
//  298   uint8  ch;
//  299   uint8  bytesInRxBuffer;
//  300   
//  301   (void)event;  // Intentionally unreferenced parameter
//  302   while (Hal_UART_RxBufLen(port))
//  303   {
//  304     HalUARTRead (port, &ch, 1);
//  305 
//  306     switch (state)
//  307     {
//  308       case SOP_STATE:
//  309         if (ch == MT_UART_SOF)
//  310           state = LEN_STATE;
//  311         break;
//  312 
//  313       case LEN_STATE:
//  314         LEN_Token = ch; //数据长度
//  315 
//  316         tempDataLen = 0;
//  317 
//  318         //Allocate memory for the data 
//  319         pMsg = (mtOSALSerialData_t *)osal_msg_allocate( sizeof ( mtOSALSerialData_t ) +
//  320                                                         MT_RPC_FRAME_HDR_SZ + LEN_Token );
//  321 
//  322         if (pMsg)
//  323         {
//  324           //Fill up what we can 
//  325           if(port == 0)
//  326             pMsg->hdr.event = CMD_SERIAL_MSG_0; //串口0
//  327           else if(port == 1)
//  328             pMsg->hdr.event = CMD_SERIAL_MSG_1; //串口1
//  329           
//  330           pMsg->msg = (uint8*)(pMsg+1);
//  331           pMsg->msg[MT_RPC_POS_LEN] = LEN_Token;
//  332           state = CMD_STATE1;
//  333         }
//  334         else
//  335         {
//  336           state = SOP_STATE;
//  337           return;
//  338         }
//  339         break;
//  340 
//  341       case CMD_STATE1:
//  342         pMsg->msg[MT_RPC_POS_CMD0] = ch;
//  343         state = CMD_STATE2;
//  344         break;
//  345 
//  346       case CMD_STATE2:
//  347         pMsg->msg[MT_RPC_POS_CMD1] = ch;
//  348         // If there is no data, skip to FCS state 
//  349         if (LEN_Token)
//  350         {
//  351           state = DATA_STATE;
//  352         }
//  353         else
//  354         {
//  355           state = FCS_STATE;
//  356         }
//  357         break;
//  358 
//  359       case DATA_STATE:
//  360 
//  361         // Fill in the buffer the first byte of the data 
//  362         pMsg->msg[MT_RPC_FRAME_HDR_SZ + tempDataLen++] = ch;
//  363 
//  364         // Check number of bytes left in the Rx buffer 
//  365         bytesInRxBuffer = Hal_UART_RxBufLen(port);
//  366 
//  367         // If the remain of the data is there, read them all, otherwise, just read enough 
//  368         if (bytesInRxBuffer <= LEN_Token - tempDataLen)
//  369         {
//  370           HalUARTRead (port, &pMsg->msg[MT_RPC_FRAME_HDR_SZ + tempDataLen], bytesInRxBuffer);
//  371           tempDataLen += bytesInRxBuffer;
//  372         }
//  373         else
//  374         {
//  375           HalUARTRead (port, &pMsg->msg[MT_RPC_FRAME_HDR_SZ + tempDataLen], LEN_Token - tempDataLen);
//  376           tempDataLen += (LEN_Token - tempDataLen);
//  377         }
//  378 
//  379         // If number of bytes read is equal to data length, time to move on to FCS 
//  380         if ( tempDataLen == LEN_Token )
//  381             state = FCS_STATE;
//  382 
//  383         break;
//  384 
//  385       case FCS_STATE:
//  386 
//  387         FSC_Token = ch;
//  388 
//  389         // Make sure it's correct 
//  390         if ((MT_UartCalcFCS ((uint8*)&pMsg->msg[0], MT_RPC_FRAME_HDR_SZ + LEN_Token) == FSC_Token))
//  391         {
//  392           osal_msg_send( App_TaskID, (byte *)pMsg );
//  393         }
//  394         else
//  395         {
//  396           // deallocate the msg 
//  397           osal_msg_deallocate ( (uint8 *)pMsg );
//  398         }
//  399 
//  400         // Reset the state, send or discard the buffers at this point 
//  401         state = SOP_STATE;
//  402 
//  403         break;
//  404 
//  405       default:
//  406        break;
//  407     }
//  408   }
//  409 }*/
//  410 
//  411 #if defined (ZAPP_P1) || defined (ZAPP_P2)
//  412 /***************************************************************************************************
//  413  * @fn      MT_UartProcessZAppData
//  414  *
//  415  * @brief   | SOP | CMD  |   Data Length   | FSC  |
//  416  *          |  1  |  2   |       1         |  1   |
//  417  *
//  418  *          Parses the data and determine either is SPI or just simply serial data
//  419  *          then send the data to correct place (MT or APP)
//  420  *
//  421  * @param   port    - UART port
//  422  *          event   - Event that causes the callback
//  423  *
//  424  *
//  425  * @return  None
//  426  ***************************************************************************************************/
//  427 void MT_UartProcessZAppData ( uint8 port, uint8 event )
//  428 {
//  429 
//  430   osal_event_hdr_t  *msg_ptr;
//  431   uint16 length = 0;
//  432   uint16 rxBufLen  = Hal_UART_RxBufLen(MT_UART_DEFAULT_PORT);
//  433 
//  434   /*
//  435      If maxZAppBufferLength is 0 or larger than current length
//  436      the entire length of the current buffer is returned.
//  437   */
//  438   if ((MT_UartMaxZAppBufLen != 0) && (MT_UartMaxZAppBufLen <= rxBufLen))
//  439   {
//  440     length = MT_UartMaxZAppBufLen;
//  441   }
//  442   else
//  443   {
//  444     length = rxBufLen;
//  445   }
//  446 
//  447   /* Verify events */
//  448   if (event == HAL_UART_TX_FULL)
//  449   {
//  450     // Do something when TX if full
//  451     return;
//  452   }
//  453 
//  454   if (event & ( HAL_UART_RX_FULL | HAL_UART_RX_ABOUT_FULL | HAL_UART_RX_TIMEOUT))
//  455   {
//  456     if ( App_TaskID )
//  457     {
//  458       /*
//  459          If Application is ready to receive and there is something
//  460          in the Rx buffer then send it up
//  461       */
//  462       if ((MT_UartZAppRxStatus == MT_UART_ZAPP_RX_READY ) && (length != 0))
//  463       {
//  464         /* Disable App flow control until it processes the current data */
//  465          MT_UartAppFlowControl (MT_UART_ZAPP_RX_NOT_READY);
//  466 
//  467         /* 2 more bytes are added, 1 for CMD type, other for length */
//  468         msg_ptr = (osal_event_hdr_t *)osal_msg_allocate( length + sizeof(osal_event_hdr_t) );
//  469         if ( msg_ptr )
//  470         {
//  471           msg_ptr->event = SPI_INCOMING_ZAPP_DATA;
//  472           msg_ptr->status = length;
//  473 
//  474           /* Read the data of Rx buffer */
//  475           HalUARTRead( MT_UART_DEFAULT_PORT, (uint8 *)(msg_ptr + 1), length );
//  476 
//  477           /* Send the raw data to application...or where ever */
//  478           osal_msg_send( App_TaskID, (uint8 *)msg_ptr );
//  479         }
//  480       }
//  481     }
//  482   }
//  483 }
//  484 
//  485 /***************************************************************************************************
//  486  * @fn      SPIMgr_ZAppBufferLengthRegister
//  487  *
//  488  * @brief
//  489  *
//  490  * @param   maxLen - Max Length that the application wants at a time
//  491  *
//  492  * @return  None
//  493  *
//  494  ***************************************************************************************************/
//  495 void MT_UartZAppBufferLengthRegister ( uint16 maxLen )
//  496 {
//  497   /* If the maxLen is larger than the RX buff, something is not right */
//  498   if (maxLen <= MT_UART_DEFAULT_MAX_RX_BUFF)
//  499     MT_UartMaxZAppBufLen = maxLen;
//  500   else
//  501     MT_UartMaxZAppBufLen = 1; /* default is 1 byte */
//  502 }
//  503 
//  504 /***************************************************************************************************
//  505  * @fn      SPIMgr_AppFlowControl
//  506  *
//  507  * @brief
//  508  *
//  509  * @param   status - ready to send or not
//  510  *
//  511  * @return  None
//  512  *
//  513  ***************************************************************************************************/
//  514 void MT_UartAppFlowControl ( bool status )
//  515 {
//  516 
//  517   /* Make sure only update if needed */
//  518   if (status != MT_UartZAppRxStatus )
//  519   {
//  520     MT_UartZAppRxStatus = status;
//  521   }
//  522 
//  523   /* App is ready to read again, ProcessZAppData have to be triggered too */
//  524   if (status == MT_UART_ZAPP_RX_READY)
//  525   {
//  526     MT_UartProcessZAppData (MT_UART_DEFAULT_PORT, HAL_UART_RX_TIMEOUT );
//  527   }
//  528 
//  529 }
//  530 
//  531 #endif //ZAPP
//  532 
//  533 /***************************************************************************************************
//  534 ***************************************************************************************************/
// 
// 288 bytes in segment BANKED_CODE
//  24 bytes in segment BANK_RELAYS
// 138 bytes in segment XDATA_Z
// 
// 312 bytes of CODE  memory
// 138 bytes of XDATA memory
//
//Errors: none
//Warnings: none
