###############################################################################
#                                                                             #
# IAR C/C++ Compiler V8.10.3.10338/W32 for 8051         29/Sep/2018  17:09:20 #
# Copyright 2004-2011 IAR Systems AB.                                         #
#                                                                             #
#    Core               =  plain                                              #
#    Code model         =  banked                                             #
#    Data model         =  large                                              #
#    Calling convention =  xdata reentrant                                    #
#    Constant location  =  data_rom                                           #
#    Dptr setup         =  1,16                                               #
#    Source file        =  E:\BYSJ\bysj2018\SRC\11\ZigBeePro\Projects\zstack\ #
#                          Samples\SampleApp\Source\SampleApp.c               #
#    Command line       =  -f E:\BYSJ\bysj2018\SRC\11\ZigBeePro\Projects\zsta #
#                          ck\Samples\SampleApp\CC2530DB\..\..\..\Tools\CC253 #
#                          0DB\f8wEndev.cfg (-DCPU32MHZ -DROOT=__near_func    #
#                          -DMAC_CFG_TX_DATA_MAX=3 -DMAC_CFG_TX_MAX=6         #
#                          -DMAC_CFG_RX_MAX=3) -f E:\BYSJ\bysj2018\SRC\11\Zig #
#                          BeePro\Projects\zstack\Samples\SampleApp\CC2530DB\ #
#                          ..\..\..\Tools\CC2530DB\f8wConfig.cfg              #
#                          (-DZIGBEEPRO -DSECURE=0 -DZG_SECURE_DYNAMIC=0      #
#                          -DREFLECTOR -DDEFAULT_CHANLIST=0x00000800          #
#                          -DZDAPP_CONFIG_PAN_ID=0x1234                       #
#                          -DNWK_START_DELAY=100 -DEXTENDED_JOINING_RANDOM_MA #
#                          SK=0x007F -DBEACON_REQUEST_DELAY=100               #
#                          -DBEACON_REQ_DELAY_MASK=0x00FF                     #
#                          -DLINK_STATUS_JITTER_MASK=0x007F                   #
#                          -DROUTE_EXPIRY_TIME=30 -DAPSC_ACK_WAIT_DURATION_PO #
#                          LLED=3000 -DNWK_INDIRECT_MSG_TIMEOUT=7             #
#                          -DMAX_RREQ_ENTRIES=8 -DAPSC_MAX_FRAME_RETRIES=3    #
#                          -DNWK_MAX_DATA_RETRIES=2                           #
#                          -DMAX_POLL_FAILURE_RETRIES=2 -DMAX_BCAST=9         #
#                          -DAPS_MAX_GROUPS=16 -DMAX_RTG_ENTRIES=40           #
#                          -DNWK_MAX_BINDING_ENTRIES=4                        #
#                          -DMAX_BINDING_CLUSTER_IDS=4 "-DDEFAULT_KEY={0x01,  #
#                          0x03, 0x05, 0x07, 0x09, 0x0B, 0x0D, 0x0F, 0x00,    #
#                          0x02, 0x04, 0x06, 0x08, 0x0A, 0x0C, 0x0D}"         #
#                          -DMAC_MAX_FRAME_SIZE=116                           #
#                          -DZDNWKMGR_MIN_TRANSMISSIONS=20 "-DCONST=const     #
#                          __code" -DGENERIC=__generic                        #
#                          -DRFD_RCVC_ALWAYS_ON=FALSE -DPOLL_RATE=1000        #
#                          -DQUEUED_POLL_RATE=100 -DRESPONSE_POLL_RATE=100)   #
#                          -DREJOIN_POLL_RATE=440 E:\BYSJ\bysj2018\SRC\11\Zig #
#                          BeePro\Projects\zstack\Samples\SampleApp\Source\Sa #
#                          mpleApp.c -D NWK_AUTO_POLL -D ZTOOL_P1 -D MT_TASK  #
#                          -D MT_SYS_FUNC -D MT_ZDO_FUNC -D                   #
#                          LCD_SUPPORTED=DEBUG -lC E:\BYSJ\bysj2018\SRC\11\Zi #
#                          gBeePro\Projects\zstack\Samples\SampleApp\CC2530DB #
#                          \EndDeviceEB\List\ -lA E:\BYSJ\bysj2018\SRC\11\Zig #
#                          BeePro\Projects\zstack\Samples\SampleApp\CC2530DB\ #
#                          EndDeviceEB\List\ --diag_suppress Pe001,Pa010 -o   #
#                          E:\BYSJ\bysj2018\SRC\11\ZigBeePro\Projects\zstack\ #
#                          Samples\SampleApp\CC2530DB\EndDeviceEB\Obj\ -e     #
#                          --no_code_motion --debug --core=plain --dptr=16,1  #
#                          --data_model=large --code_model=banked             #
#                          --calling_convention=xdata_reentrant               #
#                          --place_constants=data_rom --nr_virtual_regs 16    #
#                          -I E:\BYSJ\bysj2018\SRC\11\ZigBeePro\Projects\zsta #
#                          ck\Samples\SampleApp\CC2530DB\ -I                  #
#                          E:\BYSJ\bysj2018\SRC\11\ZigBeePro\Projects\zstack\ #
#                          Samples\SampleApp\CC2530DB\..\Source\ -I           #
#                          E:\BYSJ\bysj2018\SRC\11\ZigBeePro\Projects\zstack\ #
#                          Samples\SampleApp\CC2530DB\..\..\..\ZMain\TI2530DB #
#                          \ -I E:\BYSJ\bysj2018\SRC\11\ZigBeePro\Projects\zs #
#                          tack\Samples\SampleApp\CC2530DB\..\..\..\..\..\Com #
#                          ponents\hal\include\ -I E:\BYSJ\bysj2018\SRC\11\Zi #
#                          gBeePro\Projects\zstack\Samples\SampleApp\CC2530DB #
#                          \..\..\..\..\..\Components\hal\target\CC2530EB\    #
#                          -I E:\BYSJ\bysj2018\SRC\11\ZigBeePro\Projects\zsta #
#                          ck\Samples\SampleApp\CC2530DB\..\..\..\..\..\Compo #
#                          nents\mac\include\ -I E:\BYSJ\bysj2018\SRC\11\ZigB #
#                          eePro\Projects\zstack\Samples\SampleApp\CC2530DB\. #
#                          .\..\..\..\..\Components\mac\high_level\ -I        #
#                          E:\BYSJ\bysj2018\SRC\11\ZigBeePro\Projects\zstack\ #
#                          Samples\SampleApp\CC2530DB\..\..\..\..\..\Componen #
#                          ts\mac\low_level\srf04\ -I                         #
#                          E:\BYSJ\bysj2018\SRC\11\ZigBeePro\Projects\zstack\ #
#                          Samples\SampleApp\CC2530DB\..\..\..\..\..\Componen #
#                          ts\mac\low_level\srf04\single_chip\ -I             #
#                          E:\BYSJ\bysj2018\SRC\11\ZigBeePro\Projects\zstack\ #
#                          Samples\SampleApp\CC2530DB\..\..\..\..\..\Componen #
#                          ts\mt\ -I E:\BYSJ\bysj2018\SRC\11\ZigBeePro\Projec #
#                          ts\zstack\Samples\SampleApp\CC2530DB\..\..\..\..\. #
#                          .\Components\osal\include\ -I                      #
#                          E:\BYSJ\bysj2018\SRC\11\ZigBeePro\Projects\zstack\ #
#                          Samples\SampleApp\CC2530DB\..\..\..\..\..\Componen #
#                          ts\services\saddr\ -I E:\BYSJ\bysj2018\SRC\11\ZigB #
#                          eePro\Projects\zstack\Samples\SampleApp\CC2530DB\. #
#                          .\..\..\..\..\Components\services\sdata\ -I        #
#                          E:\BYSJ\bysj2018\SRC\11\ZigBeePro\Projects\zstack\ #
#                          Samples\SampleApp\CC2530DB\..\..\..\..\..\Componen #
#                          ts\stack\af\ -I E:\BYSJ\bysj2018\SRC\11\ZigBeePro\ #
#                          Projects\zstack\Samples\SampleApp\CC2530DB\..\..\. #
#                          .\..\..\Components\stack\nwk\ -I                   #
#                          E:\BYSJ\bysj2018\SRC\11\ZigBeePro\Projects\zstack\ #
#                          Samples\SampleApp\CC2530DB\..\..\..\..\..\Componen #
#                          ts\stack\sapi\ -I E:\BYSJ\bysj2018\SRC\11\ZigBeePr #
#                          o\Projects\zstack\Samples\SampleApp\CC2530DB\..\.. #
#                          \..\..\..\Components\stack\sec\ -I                 #
#                          E:\BYSJ\bysj2018\SRC\11\ZigBeePro\Projects\zstack\ #
#                          Samples\SampleApp\CC2530DB\..\..\..\..\..\Componen #
#                          ts\stack\sys\ -I E:\BYSJ\bysj2018\SRC\11\ZigBeePro #
#                          \Projects\zstack\Samples\SampleApp\CC2530DB\..\..\ #
#                          ..\..\..\Components\stack\zdo\ -I                  #
#                          E:\BYSJ\bysj2018\SRC\11\ZigBeePro\Projects\zstack\ #
#                          Samples\SampleApp\CC2530DB\..\..\..\..\..\Componen #
#                          ts\zmac\ -I E:\BYSJ\bysj2018\SRC\11\ZigBeePro\Proj #
#                          ects\zstack\Samples\SampleApp\CC2530DB\..\..\..\.. #
#                          \..\Components\zmac\f8w\ -Ohz --require_prototypes #
#    List file          =  E:\BYSJ\bysj2018\SRC\11\ZigBeePro\Projects\zstack\ #
#                          Samples\SampleApp\CC2530DB\EndDeviceEB\List\Sample #
#                          App.lst                                            #
#    Object file        =  E:\BYSJ\bysj2018\SRC\11\ZigBeePro\Projects\zstack\ #
#                          Samples\SampleApp\CC2530DB\EndDeviceEB\Obj\SampleA #
#                          pp.r51                                             #
#                                                                             #
#                                                                             #
###############################################################################

E:\BYSJ\bysj2018\SRC\11\ZigBeePro\Projects\zstack\Samples\SampleApp\Source\SampleApp.c
      1          #include "OSAL.h"
      2          #include "ZGlobals.h"
      3          #include "AF.h"
      4          #include "aps_groups.h"
      5          #include "ZDApp.h"
      6          
      7          #include "SampleApp.h"
      8          #include "SampleAppHw.h"
      9          
     10          #include "OnBoard.h"
     11          
     12          /* HAL */
     13          #include "hal_lcd.h"
     14          #include "hal_led.h"
     15          #include "hal_key.h"
     16          #include "MT_UART.h"
     17          #include "MT_APP.h"
     18          #include "MT.h"
     19          #include "DHT11.h"
     20          #include "hal_adc.h"
     21          
     22          #include "adc_sensor.h"
     23          #include "dig_sensor.h"
     24          #include "agreement.h"
     25          //#include "Array_list.h"
     26          
     27          /*********************************************************************
     28           * MACROS
     29           */
     30          
     31          /*********************************************************************
     32           * CONSTANTS
     33           */
     34          
     35          /*********************************************************************
     36           * TYPEDEFS
     37           */
     38          
     39          /*********************************************************************
     40           * GLOBAL VARIABLES
     41           */

   \                                 In  segment XDATA_I, align 1, keep-with-next
     42          uint8 AppTitle[] = "ALD2530 DHT11"; //应用程序名称
   \                     AppTitle:
   \   000000                DS 14
   \   00000E                REQUIRE `?<Initializer for AppTitle>`
   \   00000E                REQUIRE __INIT_XDATA_I
     43          
     44          // This list should be filled with Application specific Cluster IDs.

   \                                 In  segment XDATA_ROM_C, align 1
     45          const cId_t SampleApp_ClusterList[SAMPLEAPP_MAX_CLUSTERS] =
   \                     SampleApp_ClusterList:
   \   000000   0100         DW 1
   \   000002   0200         DW 2
   \   000004   0300         DW 3
   \   000006   0400         DW 4
     46          {
     47            SAMPLEAPP_PERIODIC_CLUSTERID,
     48            SAMPLEAPP_FLASH_CLUSTERID,
     49            SAMPLEAPP_P2P_CLUSTERID,
     50            SAMPLEAPP_CMD_CLUSTERID
     51          };
     52          

   \                                 In  segment XDATA_ROM_C, align 1
     53          const SimpleDescriptionFormat_t SampleApp_SimpleDesc =
   \                     SampleApp_SimpleDesc:
   \   000000   14           DB 20
   \   000001   080F         DW 3848
   \   000003   0100         DW 1
   \   000005   00           DB 0
   \   000006   04           DB 4
   \   000007   ....         DW SampleApp_ClusterList
   \   000009   04           DB 4
   \   00000A   ....         DW SampleApp_ClusterList
     54          {
     55            SAMPLEAPP_ENDPOINT,              //  int Endpoint;
     56            SAMPLEAPP_PROFID,                //  uint16 AppProfId[2];
     57            SAMPLEAPP_DEVICEID,              //  uint16 AppDeviceId[2];
     58            SAMPLEAPP_DEVICE_VERSION,        //  int   AppDevVer:4;
     59            SAMPLEAPP_FLAGS,                 //  int   AppFlags:4;
     60            SAMPLEAPP_MAX_CLUSTERS,          //  uint8  AppNumInClusters;
     61            (cId_t *)SampleApp_ClusterList,  //  uint8 *pAppInClusterList;
     62            SAMPLEAPP_MAX_CLUSTERS,          //  uint8  AppNumInClusters;
     63            (cId_t *)SampleApp_ClusterList   //  uint8 *pAppInClusterList;
     64          };
     65          
     66          // This is the Endpoint/Interface description.  It is defined here, but
     67          // filled-in in SampleApp_Init().  Another way to go would be to fill
     68          // in the structure here and make it a "const" (in code space).  The
     69          // way it's defined in this sample app it is define in RAM.

   \                                 In  segment XDATA_Z, align 1, keep-with-next
     70          endPointDesc_t SampleApp_epDesc;
   \                     SampleApp_epDesc:
   \   000000                DS 6
   \   000006                REQUIRE __INIT_XDATA_Z
     71          
     72          /*********************************************************************
     73           * EXTERNAL VARIABLES
     74           */
     75          
     76          /*********************************************************************
     77           * EXTERNAL FUNCTIONS
     78           */
     79          
     80          /*********************************************************************
     81           * LOCAL VARIABLES
     82           */

   \                                 In  segment XDATA_Z, align 1, keep-with-next
     83          uint8 SampleApp_TaskID;   // Task ID for internal task/event processing
   \                     SampleApp_TaskID:
   \   000000                DS 1
   \   000001                REQUIRE __INIT_XDATA_Z
     84                                    // This variable will be received when
     85                                    // SampleApp_Init() is called.

   \                                 In  segment XDATA_Z, align 1, keep-with-next
     86          devStates_t SampleApp_NwkState;
   \                     SampleApp_NwkState:
   \   000000                DS 1
   \   000001                REQUIRE __INIT_XDATA_Z
     87          

   \                                 In  segment XDATA_Z, align 1, keep-with-next
     88          uint8 SampleApp_TransID;  // This is the unique message ID (counter)
   \                     SampleApp_TransID:
   \   000000                DS 1
   \   000001                REQUIRE __INIT_XDATA_Z
     89          

   \                                 In  segment XDATA_Z, align 1, keep-with-next
     90          afAddrType_t SampleApp_Periodic_DstAddr; //广播
   \                     SampleApp_Periodic_DstAddr:
   \   000000                DS 12
   \   00000C                REQUIRE __INIT_XDATA_Z

   \                                 In  segment XDATA_Z, align 1, keep-with-next
     91          afAddrType_t SampleApp_Flash_DstAddr;    //组播
   \                     SampleApp_Flash_DstAddr:
   \   000000                DS 12
   \   00000C                REQUIRE __INIT_XDATA_Z

   \                                 In  segment XDATA_Z, align 1, keep-with-next
     92          afAddrType_t SampleApp_P2P_DstAddr;      //点播
   \                     SampleApp_P2P_DstAddr:
   \   000000                DS 12
   \   00000C                REQUIRE __INIT_XDATA_Z

   \                                 In  segment XDATA_Z, align 1, keep-with-next
     93          afAddrType_t SampleApp_CMD_DstAddr;      //下发命令
   \                     SampleApp_CMD_DstAddr:
   \   000000                DS 12
   \   00000C                REQUIRE __INIT_XDATA_Z
     94          

   \                                 In  segment XDATA_Z, align 1, keep-with-next
     95          aps_Group_t SampleApp_Group;
   \                     SampleApp_Group:
   \   000000                DS 18
   \   000012                REQUIRE __INIT_XDATA_Z
     96          

   \                                 In  segment XDATA_Z, align 1, keep-with-next
     97          uint8 SampleAppPeriodicCounter = 0;
   \                     SampleAppPeriodicCounter:
   \   000000                DS 1
   \   000001                REQUIRE __INIT_XDATA_Z

   \                                 In  segment XDATA_Z, align 1, keep-with-next
     98          uint8 SampleAppFlashCounter = 0;
   \                     SampleAppFlashCounter:
   \   000000                DS 1
   \   000001                REQUIRE __INIT_XDATA_Z

   \                                 In  segment XDATA_I, align 1, keep-with-next
     99          agreementData sensorValue = {DATA_HEADH,DATA_HEADL,NWK_ZIGBEE,0,0,0,0,0,0,SENSOR_DATA_LENGTH,0,0,0,0,0,0,0,DATA_END};
   \                     sensorValue:
   \   000000                DS 18
   \   000012                REQUIRE `?<Initializer for sensorValue>`
   \   000012                REQUIRE __INIT_XDATA_I
    100          //uint8 test_buffer[18] = {0xEE, 0xCC, 0x01, 0x00, 0x00, 0xBB, 0x51, 0x0B, 0x01, 0x44, 0x10, 0x00, 0x00, 0x00, 0x00, 0x00, 0x00, 0xFF};
    101          
    102          /*********************************************************************
    103           * LOCAL FUNCTIONS
    104           */
    105          void SampleApp_HandleKeys( uint8 shift, uint8 keys );
    106          void SampleApp_MessageMSGCB( afIncomingMSGPacket_t *pckt );
    107          void SampleApp_SendPeriodicMessage(void);
    108          void SampleApp_SendFlashMessage( uint16 flashTime );
    109          void SampleApp_Send_P2P_Message(int8 _SensorStyle, int8 _SenserIndex, int8 _SenserPositon, uint8 *_pData);
    110          void SampleApp_NwkP2PMsgProcessing(afIncomingMSGPacket_t * pkt);
    111          void SampleApp_NwkCMDMsgProcessing(afIncomingMSGPacket_t * pkt);
    112          //void Sensor_ProcessMTCB( uint8 *pckt);
    113          void SampleApp_Send_CMD_Message(afIncomingMSGPacket_t *pckt);
    114          /*********************************************************************
    115           * NETWORK LAYER CALLBACKS
    116           */
    117          
    118          /*********************************************************************
    119           * PUBLIC FUNCTIONS
    120           */
    121          
    122          /*********************************************************************
    123           * @fn      SampleApp_Init
    124           *
    125           * @brief   Initialization function for the Generic App Task.
    126           *          This is called during initialization and should contain
    127           *          any application specific initialization (ie. hardware
    128           *          initialization/setup, table initialization, power up
    129           *          notificaiton ... ).
    130           *
    131           * @param   task_id - the ID assigned by OSAL.  This ID should be
    132           *                    used to send messages and set timers.
    133           *
    134           * @return  none
    135           */

   \                                 In  segment BANKED_CODE, align 1, keep-with-next
    136          void SampleApp_Init( uint8 task_id )
   \                     SampleApp_Init:
    137          { 
   \   000000   74F5         MOV     A,#-0xb
   \   000002   12....       LCALL   ?BANKED_ENTER_XDATA
   \   000005                ; Saved register size: 11
   \   000005                ; Auto size: 0
   \   000005   E9           MOV     A,R1
    138            SampleApp_TaskID = task_id;
   \   000006   90....       MOV     DPTR,#SampleApp_TaskID
   \   000009   F0           MOVX    @DPTR,A
    139            SampleApp_NwkState = DEV_INIT;
   \   00000A   90....       MOV     DPTR,#SampleApp_NwkState
   \   00000D   7401         MOV     A,#0x1
   \   00000F   F0           MOVX    @DPTR,A
    140            SampleApp_TransID = 0;
   \   000010   90....       MOV     DPTR,#SampleApp_TransID
   \   000013   E4           CLR     A
   \   000014   F0           MOVX    @DPTR,A
    141            
    142            //MT_UartInit();                  //串口初始化
    143            //MT_UartRegisterTaskID(task_id); //注册串口任务
    144            MT_UartRegisterTaskID(SampleApp_TaskID);
   \   000015                ; Setup parameters for call to function MT_UartRegisterTaskID
   \   000015   12....       LCALL   ??MT_UartRegisterTaskID?relay
    145            
    146            //外设初始化
    147            InitDigSensor();
   \   000018                ; Setup parameters for call to function InitDigSensor
   \   000018   12....       LCALL   ??InitDigSensor?relay
    148            //Array_init(&Galist,&Dev_BasicInf[0] , MAX_DEV_MANAGE_NUM ,Coor_Dev_manage.dev_num);//初始化设备列表
    149            
    150            // Device hardware initialization can be added here or in main() (Zmain.c).
    151            // If the hardware is application specific - add it here.
    152            // If the hardware is other parts of the device add it in main().
    153          
    154           #if defined ( BUILD_ALL_DEVICES )
    155            // The "Demo" target is setup to have BUILD_ALL_DEVICES and HOLD_AUTO_START
    156            // We are looking at a jumper (defined in SampleAppHw.c) to be jumpered
    157            // together - if they are - we will start up a coordinator. Otherwise,
    158            // the device will start as a router.
    159            if ( readCoordinatorJumper() )
    160              zgDeviceLogicalType = ZG_DEVICETYPE_COORDINATOR;
    161            else
    162              zgDeviceLogicalType = ZG_DEVICETYPE_ROUTER;
    163          #endif // BUILD_ALL_DEVICES
    164          
    165          #if defined ( HOLD_AUTO_START )
    166            // HOLD_AUTO_START is a compile option that will surpress ZDApp
    167            //  from starting the device and wait for the application to
    168            //  start the device.
    169            ZDOInitDevice(0);
    170          #endif
    171          
    172            // Setup for the periodic message's destination address
    173            // Broadcast to everyone
    174            SampleApp_Periodic_DstAddr.addrMode = (afAddrMode_t)AddrBroadcast;
   \   00001B   90....       MOV     DPTR,#SampleApp_Periodic_DstAddr + 8
   \   00001E   740F         MOV     A,#0xf
   \   000020   12....       LCALL   ??Subroutine18_0 & 0xFFFF
    175            SampleApp_Periodic_DstAddr.endPoint = SAMPLEAPP_ENDPOINT;
    176            SampleApp_Periodic_DstAddr.addr.shortAddr = 0xFFFF;
   \                     ??CrossCallReturnLabel_36:
   \   000023   90....       MOV     DPTR,#SampleApp_Periodic_DstAddr
   \   000026   74FF         MOV     A,#-0x1
   \   000028   F0           MOVX    @DPTR,A
   \   000029   A3           INC     DPTR
   \   00002A   F0           MOVX    @DPTR,A
    177          
    178            // Setup for the flash command's destination address - Group 1
    179            SampleApp_Flash_DstAddr.addrMode = (afAddrMode_t)afAddrGroup;
   \   00002B   90....       MOV     DPTR,#SampleApp_Flash_DstAddr + 8
   \   00002E   7401         MOV     A,#0x1
   \   000030   12....       LCALL   ??Subroutine18_0 & 0xFFFF
    180            SampleApp_Flash_DstAddr.endPoint = SAMPLEAPP_ENDPOINT;
    181            SampleApp_Flash_DstAddr.addr.shortAddr = SAMPLEAPP_FLASH_GROUP;
   \                     ??CrossCallReturnLabel_37:
   \   000033   90....       MOV     DPTR,#SampleApp_Flash_DstAddr
   \   000036   7401         MOV     A,#0x1
   \   000038   F0           MOVX    @DPTR,A
   \   000039   A3           INC     DPTR
   \   00003A   E4           CLR     A
   \   00003B   F0           MOVX    @DPTR,A
    182            
    183            SampleApp_P2P_DstAddr.addrMode = (afAddrMode_t)Addr16Bit; //点播 
   \   00003C   12....       LCALL   ?Subroutine5 & 0xFFFF
    184            SampleApp_P2P_DstAddr.endPoint = SAMPLEAPP_ENDPOINT; 
    185            SampleApp_P2P_DstAddr.addr.shortAddr = 0x0000;            //发给协调器
   \                     ??CrossCallReturnLabel_34:
   \   00003F   90....       MOV     DPTR,#SampleApp_P2P_DstAddr
   \   000042   E4           CLR     A
   \   000043   F0           MOVX    @DPTR,A
   \   000044   A3           INC     DPTR
   \   000045   F0           MOVX    @DPTR,A
    186          
    187            // Fill out the endpoint description.
    188            SampleApp_epDesc.endPoint = SAMPLEAPP_ENDPOINT;
   \   000046   90....       MOV     DPTR,#SampleApp_epDesc
   \   000049   7414         MOV     A,#0x14
   \   00004B   F0           MOVX    @DPTR,A
    189            SampleApp_epDesc.task_id = &SampleApp_TaskID;
   \   00004C   A3           INC     DPTR
   \   00004D   74..         MOV     A,#SampleApp_TaskID & 0xff
   \   00004F   F0           MOVX    @DPTR,A
   \   000050   A3           INC     DPTR
   \   000051   74..         MOV     A,#(SampleApp_TaskID >> 8) & 0xff
   \   000053   F0           MOVX    @DPTR,A
    190            SampleApp_epDesc.simpleDesc
    191                      = (SimpleDescriptionFormat_t *)&SampleApp_SimpleDesc;
   \   000054   A3           INC     DPTR
   \   000055   74..         MOV     A,#SampleApp_SimpleDesc & 0xff
   \   000057   F0           MOVX    @DPTR,A
   \   000058   A3           INC     DPTR
   \   000059   74..         MOV     A,#(SampleApp_SimpleDesc >> 8) & 0xff
   \   00005B   F0           MOVX    @DPTR,A
    192            SampleApp_epDesc.latencyReq = noLatencyReqs;
   \   00005C   A3           INC     DPTR
   \   00005D   E4           CLR     A
   \   00005E   F0           MOVX    @DPTR,A
    193          
    194            // Register the endpoint description with the AF
    195            afRegister( &SampleApp_epDesc );
   \   00005F                ; Setup parameters for call to function afRegister
   \   00005F   7A..         MOV     R2,#SampleApp_epDesc & 0xff
   \   000061   7B..         MOV     R3,#(SampleApp_epDesc >> 8) & 0xff
   \   000063   12....       LCALL   ??afRegister?relay
    196          
    197            // Register for all key events - This app will handle all key events
    198            RegisterForKeys( SampleApp_TaskID );
   \   000066                ; Setup parameters for call to function RegisterForKeys
   \   000066   90....       MOV     DPTR,#SampleApp_TaskID
   \   000069   E0           MOVX    A,@DPTR
   \   00006A   F9           MOV     R1,A
   \   00006B   12....       LCALL   ??RegisterForKeys?relay
    199          
    200            // By default, all devices start out in Group 1
    201            SampleApp_Group.ID = 0x0001;
   \   00006E   90....       MOV     DPTR,#SampleApp_Group
   \   000071   7401         MOV     A,#0x1
   \   000073   F0           MOVX    @DPTR,A
   \   000074   A3           INC     DPTR
   \   000075   E4           CLR     A
   \   000076   F0           MOVX    @DPTR,A
    202            osal_memcpy( SampleApp_Group.name, "Group 1", 7 );
   \   000077                ; Setup parameters for call to function osal_memcpy
   \   000077   75....       MOV     ?V0 + 0,#`?<Constant "Group 1">` & 0xff
   \   00007A   75....       MOV     ?V0 + 1,#(`?<Constant "Group 1">` >> 8) & 0xff
   \   00007D   F5..         MOV     ?V0 + 2,A
   \   00007F   78..         MOV     R0,#?V0 + 0
   \   000081   12....       LCALL   ?PUSH_XSTACK_I_THREE
   \   000084   7C07         MOV     R4,#0x7
   \   000086   7D00         MOV     R5,#0x0
   \   000088   7A..         MOV     R2,#(SampleApp_Group + 2) & 0xff
   \   00008A   7B..         MOV     R3,#((SampleApp_Group + 2) >> 8) & 0xff
   \   00008C   12....       LCALL   ??osal_memcpy?relay
   \   00008F   7403         MOV     A,#0x3
   \   000091   12....       LCALL   ?DEALLOC_XSTACK8
    203            aps_AddGroup( SAMPLEAPP_ENDPOINT, &SampleApp_Group );
   \   000094                ; Setup parameters for call to function aps_AddGroup
   \   000094   7A..         MOV     R2,#SampleApp_Group & 0xff
   \   000096   7B..         MOV     R3,#(SampleApp_Group >> 8) & 0xff
   \   000098   7914         MOV     R1,#0x14
   \   00009A   12....       LCALL   ??aps_AddGroup?relay
    204            
    205          #if defined ( LCD_SUPPORTED )
    206            HalLcdWriteString( "SampleApp", HAL_LCD_LINE_1 );
   \   00009D                ; Setup parameters for call to function HalLcdWriteString
   \   00009D   7900         MOV     R1,#0x0
   \   00009F   7A..         MOV     R2,#`?<Constant "SampleApp">` & 0xff
   \   0000A1   7B..         MOV     R3,#(`?<Constant "SampleApp">` >> 8) & 0xff
   \   0000A3   12....       LCALL   ??HalLcdWriteString?relay
    207          #endif
    208          }
   \   0000A6                REQUIRE ?Subroutine0
   \   0000A6                ; // Fall through to label ?Subroutine0

   \                                 In  segment BANKED_CODE, align 1, keep-with-next
   \                     ?Subroutine0:
   \   000000   7F03         MOV     R7,#0x3
   \   000002   02....       LJMP    ?BANKED_LEAVE_XDATA

   \                                 In  segment BANKED_CODE, align 1, keep-with-next
   \                     ?Subroutine5:
   \   000000   90....       MOV     DPTR,#SampleApp_P2P_DstAddr + 8
   \   000003   7402         MOV     A,#0x2
   \   000005                REQUIRE ??Subroutine18_0
   \   000005                ; // Fall through to label ??Subroutine18_0

   \                                 In  segment BANKED_CODE, align 1, keep-with-next
   \                     ??Subroutine18_0:
   \   000000   F0           MOVX    @DPTR,A
   \   000001   A3           INC     DPTR
   \   000002   7414         MOV     A,#0x14
   \   000004   F0           MOVX    @DPTR,A
   \   000005   22           RET
    209          
    210          /*********************************************************************
    211           * @fn      SampleApp_ProcessEvent
    212           *
    213           * @brief   Generic Application Task event processor.  This function
    214           *          is called to process all events for the task.  Events
    215           *          include timers, messages and any other user defined events.
    216           *
    217           * @param   task_id  - The OSAL assigned task ID.
    218           * @param   events - events to process.  This is a bit map and can
    219           *                   contain more than one event.
    220           *
    221           * @return  none
    222           */

   \                                 In  segment BANKED_CODE, align 1, keep-with-next
    223          uint16 SampleApp_ProcessEvent( uint8 task_id, uint16 events )
   \                     SampleApp_ProcessEvent:
    224          {
   \   000000   74F4         MOV     A,#-0xc
   \   000002   12....       LCALL   ?BANKED_ENTER_XDATA
   \   000005                ; Saved register size: 12
   \   000005                ; Auto size: 4
   \   000005   74FC         MOV     A,#-0x4
   \   000007   12....       LCALL   ?ALLOC_XSTACK8
   \   00000A   EA           MOV     A,R2
   \   00000B   FE           MOV     R6,A
   \   00000C   EB           MOV     A,R3
   \   00000D   FF           MOV     R7,A
    225            afIncomingMSGPacket_t *MSGpkt;
    226            
    227            (void)task_id;  // Intentionally unreferenced parameter
    228            
    229            uint8 sdata[4] = {0};
   \   00000E   85..82       MOV     DPL,?XSP + 0
   \   000011   85..83       MOV     DPH,?XSP + 1
   \   000014   AC82         MOV     R4,DPL
   \   000016   AD83         MOV     R5,DPH
   \   000018   7583..       MOV     DPH,#(`?<Constant {0}>` >> 8) & 0xff
   \   00001B   7582..       MOV     DPL,#`?<Constant {0}>` & 0xff
   \   00001E   7404         MOV     A,#0x4
   \   000020   12....       LCALL   ?MOVE_LONG8_XDATA_XDATA
    230            uint16 gasvalue = 0;
    231            
    232            if ( events & SYS_EVENT_MSG )
   \   000023   EF           MOV     A,R7
   \   000024   5480         ANL     A,#0x80
   \   000026   6078         JZ      ??SampleApp_ProcessEvent_0
    233            {
    234              MSGpkt = (afIncomingMSGPacket_t *)osal_msg_receive( SampleApp_TaskID );
   \   000028                ; Setup parameters for call to function osal_msg_receive
   \   000028   801D         SJMP    ??SampleApp_ProcessEvent_1
    235              while ( MSGpkt )
    236              {
    237                switch ( MSGpkt->hdr.event )
    238                {
    239                  // Received when a key is pressed
    240                  case KEY_CHANGE:
    241                    SampleApp_HandleKeys( ((keyChange_t *)MSGpkt)->state, ((keyChange_t *)MSGpkt)->keys );
    242                    break;
    243          
    244                  // Received when a messages is received (OTA) for this endpoint
    245                  case AF_INCOMING_MSG_CMD:
    246                    SampleApp_MessageMSGCB( MSGpkt );
    247                    break;
    248          	case CMD_SERIAL_MSG_0: 
    249                    //HalUARTWrite(1, ((mtOSALSerialData_t *)MSGpkt)->msg, 18); 
    250                    SampleApp_Send_CMD_Message(MSGpkt);
    251                    break;
    252                  case CMD_SERIAL_MSG_1:
    253                    //HalUARTWrite(1, sdata, 4); 
    254                    //Sensor_ProcessMTCB( (mtOSALSerialData_t*)MSGpkt );
    255                    break;
    256                  // Received whenever the device changes state in the network
    257                  case ZDO_STATE_CHANGE:
    258                    SampleApp_NwkState = (devStates_t)(MSGpkt->hdr.status);
   \                     ??SampleApp_ProcessEvent_2:
   \   00002A   A3           INC     DPTR
   \   00002B   E0           MOVX    A,@DPTR
   \   00002C   90....       MOV     DPTR,#SampleApp_NwkState
   \   00002F   F0           MOVX    @DPTR,A
    259                    if ( //(SampleApp_NwkState == DEV_ZB_COORD) ||
    260                           (SampleApp_NwkState == DEV_ROUTER)
    261                        || (SampleApp_NwkState == DEV_END_DEVICE) )
   \   000030   6407         XRL     A,#0x7
   \   000032   6005         JZ      ??SampleApp_ProcessEvent_3
   \   000034   E0           MOVX    A,@DPTR
   \   000035   6406         XRL     A,#0x6
   \   000037   7007         JNZ     ??CrossCallReturnLabel_27
    262                    {
    263                      // Start sending the periodic message in a regular interval.
    264                      osal_start_timerEx( SampleApp_TaskID,
    265                                        SAMPLEAPP_SEND_PERIODIC_MSG_EVT,
    266                                        SAMPLEAPP_SEND_PERIODIC_MSG_TIMEOUT );
   \                     ??SampleApp_ProcessEvent_3:
   \   000039                ; Setup parameters for call to function osal_start_timerEx
   \   000039   7CD0         MOV     R4,#-0x30
   \   00003B   7D07         MOV     R5,#0x7
   \   00003D   12....       LCALL   ?Subroutine11 & 0xFFFF
    267                    }
    268                    else
    269                    {
    270                      // Device is no longer in the network
    271                    }
    272                    break;
    273          
    274                  default:
    275                    break;
    276                }
    277          
    278                // Release the memory
    279                osal_msg_deallocate( (uint8 *)MSGpkt );
   \                     ??CrossCallReturnLabel_27:
   \   000040                ; Setup parameters for call to function osal_msg_deallocate
   \   000040   AA..         MOV     R2,?V0 + 0
   \   000042   AB..         MOV     R3,?V0 + 1
   \   000044   12....       LCALL   ??osal_msg_deallocate?relay
    280          
    281                // Next - if one is available
    282                MSGpkt = (afIncomingMSGPacket_t *)osal_msg_receive( SampleApp_TaskID );
   \   000047                ; Setup parameters for call to function osal_msg_receive
   \                     ??SampleApp_ProcessEvent_1:
   \   000047   90....       MOV     DPTR,#SampleApp_TaskID
   \   00004A   E0           MOVX    A,@DPTR
   \   00004B   F9           MOV     R1,A
   \   00004C   12....       LCALL   ??osal_msg_receive?relay
   \   00004F   8A..         MOV     ?V0 + 0,R2
   \   000051   8B..         MOV     ?V0 + 1,R3
   \   000053   E5..         MOV     A,?V0 + 0
   \   000055   45..         ORL     A,?V0 + 1
   \   000057   603E         JZ      ??SampleApp_ProcessEvent_4
   \   000059   85..82       MOV     DPL,?V0 + 0
   \   00005C   85..83       MOV     DPH,?V0 + 1
   \   00005F   E0           MOVX    A,@DPTR
   \   000060   14           DEC     A
   \   000061   602B         JZ      ??SampleApp_ProcessEvent_5
   \   000063   24E7         ADD     A,#-0x19
   \   000065   601E         JZ      ??SampleApp_ProcessEvent_6
   \   000067   245A         ADD     A,#0x5a
   \   000069   6006         JZ      ??SampleApp_ProcessEvent_7
   \   00006B   24EF         ADD     A,#-0x11
   \   00006D   60BB         JZ      ??SampleApp_ProcessEvent_2
   \   00006F   80CF         SJMP    ??CrossCallReturnLabel_27
   \                     ??SampleApp_ProcessEvent_7:
   \   000071                ; Setup parameters for call to function SampleApp_HandleKeys
   \   000071   A3           INC     DPTR
   \   000072   A3           INC     DPTR
   \   000073   A3           INC     DPTR
   \   000074   E0           MOVX    A,@DPTR
   \   000075   FA           MOV     R2,A
   \   000076   85..82       MOV     DPL,?V0 + 0
   \   000079   85..83       MOV     DPH,?V0 + 1
   \   00007C   A3           INC     DPTR
   \   00007D   A3           INC     DPTR
   \   00007E   E0           MOVX    A,@DPTR
   \   00007F   F9           MOV     R1,A
   \   000080   12....       LCALL   ??SampleApp_HandleKeys?relay
   \   000083   80BB         SJMP    ??CrossCallReturnLabel_27
   \                     ??SampleApp_ProcessEvent_6:
   \   000085                ; Setup parameters for call to function SampleApp_MessageMSGCB
   \   000085   AA..         MOV     R2,?V0 + 0
   \   000087   AB..         MOV     R3,?V0 + 1
   \   000089   12....       LCALL   ??SampleApp_MessageMSGCB?relay
   \   00008C   80B2         SJMP    ??CrossCallReturnLabel_27
   \                     ??SampleApp_ProcessEvent_5:
   \   00008E                ; Setup parameters for call to function SampleApp_Send_CMD_Message
   \   00008E   AA..         MOV     R2,?V0 + 0
   \   000090   AB..         MOV     R3,?V0 + 1
   \   000092   12....       LCALL   ??SampleApp_Send_CMD_Message?relay
   \   000095   80A9         SJMP    ??CrossCallReturnLabel_27
    283              }
    284          
    285              // return unprocessed events
    286              return (events ^ SYS_EVENT_MSG);
   \                     ??SampleApp_ProcessEvent_4:
   \   000097   EE           MOV     A,R6
   \   000098   FA           MOV     R2,A
   \   000099   EF           MOV     A,R7
   \   00009A   6480         XRL     A,#0x80
   \                     ??SampleApp_ProcessEvent_8:
   \   00009C   FB           MOV     R3,A
   \   00009D   02....       LJMP    ??SampleApp_ProcessEvent_9 & 0xFFFF
    287            }
    288          
    289            // Send a message out - This event is generated by a timer
    290            //  (setup in SampleApp_Init()).
    291            if ( events & SAMPLEAPP_SEND_PERIODIC_MSG_EVT )
   \                     ??SampleApp_ProcessEvent_0:
   \   0000A0   EE           MOV     A,R6
   \   0000A1   A2E0         MOV     C,0xE0 /* A   */.0
   \   0000A3   4003         JC      $+5
   \   0000A5   02....       LJMP    ??SampleApp_ProcessEvent_10 & 0xFFFF
    292            {
    293              // Send the periodic message
    294              //SampleApp_SendPeriodicMessage();
    295          
    296          #ifdef DEVICE_MQ2 //烟雾传感器
    297            gasvalue = ReadGasData();
   \   0000A8                ; Setup parameters for call to function ReadGasData
   \   0000A8   12....       LCALL   ??ReadGasData?relay
    298            sdata[0] = 0;
   \   0000AB   85..82       MOV     DPL,?XSP + 0
   \   0000AE   85..83       MOV     DPH,?XSP + 1
   \   0000B1   E4           CLR     A
   \   0000B2   F0           MOVX    @DPTR,A
    299            sdata[1] = 0;
   \   0000B3   04           INC     A
   \   0000B4   12....       LCALL   ?XSTACK_DISP0_8
   \   0000B7   E4           CLR     A
   \   0000B8   F0           MOVX    @DPTR,A
    300            sdata[2] = gasvalue>>8;//高位
   \   0000B9   7402         MOV     A,#0x2
   \   0000BB   12....       LCALL   ?XSTACK_DISP0_8
   \   0000BE   EB           MOV     A,R3
   \   0000BF   F0           MOVX    @DPTR,A
    301            sdata[3] = gasvalue;//低位
   \   0000C0   7403         MOV     A,#0x3
   \   0000C2   12....       LCALL   ?XSTACK_DISP0_8
   \   0000C5   EA           MOV     A,R2
   \   0000C6   12....       LCALL   ?Subroutine2 & 0xFFFF
    302            SampleApp_Send_P2P_Message(DEVICE_MQ2, 0, 0, sdata);
   \                     ??CrossCallReturnLabel_0:
   \   0000C9   790C         MOV     R1,#0xc
   \   0000CB   12....       LCALL   ??SampleApp_Send_P2P_Message?relay
    303          #endif
    304          #ifdef DEVICE_HT11 //温湿度
    305            GetHt11Value();
   \   0000CE                ; Setup parameters for call to function GetHt11Value
   \   0000CE   12....       LCALL   ??GetHt11Value?relay
    306            sdata[0] = temp>>8;
   \   0000D1   85..82       MOV     DPL,?XSP + 0
   \   0000D4   85..83       MOV     DPH,?XSP + 1
   \   0000D7   E4           CLR     A
   \   0000D8   F0           MOVX    @DPTR,A
    307            sdata[1] = temp;
   \   0000D9   90....       MOV     DPTR,#temp
   \   0000DC   E0           MOVX    A,@DPTR
   \   0000DD   C0E0         PUSH    A
   \   0000DF   7401         MOV     A,#0x1
   \   0000E1   12....       LCALL   ?XSTACK_DISP0_8
   \   0000E4   D0E0         POP     A
   \   0000E6   F0           MOVX    @DPTR,A
    308            sdata[2] = humi>>8;
   \   0000E7   7402         MOV     A,#0x2
   \   0000E9   12....       LCALL   ?XSTACK_DISP0_8
   \   0000EC   E4           CLR     A
   \   0000ED   F0           MOVX    @DPTR,A
    309            sdata[3] = humi;
   \   0000EE   90....       MOV     DPTR,#humi
   \   0000F1   E0           MOVX    A,@DPTR
   \   0000F2   C0E0         PUSH    A
   \   0000F4   7403         MOV     A,#0x3
   \   0000F6   12....       LCALL   ?XSTACK_DISP0_8
   \   0000F9   D0E0         POP     A
   \   0000FB   12....       LCALL   ?Subroutine2 & 0xFFFF
    310            SampleApp_Send_P2P_Message(DEVICE_HT11, 0, 0, sdata);
   \                     ??CrossCallReturnLabel_1:
   \   0000FE   7904         MOV     R1,#0x4
   \   000100   12....       LCALL   ?Subroutine7 & 0xFFFF
    311          #endif
    312          #ifdef DEVICE_MAN //人体检测
    313            sdata[0] = 0;
    314            sdata[1] = 0;
   \                     ??CrossCallReturnLabel_12:
   \   000103   12....       LCALL   ?XSTACK_DISP0_8
   \   000106   E4           CLR     A
   \   000107   F0           MOVX    @DPTR,A
    315            sdata[2] = 0;
   \   000108   7402         MOV     A,#0x2
   \   00010A   12....       LCALL   ?XSTACK_DISP0_8
   \   00010D   E4           CLR     A
   \   00010E   F0           MOVX    @DPTR,A
    316            sdata[3] = GetLightData();
   \   00010F                ; Setup parameters for call to function GetLightData
   \   00010F   12....       LCALL   ??GetLightData?relay
   \   000112   7403         MOV     A,#0x3
   \   000114   12....       LCALL   ?XSTACK_DISP0_8
   \   000117   E9           MOV     A,R1
   \   000118   12....       LCALL   ?Subroutine2 & 0xFFFF
    317            SampleApp_Send_P2P_Message(DEVICE_MAN, 0, 0, sdata);
   \                     ??CrossCallReturnLabel_2:
   \   00011B   7905         MOV     R1,#0x5
   \   00011D   12....       LCALL   ?Subroutine7 & 0xFFFF
    318          #endif 
    319          #ifdef DEVICE_RELAY_PUMP //水泵
    320            sdata[0] = 0;
    321            sdata[1] = 0;
   \                     ??CrossCallReturnLabel_13:
   \   000120   12....       LCALL   ?XSTACK_DISP0_8
   \   000123   E4           CLR     A
   \   000124   F0           MOVX    @DPTR,A
    322            sdata[2] = 0;
   \   000125   7402         MOV     A,#0x2
   \   000127   12....       LCALL   ?XSTACK_DISP0_8
   \   00012A   E4           CLR     A
   \   00012B   F0           MOVX    @DPTR,A
    323            sdata[3] = relay_one_value;
   \   00012C   90....       MOV     DPTR,#relay_one_value
   \   00012F   E0           MOVX    A,@DPTR
   \   000130   C0E0         PUSH    A
   \   000132   7403         MOV     A,#0x3
   \   000134   12....       LCALL   ?XSTACK_DISP0_8
   \   000137   D0E0         POP     A
   \   000139   12....       LCALL   ?Subroutine2 & 0xFFFF
    324            SampleApp_Send_P2P_Message(DEVICE_RELAY_PUMP, 0, 0, sdata);
   \                     ??CrossCallReturnLabel_3:
   \   00013C   7913         MOV     R1,#0x13
   \   00013E   12....       LCALL   ?Subroutine7 & 0xFFFF
    325          #endif    
    326          #ifdef DEVICE_RELAY_LAMP //灯光
    327            sdata[0] = 0;
    328            sdata[1] = 0;
   \                     ??CrossCallReturnLabel_14:
   \   000141   12....       LCALL   ?XSTACK_DISP0_8
   \   000144   E4           CLR     A
   \   000145   F0           MOVX    @DPTR,A
    329            sdata[2] = 0;
   \   000146   7402         MOV     A,#0x2
   \   000148   12....       LCALL   ?XSTACK_DISP0_8
   \   00014B   E4           CLR     A
   \   00014C   F0           MOVX    @DPTR,A
    330            sdata[3] = relay_two_value;
   \   00014D   90....       MOV     DPTR,#relay_two_value
   \   000150   E0           MOVX    A,@DPTR
   \   000151   C0E0         PUSH    A
   \   000153   7403         MOV     A,#0x3
   \   000155   12....       LCALL   ?XSTACK_DISP0_8
   \   000158   D0E0         POP     A
   \   00015A   12....       LCALL   ?Subroutine2 & 0xFFFF
    331            SampleApp_Send_P2P_Message(DEVICE_RELAY_LAMP, 0, 0, sdata);
   \                     ??CrossCallReturnLabel_4:
   \   00015D   7911         MOV     R1,#0x11
   \   00015F   12....       LCALL   ?Subroutine7 & 0xFFFF
    332          #endif    
    333          #ifdef DEVICE_RELAY_COLD //制冷
    334            sdata[0] = 0;
    335            sdata[1] = 0;
   \                     ??CrossCallReturnLabel_15:
   \   000162   12....       LCALL   ?XSTACK_DISP0_8
   \   000165   E4           CLR     A
   \   000166   F0           MOVX    @DPTR,A
    336            sdata[2] = 0;
   \   000167   7402         MOV     A,#0x2
   \   000169   12....       LCALL   ?XSTACK_DISP0_8
   \   00016C   E4           CLR     A
   \   00016D   F0           MOVX    @DPTR,A
    337            sdata[3] = relay_two_value;
   \   00016E   90....       MOV     DPTR,#relay_two_value
   \   000171   E0           MOVX    A,@DPTR
   \   000172   C0E0         PUSH    A
   \   000174   7403         MOV     A,#0x3
   \   000176   12....       LCALL   ?XSTACK_DISP0_8
   \   000179   D0E0         POP     A
   \   00017B   12....       LCALL   ?Subroutine2 & 0xFFFF
    338            SampleApp_Send_P2P_Message(DEVICE_RELAY_COLD, 0, 0, sdata);
   \                     ??CrossCallReturnLabel_5:
   \   00017E   7916         MOV     R1,#0x16
   \   000180   12....       LCALL   ??SampleApp_Send_P2P_Message?relay
    339          #endif  
    340              // Setup to send message again in normal period (+ a little jitter)
    341              osal_start_timerEx( SampleApp_TaskID, SAMPLEAPP_SEND_PERIODIC_MSG_EVT,
    342                  (SAMPLEAPP_SEND_PERIODIC_MSG_TIMEOUT + (osal_rand() & 0x00FF)) );
   \   000183                ; Setup parameters for call to function osal_rand
   \   000183   12....       LCALL   ??osal_rand?relay
   \   000186                ; Setup parameters for call to function osal_start_timerEx
   \   000186   EA           MOV     A,R2
   \   000187   24D0         ADD     A,#-0x30
   \   000189   FC           MOV     R4,A
   \   00018A   E4           CLR     A
   \   00018B   3407         ADDC    A,#0x7
   \   00018D   FD           MOV     R5,A
   \   00018E   12....       LCALL   ?Subroutine11 & 0xFFFF
    343          
    344              // return unprocessed events
    345              return (events ^ SAMPLEAPP_SEND_PERIODIC_MSG_EVT);
   \                     ??CrossCallReturnLabel_28:
   \   000191   EE           MOV     A,R6
   \   000192   6401         XRL     A,#0x1
   \                     ??SampleApp_ProcessEvent_11:
   \   000194   FA           MOV     R2,A
   \   000195   EF           MOV     A,R7
   \   000196   02....       LJMP    ??SampleApp_ProcessEvent_8 & 0xFFFF
    346            }
    347            
    348            if(events & SAMPLEAPP_TEST_EVT)
   \                     ??SampleApp_ProcessEvent_10:
   \   000199   5402         ANL     A,#0x2
   \   00019B   6015         JZ      ??SampleApp_ProcessEvent_12
    349            {
    350              //SampleApp_Send_CMD_Message(test_buffer);
    351              osal_start_timerEx( SampleApp_TaskID, SAMPLEAPP_TEST_EVT,
    352              (3000 + (osal_rand() & 0x00FF)) );
   \   00019D                ; Setup parameters for call to function osal_rand
   \   00019D   12....       LCALL   ??osal_rand?relay
   \   0001A0                ; Setup parameters for call to function osal_start_timerEx
   \   0001A0   EA           MOV     A,R2
   \   0001A1   24B8         ADD     A,#-0x48
   \   0001A3   FC           MOV     R4,A
   \   0001A4   E4           CLR     A
   \   0001A5   340B         ADDC    A,#0xb
   \   0001A7   FD           MOV     R5,A
   \   0001A8   7A02         MOV     R2,#0x2
   \   0001AA   12....       LCALL   ??Subroutine15_0 & 0xFFFF
    353          
    354              // return unprocessed events
    355              return (events ^ SAMPLEAPP_TEST_EVT);
   \                     ??CrossCallReturnLabel_29:
   \   0001AD   EE           MOV     A,R6
   \   0001AE   6402         XRL     A,#0x2
   \   0001B0   80E2         SJMP    ??SampleApp_ProcessEvent_11
    356            }
    357          
    358            // Discard unknown events
    359            return 0;
   \                     ??SampleApp_ProcessEvent_12:
   \   0001B2   7A00         MOV     R2,#0x0
   \   0001B4   7B00         MOV     R3,#0x0
   \                     ??SampleApp_ProcessEvent_9:
   \   0001B6   7404         MOV     A,#0x4
   \   0001B8   12....       LCALL   ?DEALLOC_XSTACK8
   \   0001BB   7F04         MOV     R7,#0x4
   \   0001BD   02....       LJMP    ?BANKED_LEAVE_XDATA
    360          }

   \                                 In  segment BANKED_CODE, align 1, keep-with-next
   \                     ?Subroutine11:
   \   000000   7A01         MOV     R2,#0x1
   \   000002                REQUIRE ??Subroutine15_0
   \   000002                ; // Fall through to label ??Subroutine15_0

   \                                 In  segment BANKED_CODE, align 1, keep-with-next
   \                     ??Subroutine15_0:
   \   000000   7B00         MOV     R3,#0x0
   \   000002   90....       MOV     DPTR,#SampleApp_TaskID
   \   000005   E0           MOVX    A,@DPTR
   \   000006   F9           MOV     R1,A
   \   000007   12....       LCALL   ??osal_start_timerEx?relay
   \   00000A   22           RET

   \                                 In  segment BANKED_CODE, align 1, keep-with-next
   \                     ?Subroutine7:
   \   000000   12....       LCALL   ??SampleApp_Send_P2P_Message?relay
   \   000003   85..82       MOV     DPL,?XSP + 0
   \   000006   85..83       MOV     DPH,?XSP + 1
   \   000009   E4           CLR     A
   \   00000A   F0           MOVX    @DPTR,A
   \   00000B   04           INC     A
   \   00000C   22           RET

   \                                 In  segment BANKED_CODE, align 1, keep-with-next
   \                     ?Subroutine2:
   \   000000   F0           MOVX    @DPTR,A
   \   000001                ; Setup parameters for call to function SampleApp_Send_P2P_Message
   \   000001                ; Setup parameters for call to function SampleApp_Send_P2P_Message
   \   000001                ; Setup parameters for call to function SampleApp_Send_P2P_Message
   \   000001                ; Setup parameters for call to function SampleApp_Send_P2P_Message
   \   000001                ; Setup parameters for call to function SampleApp_Send_P2P_Message
   \   000001                ; Setup parameters for call to function SampleApp_Send_P2P_Message
   \   000001   85..82       MOV     DPL,?XSP + 0
   \   000004   85..83       MOV     DPH,?XSP + 1
   \   000007   AC82         MOV     R4,DPL
   \   000009   AD83         MOV     R5,DPH
   \   00000B   7B00         MOV     R3,#0x0
   \   00000D   7A00         MOV     R2,#0x0
   \   00000F   22           RET
    361          
    362          /*********************************************************************
    363           * Event Generation Functions
    364           */
    365          /*********************************************************************
    366           * @fn      SampleApp_HandleKeys
    367           *
    368           * @brief   Handles all key events for this device.
    369           *
    370           * @param   shift - true if in shift/alt.
    371           * @param   keys - bit field for key events. Valid entries:
    372           *                 HAL_KEY_SW_2
    373           *                 HAL_KEY_SW_1
    374           *
    375           * @return  none
    376           */

   \                                 In  segment BANKED_CODE, align 1, keep-with-next
    377          void SampleApp_HandleKeys( uint8 shift, uint8 keys )
   \                     SampleApp_HandleKeys:
    378          {
   \   000000   74F6         MOV     A,#-0xa
   \   000002   12....       LCALL   ?BANKED_ENTER_XDATA
   \   000005                ; Saved register size: 10
   \   000005                ; Auto size: 0
   \   000005   EA           MOV     A,R2
   \   000006   FE           MOV     R6,A
    379            (void)shift;  // Intentionally unreferenced parameter
    380            
    381            if ( keys & HAL_KEY_SW_1 )
   \   000007   A2E0         MOV     C,0xE0 /* A   */.0
   \   000009   5007         JNC     ??SampleApp_HandleKeys_0
    382            {
    383              /* This key sends the Flash Command is sent to Group 1.
    384               * This device will not receive the Flash Command from this
    385               * device (even if it belongs to group 1).
    386               */
    387              SampleApp_SendFlashMessage( SAMPLEAPP_FLASH_DURATION );
   \   00000B                ; Setup parameters for call to function SampleApp_SendFlashMessage
   \   00000B   7AE8         MOV     R2,#-0x18
   \   00000D   7B03         MOV     R3,#0x3
   \   00000F   12....       LCALL   ??SampleApp_SendFlashMessage?relay
    388            }
    389          
    390            if ( keys & HAL_KEY_SW_2 )
   \                     ??SampleApp_HandleKeys_0:
   \   000012   EE           MOV     A,R6
   \   000013   A2E1         MOV     C,0xE0 /* A   */.1
   \   000015   5024         JNC     ??SampleApp_HandleKeys_1
    391            {
    392              /* The Flashr Command is sent to Group 1.
    393               * This key toggles this device in and out of group 1.
    394               * If this device doesn't belong to group 1, this application
    395               * will not receive the Flash command sent to group 1.
    396               */
    397              aps_Group_t *grp;
    398              grp = aps_FindGroup( SAMPLEAPP_ENDPOINT, SAMPLEAPP_FLASH_GROUP );
    399              if ( grp )
   \   000017                ; Setup parameters for call to function aps_FindGroup
   \   000017   7A01         MOV     R2,#0x1
   \   000019   7B00         MOV     R3,#0x0
   \   00001B   7914         MOV     R1,#0x14
   \   00001D   12....       LCALL   ??aps_FindGroup?relay
   \   000020   8B..         MOV     ?V0 + 1,R3
   \   000022   EA           MOV     A,R2
   \   000023   45..         ORL     A,?V0 + 1
   \   000025   600B         JZ      ??SampleApp_HandleKeys_2
    400              {
    401                // Remove from the group
    402                aps_RemoveGroup( SAMPLEAPP_ENDPOINT, SAMPLEAPP_FLASH_GROUP );
   \   000027                ; Setup parameters for call to function aps_RemoveGroup
   \   000027   7A01         MOV     R2,#0x1
   \   000029   7B00         MOV     R3,#0x0
   \   00002B   7914         MOV     R1,#0x14
   \   00002D   12....       LCALL   ??aps_RemoveGroup?relay
   \   000030   8009         SJMP    ??SampleApp_HandleKeys_1
    403              }
    404              else
    405              {
    406                // Add to the flash group
    407                aps_AddGroup( SAMPLEAPP_ENDPOINT, &SampleApp_Group );
   \                     ??SampleApp_HandleKeys_2:
   \   000032                ; Setup parameters for call to function aps_AddGroup
   \   000032   7A..         MOV     R2,#SampleApp_Group & 0xff
   \   000034   7B..         MOV     R3,#(SampleApp_Group >> 8) & 0xff
   \   000036   7914         MOV     R1,#0x14
   \   000038   12....       LCALL   ??aps_AddGroup?relay
    408              }
    409            }
    410          }
   \                     ??SampleApp_HandleKeys_1:
   \   00003B   80..         SJMP    ??Subroutine16_0

   \                                 In  segment BANKED_CODE, align 1, keep-with-next
   \                     ??Subroutine16_0:
   \   000000   7F02         MOV     R7,#0x2
   \   000002   02....       LJMP    ?BANKED_LEAVE_XDATA
    411          
    412          /*********************************************************************
    413           * LOCAL FUNCTIONS
    414           */
    415          
    416          /*********************************************************************
    417           * @fn      SampleApp_MessageMSGCB
    418           *
    419           * @brief   Data message processor callback.  This function processes
    420           *          any incoming data - probably from other devices.  So, based
    421           *          on cluster ID, perform the intended action.
    422           *
    423           * @param   none
    424           *
    425           * @return  none
    426           */

   \                                 In  segment BANKED_CODE, align 1, keep-with-next
    427          void SampleApp_MessageMSGCB( afIncomingMSGPacket_t *pkt )
   \                     SampleApp_MessageMSGCB:
    428          {
   \   000000   74F6         MOV     A,#-0xa
   \   000002   12....       LCALL   ?BANKED_ENTER_XDATA
   \   000005                ; Saved register size: 10
   \   000005                ; Auto size: 0
    429            uint16 flashTime;
    430          
    431            switch ( pkt->clusterId )
   \   000005   8A82         MOV     DPL,R2
   \   000007   8B83         MOV     DPH,R3
   \   000009   A3           INC     DPTR
   \   00000A   A3           INC     DPTR
   \   00000B   A3           INC     DPTR
   \   00000C   A3           INC     DPTR
   \   00000D   E0           MOVX    A,@DPTR
   \   00000E   F5..         MOV     ?V0 + 0,A
   \   000010   A3           INC     DPTR
   \   000011   E0           MOVX    A,@DPTR
   \   000012   F5..         MOV     ?V0 + 1,A
   \   000014   78..         MOV     R0,#?V0 + 0
   \   000016   12....       LCALL   ?US_SWITCH_DENSE
   \                     `?<Jumptable for SampleApp_MessageMSGCB>_0`:
   \   000019   0200         DW        2
   \   00001B   02           DB        2
   \   00001C   ....         DW        ??SampleApp_MessageMSGCB_0
   \   00001E   ....         DW        ??SampleApp_MessageMSGCB_1
   \   000020   ....         DW        ??SampleApp_MessageMSGCB_2
   \   000022   ....         DW        ??SampleApp_MessageMSGCB_3
    432            {
    433              case SAMPLEAPP_P2P_CLUSTERID: //传感器数据上报
    434                SampleApp_NwkP2PMsgProcessing(pkt);
   \                     ??SampleApp_MessageMSGCB_2:
   \   000024                ; Setup parameters for call to function SampleApp_NwkP2PMsgProcessing
   \   000024   12....       LCALL   ??SampleApp_NwkP2PMsgProcessing?relay
    435                break;    
   \   000027   8030         SJMP    ??SampleApp_MessageMSGCB_0
    436              case  SAMPLEAPP_PERIODIC_CLUSTERID: 
    437                break;    
    438              case  SAMPLEAPP_CMD_CLUSTERID: //协调器命令下发
    439                SampleApp_NwkCMDMsgProcessing(pkt);
   \                     ??SampleApp_MessageMSGCB_3:
   \   000029                ; Setup parameters for call to function SampleApp_NwkCMDMsgProcessing
   \   000029   12....       LCALL   ??SampleApp_NwkCMDMsgProcessing?relay
    440                break;
   \   00002C   802B         SJMP    ??SampleApp_MessageMSGCB_0
    441              case SAMPLEAPP_FLASH_CLUSTERID:
    442                flashTime = BUILD_UINT16(pkt->cmd.Data[1], pkt->cmd.Data[2] );
    443                HalLedBlink( HAL_LED_4, 4, 50, (flashTime / 4) );
   \                     ??SampleApp_MessageMSGCB_1:
   \   00002E   12....       LCALL   ?Subroutine8 & 0xFFFF
   \                     ??CrossCallReturnLabel_17:
   \   000031   A3           INC     DPTR
   \   000032   E0           MOVX    A,@DPTR
   \   000033   FA           MOV     R2,A
   \   000034   8882         MOV     DPL,R0
   \   000036   8983         MOV     DPH,R1
   \   000038   A3           INC     DPTR
   \   000039   A3           INC     DPTR
   \   00003A   E0           MOVX    A,@DPTR
   \   00003B   F9           MOV     R1,A
   \   00003C   EA           MOV     A,R2
   \   00003D   2400         ADD     A,#0x0
   \   00003F   F5..         MOV     ?V0 + 0,A
   \   000041   E4           CLR     A
   \   000042   39           ADDC    A,R1
   \   000043   F5..         MOV     ?V0 + 1,A
   \   000045   7402         MOV     A,#0x2
   \   000047   78..         MOV     R0,#?V0 + 0
   \   000049   12....       LCALL   ?US_SHR
   \   00004C   AC..         MOV     R4,?V0 + 0
   \   00004E   AD..         MOV     R5,?V0 + 1
   \   000050   7B32         MOV     R3,#0x32
   \   000052   7A04         MOV     R2,#0x4
   \   000054   7908         MOV     R1,#0x8
   \   000056   12....       LCALL   ??HalLedBlink?relay
    444                break;
    445            }
    446          }
   \                     ??SampleApp_MessageMSGCB_0:
   \   000059   80..         SJMP    ??Subroutine16_0

   \                                 In  segment BANKED_CODE, align 1, keep-with-next
   \                     ?Subroutine8:
   \   000000   EA           MOV     A,R2
   \   000001   2422         ADD     A,#0x22
   \   000003   F582         MOV     DPL,A
   \   000005   EB           MOV     A,R3
   \   000006   3400         ADDC    A,#0x0
   \   000008   F583         MOV     DPH,A
   \   00000A   E0           MOVX    A,@DPTR
   \   00000B   F8           MOV     R0,A
   \   00000C   A3           INC     DPTR
   \   00000D   E0           MOVX    A,@DPTR
   \   00000E   F9           MOV     R1,A
   \   00000F                ; Setup parameters for call to function HalLedBlink
   \   00000F   8882         MOV     DPL,R0
   \   000011   8983         MOV     DPH,R1
   \   000013   22           RET
    447          
    448          /*********************************************************************
    449           * @fn      SampleApp_SendPeriodicMessage
    450           *
    451           * @brief   Send the periodic message.
    452           *
    453           * @param   none
    454           *
    455           * @return  none
    456           */

   \                                 In  segment BANKED_CODE, align 1, keep-with-next
   \                     ?Subroutine1:
   \   000000   12....       LCALL   ?DEALLOC_XSTACK8
   \   000003                REQUIRE ??Subroutine16_0
   \   000003                ; // Fall through to label ??Subroutine16_0

   \                                 In  segment BANKED_CODE, align 1, keep-with-next
    457          void SampleApp_SendPeriodicMessage( void )
   \                     SampleApp_SendPeriodicMessage:
    458          {
   \   000000   74F6         MOV     A,#-0xa
   \   000002   12....       LCALL   ?BANKED_ENTER_XDATA
   \   000005                ; Saved register size: 10
   \   000005                ; Auto size: 0
    459            if ( AF_DataRequest( &SampleApp_Periodic_DstAddr, &SampleApp_epDesc,
    460                                 SAMPLEAPP_PERIODIC_CLUSTERID,
    461                                 1,
    462                                 (uint8*)&SampleAppPeriodicCounter,
    463                                 &SampleApp_TransID,
    464                                 AF_DISCV_ROUTE,
    465                                 AF_DEFAULT_RADIUS ) == afStatus_SUCCESS )
   \   000005                ; Setup parameters for call to function AF_DataRequest
   \   000005   75..1E       MOV     ?V0 + 0,#0x1e
   \   000008   78..         MOV     R0,#?V0 + 0
   \   00000A   12....       LCALL   ?PUSH_XSTACK_I_ONE
   \   00000D   75....       MOV     ?V0 + 0,#SampleApp_TransID & 0xff
   \   000010   75....       MOV     ?V0 + 1,#(SampleApp_TransID >> 8) & 0xff
   \   000013   78..         MOV     R0,#?V0 + 0
   \   000015   12....       LCALL   ?PUSH_XSTACK_I_TWO
   \   000018   75....       MOV     ?V0 + 0,#SampleAppPeriodicCounter & 0xff
   \   00001B   75....       MOV     ?V0 + 1,#(SampleAppPeriodicCounter >> 8) & 0xff
   \   00001E   78..         MOV     R0,#?V0 + 0
   \   000020   12....       LCALL   ?PUSH_XSTACK_I_TWO
   \   000023   75..01       MOV     ?V0 + 0,#0x1
   \   000026   75..00       MOV     ?V0 + 1,#0x0
   \   000029   78..         MOV     R0,#?V0 + 0
   \   00002B   12....       LCALL   ?PUSH_XSTACK_I_TWO
   \   00002E   78..         MOV     R0,#?V0 + 0
   \   000030   12....       LCALL   ?PUSH_XSTACK_I_TWO
   \   000033   7920         MOV     R1,#0x20
   \   000035   7C..         MOV     R4,#SampleApp_epDesc & 0xff
   \   000037   7D..         MOV     R5,#(SampleApp_epDesc >> 8) & 0xff
   \   000039   7A..         MOV     R2,#SampleApp_Periodic_DstAddr & 0xff
   \   00003B   7B..         MOV     R3,#(SampleApp_Periodic_DstAddr >> 8) & 0xff
   \   00003D   12....       LCALL   ??Subroutine17_0 & 0xFFFF
   \                     ??CrossCallReturnLabel_32:
   \   000040   02....       LJMP    ?Subroutine1 & 0xFFFF
    466            {
    467            }
    468            else
    469            {
    470              // Error occurred in request to send.
    471            }
    472          }

   \                                 In  segment BANKED_CODE, align 1, keep-with-next
   \                     ??Subroutine17_0:
   \   000000   12....       LCALL   ??AF_DataRequest?relay
   \   000003   7409         MOV     A,#0x9
   \   000005   22           RET
    473          
    474          /*********************************************************************
    475           * @fn      SampleApp_SendFlashMessage
    476           *
    477           * @brief   Send the flash message to group 1.
    478           *
    479           * @param   flashTime - in milliseconds
    480           *
    481           * @return  none
    482           */

   \                                 In  segment BANKED_CODE, align 1, keep-with-next
    483          void SampleApp_SendFlashMessage( uint16 flashTime )
   \                     SampleApp_SendFlashMessage:
    484          {
   \   000000   74F6         MOV     A,#-0xa
   \   000002   12....       LCALL   ?BANKED_ENTER_XDATA
   \   000005                ; Saved register size: 10
   \   000005                ; Auto size: 3
   \   000005   74FD         MOV     A,#-0x3
   \   000007   12....       LCALL   ?ALLOC_XSTACK8
    485            uint8 buffer[3];
    486            buffer[0] = (uint8)(SampleAppFlashCounter++);
   \   00000A   90....       MOV     DPTR,#SampleAppFlashCounter
   \   00000D   E0           MOVX    A,@DPTR
   \   00000E   85..82       MOV     DPL,?XSP + 0
   \   000011   85..83       MOV     DPH,?XSP + 1
   \   000014   F0           MOVX    @DPTR,A
   \   000015   90....       MOV     DPTR,#SampleAppFlashCounter
   \   000018   E0           MOVX    A,@DPTR
   \   000019   04           INC     A
   \   00001A   F0           MOVX    @DPTR,A
    487            buffer[1] = LO_UINT16( flashTime );
   \   00001B   7401         MOV     A,#0x1
   \   00001D   12....       LCALL   ?XSTACK_DISP0_8
   \   000020   EA           MOV     A,R2
   \   000021   F0           MOVX    @DPTR,A
    488            buffer[2] = HI_UINT16( flashTime );
   \   000022   7402         MOV     A,#0x2
   \   000024   12....       LCALL   ?XSTACK_DISP0_8
   \   000027   EB           MOV     A,R3
   \   000028   F0           MOVX    @DPTR,A
    489          
    490            if ( AF_DataRequest( &SampleApp_Flash_DstAddr, &SampleApp_epDesc,
    491                                 SAMPLEAPP_FLASH_CLUSTERID,
    492                                 3,
    493                                 buffer,
    494                                 &SampleApp_TransID,
    495                                 AF_DISCV_ROUTE,
    496                                 AF_DEFAULT_RADIUS ) == afStatus_SUCCESS )
   \   000029                ; Setup parameters for call to function AF_DataRequest
   \   000029   75..1E       MOV     ?V0 + 0,#0x1e
   \   00002C   78..         MOV     R0,#?V0 + 0
   \   00002E   12....       LCALL   ?PUSH_XSTACK_I_ONE
   \   000031   75....       MOV     ?V0 + 0,#SampleApp_TransID & 0xff
   \   000034   75....       MOV     ?V0 + 1,#(SampleApp_TransID >> 8) & 0xff
   \   000037   78..         MOV     R0,#?V0 + 0
   \   000039   12....       LCALL   ?PUSH_XSTACK_I_TWO
   \   00003C   7403         MOV     A,#0x3
   \   00003E   12....       LCALL   ?XSTACK_DISP0_8
   \   000041   8582..       MOV     ?V0 + 0,DPL
   \   000044   8583..       MOV     ?V0 + 1,DPH
   \   000047   78..         MOV     R0,#?V0 + 0
   \   000049   12....       LCALL   ?PUSH_XSTACK_I_TWO
   \   00004C   75..03       MOV     ?V0 + 0,#0x3
   \   00004F   75..00       MOV     ?V0 + 1,#0x0
   \   000052   78..         MOV     R0,#?V0 + 0
   \   000054   12....       LCALL   ?PUSH_XSTACK_I_TWO
   \   000057   75..02       MOV     ?V0 + 0,#0x2
   \   00005A   78..         MOV     R0,#?V0 + 0
   \   00005C   12....       LCALL   ?PUSH_XSTACK_I_TWO
   \   00005F   7920         MOV     R1,#0x20
   \   000061   7C..         MOV     R4,#SampleApp_epDesc & 0xff
   \   000063   7D..         MOV     R5,#(SampleApp_epDesc >> 8) & 0xff
   \   000065   7A..         MOV     R2,#SampleApp_Flash_DstAddr & 0xff
   \   000067   7B..         MOV     R3,#(SampleApp_Flash_DstAddr >> 8) & 0xff
   \   000069   12....       LCALL   ??Subroutine17_0 & 0xFFFF
   \                     ??CrossCallReturnLabel_33:
   \   00006C   12....       LCALL   ?DEALLOC_XSTACK8
    497            {
    498            }
    499            else
    500            {
    501              // Error occurred in request to send.
    502            }
    503          }
   \   00006F   7403         MOV     A,#0x3
   \   000071   02....       LJMP    ?Subroutine1 & 0xFFFF
    504          
    505          /*********************************************************************
    506           * @fn      SampleApp_Send_P2P_Message
    507           *
    508           * @brief   point to point.
    509           *
    510           * @param   none
    511           *
    512           * @return  none
    513           */
    514          /*
    515          *终端打包传感器数据并发送到协调器处理函数
    516          */

   \                                 In  segment BANKED_CODE, align 1, keep-with-next
    517          void SampleApp_Send_P2P_Message(int8 _SensorStyle, int8 _SenserIndex, int8 _SenserPositon, uint8 *_pData)
   \                     SampleApp_Send_P2P_Message:
    518          {
   \   000000   74F2         MOV     A,#-0xe
   \   000002   12....       LCALL   ?BANKED_ENTER_XDATA
   \   000005                ; Saved register size: 14
   \   000005                ; Auto size: 10
   \   000005   74F6         MOV     A,#-0xa
   \   000007   12....       LCALL   ?ALLOC_XSTACK8
   \   00000A   E9           MOV     A,R1
   \   00000B   FE           MOV     R6,A
   \   00000C   EA           MOV     A,R2
   \   00000D   FF           MOV     R7,A
   \   00000E   8B..         MOV     ?V0 + 0,R3
   \   000010   8C..         MOV     ?V0 + 2,R4
   \   000012   8D..         MOV     ?V0 + 3,R5
    519            //MT_BuildAndSendZToolResponse(((uint8)MT_RPC_CMD_SRSP | (uint8)MT_RPC_SYS_CBT2530_APP), 0, 0, 0);
    520            uint8 sMsg[10];  
    521            uint8 sMsgLen = 0x0A;
    522            uint16 nwkAddr;
    523          
    524            nwkAddr = NLME_GetShortAddr();
   \   000014                ; Setup parameters for call to function NLME_GetShortAddr
   \   000014   12....       LCALL   ??NLME_GetShortAddr?relay
    525          
    526            sMsg[0] = HI_UINT16(nwkAddr);
   \   000017   85..82       MOV     DPL,?XSP + 0
   \   00001A   85..83       MOV     DPH,?XSP + 1
   \   00001D   EB           MOV     A,R3
   \   00001E   F0           MOVX    @DPTR,A
    527            sMsg[1] = LO_UINT16(nwkAddr);
   \   00001F   7401         MOV     A,#0x1
   \   000021   12....       LCALL   ?XSTACK_DISP0_8
   \   000024   EA           MOV     A,R2
   \   000025   F0           MOVX    @DPTR,A
    528            sMsg[2] = _SensorStyle;
   \   000026   7402         MOV     A,#0x2
   \   000028   12....       LCALL   ?XSTACK_DISP0_8
   \   00002B   EE           MOV     A,R6
   \   00002C   F0           MOVX    @DPTR,A
    529            sMsg[3] = _SenserIndex;
   \   00002D   7403         MOV     A,#0x3
   \   00002F   12....       LCALL   ?XSTACK_DISP0_8
   \   000032   EF           MOV     A,R7
   \   000033   F0           MOVX    @DPTR,A
    530            sMsg[4] = _SenserPositon;
   \   000034   7404         MOV     A,#0x4
   \   000036   12....       LCALL   ?XSTACK_DISP0_8
   \   000039   E5..         MOV     A,?V0 + 0
   \   00003B   F0           MOVX    @DPTR,A
    531          
    532            sMsg[5] = _pData[0];
   \   00003C   85..82       MOV     DPL,?V0 + 2
   \   00003F   85..83       MOV     DPH,?V0 + 3
   \   000042   E0           MOVX    A,@DPTR
   \   000043   C0E0         PUSH    A
   \   000045   7405         MOV     A,#0x5
   \   000047   12....       LCALL   ?XSTACK_DISP0_8
   \   00004A   D0E0         POP     A
   \   00004C   12....       LCALL   ?Subroutine13 & 0xFFFF
    533            sMsg[6] = _pData[1];
   \                     ??CrossCallReturnLabel_23:
   \   00004F   E0           MOVX    A,@DPTR
   \   000050   C0E0         PUSH    A
   \   000052   7406         MOV     A,#0x6
   \   000054   12....       LCALL   ?XSTACK_DISP0_8
   \   000057   D0E0         POP     A
   \   000059   12....       LCALL   ?Subroutine6 & 0xFFFF
    534            sMsg[7] = _pData[2];
   \                     ??CrossCallReturnLabel_10:
   \   00005C   E0           MOVX    A,@DPTR
   \   00005D   C0E0         PUSH    A
   \   00005F   7407         MOV     A,#0x7
   \   000061   12....       LCALL   ?XSTACK_DISP0_8
   \   000064   D0E0         POP     A
   \   000066   12....       LCALL   ?Subroutine6 & 0xFFFF
    535            sMsg[8] = _pData[3];
   \                     ??CrossCallReturnLabel_11:
   \   000069   A3           INC     DPTR
   \   00006A   E0           MOVX    A,@DPTR
   \   00006B   C0E0         PUSH    A
   \   00006D   7408         MOV     A,#0x8
   \   00006F   12....       LCALL   ?XSTACK_DISP0_8
   \   000072   D0E0         POP     A
   \   000074   F0           MOVX    @DPTR,A
    536            
    537            sMsg[9] = 0x00;//_pData[4];// REV DATA BIT
   \   000075   7409         MOV     A,#0x9
   \   000077   12....       LCALL   ?XSTACK_DISP0_8
   \   00007A   E4           CLR     A
   \   00007B   F0           MOVX    @DPTR,A
    538            if ( AF_DataRequest( &SampleApp_P2P_DstAddr, &SampleApp_epDesc,
    539                                 SAMPLEAPP_P2P_CLUSTERID,
    540                                 sMsgLen,
    541                                 sMsg,
    542                                 &SampleApp_TransID,
    543                                 AF_DISCV_ROUTE,
    544                                 AF_DEFAULT_RADIUS ) == afStatus_SUCCESS )
   \   00007C                ; Setup parameters for call to function AF_DataRequest
   \   00007C   75..1E       MOV     ?V0 + 1,#0x1e
   \   00007F   78..         MOV     R0,#?V0 + 1
   \   000081   12....       LCALL   ?PUSH_XSTACK_I_ONE
   \   000084   75....       MOV     ?V0 + 2,#SampleApp_TransID & 0xff
   \   000087   75....       MOV     ?V0 + 3,#(SampleApp_TransID >> 8) & 0xff
   \   00008A   78..         MOV     R0,#?V0 + 2
   \   00008C   12....       LCALL   ?PUSH_XSTACK_I_TWO
   \   00008F   7403         MOV     A,#0x3
   \   000091   12....       LCALL   ?XSTACK_DISP0_8
   \   000094   8582..       MOV     ?V0 + 2,DPL
   \   000097   8583..       MOV     ?V0 + 3,DPH
   \   00009A   78..         MOV     R0,#?V0 + 2
   \   00009C   12....       LCALL   ?PUSH_XSTACK_I_TWO
   \   00009F   75..0A       MOV     ?V0 + 2,#0xa
   \   0000A2   75..00       MOV     ?V0 + 3,#0x0
   \   0000A5   78..         MOV     R0,#?V0 + 2
   \   0000A7   12....       LCALL   ?PUSH_XSTACK_I_TWO
   \   0000AA   75..03       MOV     ?V0 + 2,#0x3
   \   0000AD   78..         MOV     R0,#?V0 + 2
   \   0000AF   12....       LCALL   ?PUSH_XSTACK_I_TWO
   \   0000B2   12....       LCALL   ?Subroutine10 & 0xFFFF
   \                     ??CrossCallReturnLabel_30:
   \   0000B5   12....       LCALL   ?DEALLOC_XSTACK8
    545            {
    546              
    547            }else
    548            {
    549              // Error occurred in request to send.
    550            }
    551          }
   \   0000B8   740A         MOV     A,#0xa
   \   0000BA   12....       LCALL   ?DEALLOC_XSTACK8
   \   0000BD   7F06         MOV     R7,#0x6
   \   0000BF   02....       LJMP    ?BANKED_LEAVE_XDATA

   \                                 In  segment BANKED_CODE, align 1, keep-with-next
   \                     ?Subroutine10:
   \   000000   7920         MOV     R1,#0x20
   \   000002   7C..         MOV     R4,#SampleApp_epDesc & 0xff
   \   000004   7D..         MOV     R5,#(SampleApp_epDesc >> 8) & 0xff
   \   000006   7A..         MOV     R2,#SampleApp_P2P_DstAddr & 0xff
   \   000008   7B..         MOV     R3,#(SampleApp_P2P_DstAddr >> 8) & 0xff
   \   00000A                REQUIRE ??Subroutine17_0
   \   00000A                ; // Fall through to label ??Subroutine17_0

   \                                 In  segment BANKED_CODE, align 1, keep-with-next
   \                     ?Subroutine6:
   \   000000   12....       LCALL   ?Subroutine13 & 0xFFFF
   \                     ??CrossCallReturnLabel_24:
   \   000003   A3           INC     DPTR
   \   000004   22           RET

   \                                 In  segment BANKED_CODE, align 1, keep-with-next
   \                     ?Subroutine13:
   \   000000   F0           MOVX    @DPTR,A
   \   000001   85..82       MOV     DPL,?V0 + 2
   \   000004   85..83       MOV     DPH,?V0 + 3
   \   000007   A3           INC     DPTR
   \   000008   22           RET
    552          
    553          /*
    554          *协调器收到上位机串口数据处理函数
    555          */

   \                                 In  segment BANKED_CODE, align 1, keep-with-next
    556          void SampleApp_Send_CMD_Message(afIncomingMSGPacket_t *pckt)
   \                     SampleApp_Send_CMD_Message:
    557          {
   \   000000   74F5         MOV     A,#-0xb
   \   000002   12....       LCALL   ?BANKED_ENTER_XDATA
   \   000005                ; Saved register size: 11
   \   000005                ; Auto size: 18
   \   000005   74EE         MOV     A,#-0x12
   \   000007   12....       LCALL   ?ALLOC_XSTACK8
    558            uint8 data_buf[18];
    559            uint8 len = 18;
    560           
    561            osal_memcpy(data_buf, (uint8 *)pckt+2, 18);
   \   00000A                ; Setup parameters for call to function osal_memcpy
   \   00000A   8A82         MOV     DPL,R2
   \   00000C   8B83         MOV     DPH,R3
   \   00000E   A3           INC     DPTR
   \   00000F   A3           INC     DPTR
   \   000010   A982         MOV     R1,DPL
   \   000012   AA83         MOV     R2,DPH
   \   000014   89..         MOV     ?V0 + 0,R1
   \   000016   8A..         MOV     ?V0 + 1,R2
   \   000018   75..00       MOV     ?V0 + 2,#0x0
   \   00001B   78..         MOV     R0,#?V0 + 0
   \   00001D   12....       LCALL   ?PUSH_XSTACK_I_THREE
   \   000020   7C12         MOV     R4,#0x12
   \   000022   7D00         MOV     R5,#0x0
   \   000024   7403         MOV     A,#0x3
   \   000026   12....       LCALL   ?XSTACK_DISP0_8
   \   000029   AA82         MOV     R2,DPL
   \   00002B   AB83         MOV     R3,DPH
   \   00002D   12....       LCALL   ??osal_memcpy?relay
   \   000030   7403         MOV     A,#0x3
   \   000032   12....       LCALL   ?DEALLOC_XSTACK8
    562            //HalUARTWrite(1, data_buf, 18); 
    563            if((data_buf[0]==0xee) && (data_buf[1]==0xcc) && (data_buf[17]==0xff) && (len==18))
   \   000035   85..82       MOV     DPL,?XSP + 0
   \   000038   85..83       MOV     DPH,?XSP + 1
   \   00003B   E0           MOVX    A,@DPTR
   \   00003C   64EE         XRL     A,#0xee
   \   00003E   706C         JNZ     ??SampleApp_Send_CMD_Message_0
   \   000040   7401         MOV     A,#0x1
   \   000042   12....       LCALL   ?XSTACK_DISP0_8
   \   000045   E0           MOVX    A,@DPTR
   \   000046   64CC         XRL     A,#0xcc
   \   000048   7062         JNZ     ??SampleApp_Send_CMD_Message_0
   \   00004A   7411         MOV     A,#0x11
   \   00004C   12....       LCALL   ?XSTACK_DISP0_8
   \   00004F   E0           MOVX    A,@DPTR
   \   000050   F4           CPL     A
   \   000051   7059         JNZ     ??SampleApp_Send_CMD_Message_0
    564            {
    565              SampleApp_P2P_DstAddr.addrMode = (afAddrMode_t)afAddr16Bit;
   \   000053   12....       LCALL   ?Subroutine5 & 0xFFFF
    566              SampleApp_P2P_DstAddr.endPoint = SAMPLEAPP_ENDPOINT;
    567              SampleApp_P2P_DstAddr.addr.shortAddr = BUILD_UINT16(data_buf[6], data_buf[5]);
   \                     ??CrossCallReturnLabel_35:
   \   000056   7406         MOV     A,#0x6
   \   000058   12....       LCALL   ?XSTACK_DISP0_8
   \   00005B   E0           MOVX    A,@DPTR
   \   00005C   FA           MOV     R2,A
   \   00005D   7405         MOV     A,#0x5
   \   00005F   12....       LCALL   ?XSTACK_DISP0_8
   \   000062   E0           MOVX    A,@DPTR
   \   000063   F9           MOV     R1,A
   \   000064   EA           MOV     A,R2
   \   000065   90....       MOV     DPTR,#SampleApp_P2P_DstAddr
   \   000068   F0           MOVX    @DPTR,A
   \   000069   A3           INC     DPTR
   \   00006A   E9           MOV     A,R1
   \   00006B   F0           MOVX    @DPTR,A
    568            
    569              if ( AF_DataRequest( &SampleApp_P2P_DstAddr, &SampleApp_epDesc,
    570                                   SAMPLEAPP_CMD_CLUSTERID,
    571                                   len,
    572                                   data_buf,
    573                                   &SampleApp_TransID,
    574                                   AF_DISCV_ROUTE,
    575                                   AF_DEFAULT_RADIUS ) == afStatus_SUCCESS )
   \   00006C                ; Setup parameters for call to function AF_DataRequest
   \   00006C   75..1E       MOV     ?V0 + 0,#0x1e
   \   00006F   78..         MOV     R0,#?V0 + 0
   \   000071   12....       LCALL   ?PUSH_XSTACK_I_ONE
   \   000074   75....       MOV     ?V0 + 0,#SampleApp_TransID & 0xff
   \   000077   75....       MOV     ?V0 + 1,#(SampleApp_TransID >> 8) & 0xff
   \   00007A   78..         MOV     R0,#?V0 + 0
   \   00007C   12....       LCALL   ?PUSH_XSTACK_I_TWO
   \   00007F   7403         MOV     A,#0x3
   \   000081   12....       LCALL   ?XSTACK_DISP0_8
   \   000084   8582..       MOV     ?V0 + 0,DPL
   \   000087   8583..       MOV     ?V0 + 1,DPH
   \   00008A   78..         MOV     R0,#?V0 + 0
   \   00008C   12....       LCALL   ?PUSH_XSTACK_I_TWO
   \   00008F   75..12       MOV     ?V0 + 0,#0x12
   \   000092   75..00       MOV     ?V0 + 1,#0x0
   \   000095   78..         MOV     R0,#?V0 + 0
   \   000097   12....       LCALL   ?PUSH_XSTACK_I_TWO
   \   00009A   75..04       MOV     ?V0 + 0,#0x4
   \   00009D   78..         MOV     R0,#?V0 + 0
   \   00009F   12....       LCALL   ?PUSH_XSTACK_I_TWO
   \   0000A2   12....       LCALL   ?Subroutine10 & 0xFFFF
   \                     ??CrossCallReturnLabel_31:
   \   0000A5   12....       LCALL   ?DEALLOC_XSTACK8
   \   0000A8   E9           MOV     A,R1
   \   0000A9   7001         JNZ     ??SampleApp_Send_CMD_Message_0
    576              {    
    577                asm("NOP");
   \   0000AB   00           NOP
    578              }
    579              else
    580              {
    581                //HalLedBlink( HAL_LED_1, 2, 50, (1000 / 4) );
    582                //Error occurred in request to send.
    583              }
    584            }
    585          }
   \                     ??SampleApp_Send_CMD_Message_0:
   \   0000AC   7412         MOV     A,#0x12
   \   0000AE   12....       LCALL   ?DEALLOC_XSTACK8
   \   0000B1   02....       LJMP    ?Subroutine0 & 0xFFFF
    586          
    587          /*
    588          *协调器收到终端发送的周期数据处理函数
    589          */

   \                                 In  segment BANKED_CODE, align 1, keep-with-next
    590          void SampleApp_NwkP2PMsgProcessing(afIncomingMSGPacket_t * pkt)
   \                     SampleApp_NwkP2PMsgProcessing:
    591          {
   \   000000   74F5         MOV     A,#-0xb
   \   000002   12....       LCALL   ?BANKED_ENTER_XDATA
   \   000005                ; Saved register size: 11
   \   000005                ; Auto size: 0
    592            sensorValue.dataDetail.nodeAddr[2] = *pkt->cmd.Data;
   \   000005   EA           MOV     A,R2
   \   000006   2422         ADD     A,#0x22
   \   000008   F8           MOV     R0,A
   \   000009   EB           MOV     A,R3
   \   00000A   3400         ADDC    A,#0x0
   \   00000C   F9           MOV     R1,A
   \   00000D   12....       LCALL   ?Subroutine14 & 0xFFFF
   \                     ??CrossCallReturnLabel_25:
   \   000010   E0           MOVX    A,@DPTR
   \   000011   90....       MOV     DPTR,#sensorValue + 5
   \   000014   12....       LCALL   ?Subroutine4 & 0xFFFF
    593            sensorValue.dataDetail.nodeAddr[3] = *(pkt->cmd.Data+1);
   \                     ??CrossCallReturnLabel_8:
   \   000017   E0           MOVX    A,@DPTR
   \   000018   90....       MOV     DPTR,#sensorValue + 6
   \   00001B   F0           MOVX    @DPTR,A
    594            sensorValue.dataDetail.nodeChannel = _NIB.nwkLogicalChannel;
   \   00001C   90....       MOV     DPTR,#_NIB + 22
   \   00001F   E0           MOVX    A,@DPTR
   \   000020   90....       MOV     DPTR,#sensorValue + 7
   \   000023   F0           MOVX    @DPTR,A
    595            sensorValue.dataDetail.nodePort    = 0x01;
   \   000024   A3           INC     DPTR
   \   000025   7401         MOV     A,#0x1
   \   000027   12....       LCALL   ?Subroutine4 & 0xFFFF
    596            sensorValue.dataDetail.data.sensorType = *(pkt->cmd.Data+2);
   \                     ??CrossCallReturnLabel_9:
   \   00002A   A3           INC     DPTR
   \   00002B   E0           MOVX    A,@DPTR
   \   00002C   90....       MOV     DPTR,#sensorValue + 10
   \   00002F   12....       LCALL   ?Subroutine3 & 0xFFFF
    597            sensorValue.dataDetail.data.sensorID   = *(pkt->cmd.Data+3);
   \                     ??CrossCallReturnLabel_6:
   \   000032   E0           MOVX    A,@DPTR
   \   000033   90....       MOV     DPTR,#sensorValue + 11
   \   000036   12....       LCALL   ?Subroutine3 & 0xFFFF
    598            sensorValue.dataDetail.data.sensorPostion = *(pkt->cmd.Data+4);
   \                     ??CrossCallReturnLabel_7:
   \   000039   A3           INC     DPTR
   \   00003A   E0           MOVX    A,@DPTR
   \   00003B   90....       MOV     DPTR,#sensorValue + 12
   \   00003E   F0           MOVX    @DPTR,A
    599            osal_memcpy(sensorValue.dataDetail.data.SensorData, pkt->cmd.Data+5, 4);
   \   00003F                ; Setup parameters for call to function osal_memcpy
   \   00003F   8882         MOV     DPL,R0
   \   000041   8983         MOV     DPH,R1
   \   000043   E0           MOVX    A,@DPTR
   \   000044   2405         ADD     A,#0x5
   \   000046   F5..         MOV     ?V0 + 0,A
   \   000048   A3           INC     DPTR
   \   000049   E0           MOVX    A,@DPTR
   \   00004A   3400         ADDC    A,#0x0
   \   00004C   F5..         MOV     ?V0 + 1,A
   \   00004E   75..00       MOV     ?V0 + 2,#0x0
   \   000051   78..         MOV     R0,#?V0 + 0
   \   000053   12....       LCALL   ?PUSH_XSTACK_I_THREE
   \   000056   7C04         MOV     R4,#0x4
   \   000058   7D00         MOV     R5,#0x0
   \   00005A   7A..         MOV     R2,#(sensorValue + 13) & 0xff
   \   00005C   7B..         MOV     R3,#((sensorValue + 13) >> 8) & 0xff
   \   00005E   12....       LCALL   ??osal_memcpy?relay
   \   000061   7403         MOV     A,#0x3
   \   000063   12....       LCALL   ?DEALLOC_XSTACK8
    600            
    601            HalUARTWrite(0, sensorValue.dataArry,DATA_AGREEMENT_LENGTH);
   \   000066                ; Setup parameters for call to function HalUARTWrite
   \   000066   7C12         MOV     R4,#0x12
   \   000068   7D00         MOV     R5,#0x0
   \   00006A   7A..         MOV     R2,#sensorValue & 0xff
   \   00006C   7B..         MOV     R3,#(sensorValue >> 8) & 0xff
   \   00006E   7900         MOV     R1,#0x0
   \   000070   12....       LCALL   ??HalUARTWrite?relay
    602          }
   \   000073   02....       LJMP    ?Subroutine0 & 0xFFFF

   \                                 In  segment BANKED_CODE, align 1, keep-with-next
   \                     ?Subroutine4:
   \   000000   12....       LCALL   ?Subroutine12 & 0xFFFF
   \                     ??CrossCallReturnLabel_21:
   \   000003   22           RET

   \                                 In  segment BANKED_CODE, align 1, keep-with-next
   \                     ?Subroutine12:
   \   000000   F0           MOVX    @DPTR,A
   \   000001   12....       LCALL   ?Subroutine14 & 0xFFFF
   \                     ??CrossCallReturnLabel_26:
   \   000004   A3           INC     DPTR
   \   000005   22           RET

   \                                 In  segment BANKED_CODE, align 1, keep-with-next
   \                     ?Subroutine14:
   \   000000   8882         MOV     DPL,R0
   \   000002   8983         MOV     DPH,R1
   \   000004   E0           MOVX    A,@DPTR
   \   000005   FA           MOV     R2,A
   \   000006   A3           INC     DPTR
   \   000007   E0           MOVX    A,@DPTR
   \   000008   F583         MOV     DPH,A
   \   00000A   8A82         MOV     DPL,R2
   \   00000C   22           RET

   \                                 In  segment BANKED_CODE, align 1, keep-with-next
   \                     ?Subroutine3:
   \   000000   12....       LCALL   ?Subroutine12 & 0xFFFF
   \                     ??CrossCallReturnLabel_22:
   \   000003   A3           INC     DPTR
   \   000004   A3           INC     DPTR
   \   000005   22           RET
    603          
    604          /*
    605          *终端接受无线控制命令处理函数
    606          */

   \                                 In  segment BANKED_CODE, align 1, keep-with-next
    607          void SampleApp_NwkCMDMsgProcessing(afIncomingMSGPacket_t * pkt)
   \                     SampleApp_NwkCMDMsgProcessing:
    608          {
   \   000000   C082         PUSH    DPL
   \   000002   C083         PUSH    DPH
   \   000004                ; Saved register size: 2
   \   000004                ; Auto size: 0
    609            uint8 *buf = pkt->cmd.Data;
   \   000004   12....       LCALL   ?Subroutine8 & 0xFFFF
    610            
    611            if(buf[0] == 0xEE && buf[1] == 0xCC && buf[17] == 0xFF)
   \                     ??CrossCallReturnLabel_16:
   \   000007   E0           MOVX    A,@DPTR
   \   000008   64EE         XRL     A,#0xee
   \   00000A   7047         JNZ     ??SampleApp_NwkCMDMsgProcessing_0
   \   00000C   A3           INC     DPTR
   \   00000D   E0           MOVX    A,@DPTR
   \   00000E   64CC         XRL     A,#0xcc
   \   000010   7041         JNZ     ??SampleApp_NwkCMDMsgProcessing_0
   \   000012   E8           MOV     A,R0
   \   000013   2411         ADD     A,#0x11
   \   000015   F582         MOV     DPL,A
   \   000017   E9           MOV     A,R1
   \   000018   3400         ADDC    A,#0x0
   \   00001A   F583         MOV     DPH,A
   \   00001C   E0           MOVX    A,@DPTR
   \   00001D   F4           CPL     A
   \   00001E   7033         JNZ     ??SampleApp_NwkCMDMsgProcessing_0
    612            {
    613              switch(buf[10])
   \   000020   8882         MOV     DPL,R0
   \   000022   8983         MOV     DPH,R1
   \   000024   A3           INC     DPTR
   \   000025   A3           INC     DPTR
   \   000026   A3           INC     DPTR
   \   000027   A3           INC     DPTR
   \   000028   A3           INC     DPTR
   \   000029   A3           INC     DPTR
   \   00002A   A3           INC     DPTR
   \   00002B   A3           INC     DPTR
   \   00002C   A3           INC     DPTR
   \   00002D   A3           INC     DPTR
   \   00002E   E0           MOVX    A,@DPTR
   \   00002F   24EF         ADD     A,#-0x11
   \   000031   6012         JZ      ??SampleApp_NwkCMDMsgProcessing_1
   \   000033   24FE         ADD     A,#-0x2
   \   000035   6006         JZ      ??SampleApp_NwkCMDMsgProcessing_2
   \   000037   24FD         ADD     A,#-0x3
   \   000039   6012         JZ      ??SampleApp_NwkCMDMsgProcessing_3
   \   00003B   8016         SJMP    ??SampleApp_NwkCMDMsgProcessing_0
    614              {
    615          #ifdef DEVICE_RELAY_PUMP
    616                case DEVICE_RELAY_PUMP:
    617                  CtrlRelyOne(buf[16]);
   \                     ??SampleApp_NwkCMDMsgProcessing_2:
   \   00003D                ; Setup parameters for call to function CtrlRelyOne
   \   00003D   12....       LCALL   ?Subroutine9 & 0xFFFF
   \                     ??CrossCallReturnLabel_18:
   \   000040   12....       LCALL   ??CtrlRelyOne?relay
    618                  break;
   \   000043   800E         SJMP    ??SampleApp_NwkCMDMsgProcessing_0
    619          #endif
    620          #ifdef DEVICE_RELAY_LAMP
    621                case DEVICE_RELAY_LAMP:
    622                  CtrlRelyTwo(buf[16]);
   \                     ??SampleApp_NwkCMDMsgProcessing_1:
   \   000045                ; Setup parameters for call to function CtrlRelyTwo
   \   000045   12....       LCALL   ?Subroutine9 & 0xFFFF
   \                     ??CrossCallReturnLabel_19:
   \   000048   12....       LCALL   ??CtrlRelyTwo?relay
    623                  break;
   \   00004B   8006         SJMP    ??SampleApp_NwkCMDMsgProcessing_0
    624          #endif
    625          #ifdef DEVICE_RELAY_COLD
    626                case DEVICE_RELAY_COLD:
    627                  CtrlRelyThree(buf[16]);
   \                     ??SampleApp_NwkCMDMsgProcessing_3:
   \   00004D                ; Setup parameters for call to function CtrlRelyThree
   \   00004D   12....       LCALL   ?Subroutine9 & 0xFFFF
   \                     ??CrossCallReturnLabel_20:
   \   000050   12....       LCALL   ??CtrlRelyThree?relay
    628                  break;
    629          #endif
    630                default:
    631                  break;
    632              }
    633            }
    634          }
   \                     ??SampleApp_NwkCMDMsgProcessing_0:
   \   000053   D083         POP     DPH
   \   000055   D082         POP     DPL
   \   000057   02....       LJMP    ?BRET

   \                                 In  segment BANKED_CODE, align 1, keep-with-next
   \                     ?Subroutine9:
   \   000000   E8           MOV     A,R0
   \   000001   2410         ADD     A,#0x10
   \   000003   F582         MOV     DPL,A
   \   000005   E9           MOV     A,R1
   \   000006   3400         ADDC    A,#0x0
   \   000008   F583         MOV     DPH,A
   \   00000A   E0           MOVX    A,@DPTR
   \   00000B   F9           MOV     R1,A
   \   00000C   22           RET

   \                                 In  segment XDATA_ID, align 1, keep-with-next
   \                     `?<Initializer for AppTitle>`:
   \   000000   414C4432     DB "ALD2530 DHT11"
   \            35333020
   \            44485431
   \            3100    

   \                                 In  segment XDATA_ID, align 1, keep-with-next
   \                     `?<Initializer for sensorValue>`:
   \   000000   EE           DB 238
   \   000001   CC           DB 204
   \   000002   01           DB 1
   \   000003   00           DB 0
   \   000004   00           DB 0
   \   000005   00           DB 0
   \   000006   00           DB 0
   \   000007   00           DB 0
   \   000008   00           DB 0
   \   000009   07           DB 7
   \   00000A   00           DB 0
   \   00000B   00           DB 0
   \   00000C   00           DB 0
   \   00000D   00           DB 0
   \   00000E   00           DB 0
   \   00000F   00           DB 0
   \   000010   00           DB 0
   \   000011   FF           DB 255

   \                                 In  segment BANK_RELAYS, align 1
   \                     ??SampleApp_Init?relay:
   \   000000   12....       LCALL   ?BDISPATCH
   \   000003   ......       DC24    SampleApp_Init

   \                                 In  segment BANK_RELAYS, align 1
   \                     ??SampleApp_ProcessEvent?relay:
   \   000000   12....       LCALL   ?BDISPATCH
   \   000003   ......       DC24    SampleApp_ProcessEvent

   \                                 In  segment BANK_RELAYS, align 1
   \                     ??SampleApp_HandleKeys?relay:
   \   000000   12....       LCALL   ?BDISPATCH
   \   000003   ......       DC24    SampleApp_HandleKeys

   \                                 In  segment BANK_RELAYS, align 1
   \                     ??SampleApp_MessageMSGCB?relay:
   \   000000   12....       LCALL   ?BDISPATCH
   \   000003   ......       DC24    SampleApp_MessageMSGCB

   \                                 In  segment BANK_RELAYS, align 1
   \                     ??SampleApp_SendPeriodicMessage?relay:
   \   000000   12....       LCALL   ?BDISPATCH
   \   000003   ......       DC24    SampleApp_SendPeriodicMessage

   \                                 In  segment BANK_RELAYS, align 1
   \                     ??SampleApp_SendFlashMessage?relay:
   \   000000   12....       LCALL   ?BDISPATCH
   \   000003   ......       DC24    SampleApp_SendFlashMessage

   \                                 In  segment BANK_RELAYS, align 1
   \                     ??SampleApp_Send_P2P_Message?relay:
   \   000000   12....       LCALL   ?BDISPATCH
   \   000003   ......       DC24    SampleApp_Send_P2P_Message

   \                                 In  segment BANK_RELAYS, align 1
   \                     ??SampleApp_Send_CMD_Message?relay:
   \   000000   12....       LCALL   ?BDISPATCH
   \   000003   ......       DC24    SampleApp_Send_CMD_Message

   \                                 In  segment BANK_RELAYS, align 1
   \                     ??SampleApp_NwkP2PMsgProcessing?relay:
   \   000000   12....       LCALL   ?BDISPATCH
   \   000003   ......       DC24    SampleApp_NwkP2PMsgProcessing

   \                                 In  segment BANK_RELAYS, align 1
   \                     ??SampleApp_NwkCMDMsgProcessing?relay:
   \   000000   12....       LCALL   ?BDISPATCH
   \   000003   ......       DC24    SampleApp_NwkCMDMsgProcessing

   \                                 In  segment XDATA_ROM_C, align 1
   \                     `?<Constant "Group 1">`:
   \   000000   47726F75     DB "Group 1"
   \            70203100

   \                                 In  segment XDATA_ROM_C, align 1
   \                     `?<Constant "SampleApp">`:
   \   000000   53616D70     DB "SampleApp"
   \            6C654170
   \            7000    

   \                                 In  segment XDATA_ROM_C, align 1
   \                     `?<Constant {0}>`:
   \   000000   00           DB 0
   \   000001   000000       DB 0, 0, 0
    635          /*********************************************************************
    636          *********************************************************************/

   Maximum stack usage in bytes:

     Function                       ISTACK PSTACK XSTACK
     --------                       ------ ------ ------
     SampleApp_HandleKeys               0      0     26
       -> SampleApp_SendFlashMessage
                                        0      0     20
       -> aps_FindGroup                 0      0     20
       -> aps_RemoveGroup               0      0     20
       -> aps_AddGroup                  0      0     20
     SampleApp_Init                     0      0     14
       -> MT_UartRegisterTaskID         0      0     22
       -> InitDigSensor                 0      0     22
       -> afRegister                    0      0     22
       -> RegisterForKeys               0      0     22
       -> osal_memcpy                   0      0     28
       -> aps_AddGroup                  0      0     22
       -> HalLcdWriteString             0      0     22
     SampleApp_MessageMSGCB             0      0     26
       -> SampleApp_NwkP2PMsgProcessing
                                        0      0     20
       -> SampleApp_NwkCMDMsgProcessing
                                        0      0     20
       -> HalLedBlink                   0      0     20
     SampleApp_NwkCMDMsgProcessing      2      0     10
       -> CtrlRelyOne                   4      0      0
       -> CtrlRelyTwo                   4      0      0
       -> CtrlRelyThree                 4      0      0
     SampleApp_NwkP2PMsgProcessing      0      0     24
       -> osal_memcpy                   0      0     28
       -> HalUARTWrite                  0      0     22
     SampleApp_ProcessEvent             2      0     16
       -> osal_msg_receive              0      0     32
       -> osal_start_timerEx            0      0     32
       -> osal_msg_deallocate           0      0     32
       -> osal_msg_receive              0      0     32
       -> SampleApp_HandleKeys          0      0     32
       -> SampleApp_MessageMSGCB        0      0     32
       -> SampleApp_Send_CMD_Message
                                        0      0     32
       -> ReadGasData                   0      0     32
       -> SampleApp_Send_P2P_Message
                                        0      0     32
       -> GetHt11Value                  0      0     32
       -> SampleApp_Send_P2P_Message
                                        0      0     32
       -> GetLightData                  0      0     32
       -> SampleApp_Send_P2P_Message
                                        0      0     32
       -> SampleApp_Send_P2P_Message
                                        0      0     32
       -> SampleApp_Send_P2P_Message
                                        0      0     32
       -> SampleApp_Send_P2P_Message
                                        0      0     32
       -> osal_rand                     0      0     32
       -> osal_start_timerEx            0      0     32
       -> osal_rand                     0      0     32
       -> osal_start_timerEx            0      0     32
     SampleApp_SendFlashMessage         1      0     32
       -> AF_DataRequest                0      0     44
     SampleApp_SendPeriodicMessage      0      0     19
       -> AF_DataRequest                0      0     38
     SampleApp_Send_CMD_Message         0      0     54
       -> osal_memcpy                   0      0     64
       -> AF_DataRequest                0      0     76
     SampleApp_Send_P2P_Message         1      0     49
       -> NLME_GetShortAddr             0      0     48
       -> AF_DataRequest                0      0     66


   Segment part sizes:

     Function/Label                        Bytes
     --------------                        -----
     AppTitle                                14
     SampleApp_ClusterList                    8
     SampleApp_SimpleDesc                    12
     SampleApp_epDesc                         6
     SampleApp_TaskID                         1
     SampleApp_NwkState                       1
     SampleApp_TransID                        1
     SampleApp_Periodic_DstAddr              12
     SampleApp_Flash_DstAddr                 12
     SampleApp_P2P_DstAddr                   12
     SampleApp_CMD_DstAddr                   12
     SampleApp_Group                         18
     SampleAppPeriodicCounter                 1
     SampleAppFlashCounter                    1
     sensorValue                             18
     SampleApp_Init                         166
     ?Subroutine0                             5
     ?Subroutine5                             5
     ??Subroutine18_0                         6
     SampleApp_ProcessEvent                 448
     ?Subroutine11                            2
     ??Subroutine15_0                        11
     ?Subroutine7                            13
     ?Subroutine2                            16
     SampleApp_HandleKeys                    61
     ??Subroutine16_0                         5
     SampleApp_MessageMSGCB                  91
     ?Subroutine8                            20
     ?Subroutine1                             3
     SampleApp_SendPeriodicMessage           67
     ??Subroutine17_0                         6
     SampleApp_SendFlashMessage             116
     SampleApp_Send_P2P_Message             194
     ?Subroutine10                           10
     ?Subroutine6                             5
     ?Subroutine13                            9
     SampleApp_Send_CMD_Message             180
     SampleApp_NwkP2PMsgProcessing          118
     ?Subroutine4                             4
     ?Subroutine12                            6
     ?Subroutine14                           13
     ?Subroutine3                             6
     SampleApp_NwkCMDMsgProcessing           90
     ?Subroutine9                            13
     ?<Initializer for AppTitle>             14
     ?<Initializer for sensorValue>          18
     ??SampleApp_Init?relay                   6
     ??SampleApp_ProcessEvent?relay           6
     ??SampleApp_HandleKeys?relay             6
     ??SampleApp_MessageMSGCB?relay           6
     ??SampleApp_SendPeriodicMessage?relay    6
     ??SampleApp_SendFlashMessage?relay       6
     ??SampleApp_Send_P2P_Message?relay       6
     ??SampleApp_Send_CMD_Message?relay       6
     ??SampleApp_NwkP2PMsgProcessing?relay    6
     ??SampleApp_NwkCMDMsgProcessing?relay    6
     ?<Constant "Group 1">                    8
     ?<Constant "SampleApp">                 10
     ?<Constant {0}>                          4

 
 1 689 bytes in segment BANKED_CODE
    60 bytes in segment BANK_RELAYS
    32 bytes in segment XDATA_I
    32 bytes in segment XDATA_ID
    42 bytes in segment XDATA_ROM_C
    77 bytes in segment XDATA_Z
 
 1 781 bytes of CODE  memory
    42 bytes of CONST memory
   109 bytes of XDATA memory

Errors: none
Warnings: none
