///////////////////////////////////////////////////////////////////////////////
//                                                                            /
// IAR C/C++ Compiler V8.10.3.10338/W32 for 8051        29/Sep/2018  17:09:20 /
// Copyright 2004-2011 IAR Systems AB.                                        /
//                                                                            /
//    Core               =  plain                                             /
//    Code model         =  banked                                            /
//    Data model         =  large                                             /
//    Calling convention =  xdata reentrant                                   /
//    Constant location  =  data_rom                                          /
//    Dptr setup         =  1,16                                              /
//    Source file        =  E:\BYSJ\bysj2018\SRC\11\ZigBeePro\Projects\zstack /
//                          \Samples\SampleApp\Source\SampleApp.c             /
//    Command line       =  -f E:\BYSJ\bysj2018\SRC\11\ZigBeePro\Projects\zst /
//                          ack\Samples\SampleApp\CC2530DB\..\..\..\Tools\CC2 /
//                          530DB\f8wEndev.cfg (-DCPU32MHZ                    /
//                          -DROOT=__near_func -DMAC_CFG_TX_DATA_MAX=3        /
//                          -DMAC_CFG_TX_MAX=6 -DMAC_CFG_RX_MAX=3) -f         /
//                          E:\BYSJ\bysj2018\SRC\11\ZigBeePro\Projects\zstack /
//                          \Samples\SampleApp\CC2530DB\..\..\..\Tools\CC2530 /
//                          DB\f8wConfig.cfg (-DZIGBEEPRO -DSECURE=0          /
//                          -DZG_SECURE_DYNAMIC=0 -DREFLECTOR                 /
//                          -DDEFAULT_CHANLIST=0x00000800                     /
//                          -DZDAPP_CONFIG_PAN_ID=0x1234                      /
//                          -DNWK_START_DELAY=100 -DEXTENDED_JOINING_RANDOM_M /
//                          ASK=0x007F -DBEACON_REQUEST_DELAY=100             /
//                          -DBEACON_REQ_DELAY_MASK=0x00FF                    /
//                          -DLINK_STATUS_JITTER_MASK=0x007F                  /
//                          -DROUTE_EXPIRY_TIME=30 -DAPSC_ACK_WAIT_DURATION_P /
//                          OLLED=3000 -DNWK_INDIRECT_MSG_TIMEOUT=7           /
//                          -DMAX_RREQ_ENTRIES=8 -DAPSC_MAX_FRAME_RETRIES=3   /
//                          -DNWK_MAX_DATA_RETRIES=2                          /
//                          -DMAX_POLL_FAILURE_RETRIES=2 -DMAX_BCAST=9        /
//                          -DAPS_MAX_GROUPS=16 -DMAX_RTG_ENTRIES=40          /
//                          -DNWK_MAX_BINDING_ENTRIES=4                       /
//                          -DMAX_BINDING_CLUSTER_IDS=4                       /
//                          "-DDEFAULT_KEY={0x01, 0x03, 0x05, 0x07, 0x09,     /
//                          0x0B, 0x0D, 0x0F, 0x00, 0x02, 0x04, 0x06, 0x08,   /
//                          0x0A, 0x0C, 0x0D}" -DMAC_MAX_FRAME_SIZE=116       /
//                          -DZDNWKMGR_MIN_TRANSMISSIONS=20 "-DCONST=const    /
//                          __code" -DGENERIC=__generic                       /
//                          -DRFD_RCVC_ALWAYS_ON=FALSE -DPOLL_RATE=1000       /
//                          -DQUEUED_POLL_RATE=100 -DRESPONSE_POLL_RATE=100)  /
//                          -DREJOIN_POLL_RATE=440 E:\BYSJ\bysj2018\SRC\11\Zi /
//                          gBeePro\Projects\zstack\Samples\SampleApp\Source\ /
//                          SampleApp.c -D NWK_AUTO_POLL -D ZTOOL_P1 -D       /
//                          MT_TASK -D MT_SYS_FUNC -D MT_ZDO_FUNC -D          /
//                          LCD_SUPPORTED=DEBUG -lC                           /
//                          E:\BYSJ\bysj2018\SRC\11\ZigBeePro\Projects\zstack /
//                          \Samples\SampleApp\CC2530DB\EndDeviceEB\List\     /
//                          -lA E:\BYSJ\bysj2018\SRC\11\ZigBeePro\Projects\zs /
//                          tack\Samples\SampleApp\CC2530DB\EndDeviceEB\List\ /
//                           --diag_suppress Pe001,Pa010 -o                   /
//                          E:\BYSJ\bysj2018\SRC\11\ZigBeePro\Projects\zstack /
//                          \Samples\SampleApp\CC2530DB\EndDeviceEB\Obj\ -e   /
//                          --no_code_motion --debug --core=plain             /
//                          --dptr=16,1 --data_model=large                    /
//                          --code_model=banked --calling_convention=xdata_re /
//                          entrant --place_constants=data_rom                /
//                          --nr_virtual_regs 16 -I                           /
//                          E:\BYSJ\bysj2018\SRC\11\ZigBeePro\Projects\zstack /
//                          \Samples\SampleApp\CC2530DB\ -I                   /
//                          E:\BYSJ\bysj2018\SRC\11\ZigBeePro\Projects\zstack /
//                          \Samples\SampleApp\CC2530DB\..\Source\ -I         /
//                          E:\BYSJ\bysj2018\SRC\11\ZigBeePro\Projects\zstack /
//                          \Samples\SampleApp\CC2530DB\..\..\..\ZMain\TI2530 /
//                          DB\ -I E:\BYSJ\bysj2018\SRC\11\ZigBeePro\Projects /
//                          \zstack\Samples\SampleApp\CC2530DB\..\..\..\..\.. /
//                          \Components\hal\include\ -I                       /
//                          E:\BYSJ\bysj2018\SRC\11\ZigBeePro\Projects\zstack /
//                          \Samples\SampleApp\CC2530DB\..\..\..\..\..\Compon /
//                          ents\hal\target\CC2530EB\ -I                      /
//                          E:\BYSJ\bysj2018\SRC\11\ZigBeePro\Projects\zstack /
//                          \Samples\SampleApp\CC2530DB\..\..\..\..\..\Compon /
//                          ents\mac\include\ -I E:\BYSJ\bysj2018\SRC\11\ZigB /
//                          eePro\Projects\zstack\Samples\SampleApp\CC2530DB\ /
//                          ..\..\..\..\..\Components\mac\high_level\ -I      /
//                          E:\BYSJ\bysj2018\SRC\11\ZigBeePro\Projects\zstack /
//                          \Samples\SampleApp\CC2530DB\..\..\..\..\..\Compon /
//                          ents\mac\low_level\srf04\ -I                      /
//                          E:\BYSJ\bysj2018\SRC\11\ZigBeePro\Projects\zstack /
//                          \Samples\SampleApp\CC2530DB\..\..\..\..\..\Compon /
//                          ents\mac\low_level\srf04\single_chip\ -I          /
//                          E:\BYSJ\bysj2018\SRC\11\ZigBeePro\Projects\zstack /
//                          \Samples\SampleApp\CC2530DB\..\..\..\..\..\Compon /
//                          ents\mt\ -I E:\BYSJ\bysj2018\SRC\11\ZigBeePro\Pro /
//                          jects\zstack\Samples\SampleApp\CC2530DB\..\..\..\ /
//                          ..\..\Components\osal\include\ -I                 /
//                          E:\BYSJ\bysj2018\SRC\11\ZigBeePro\Projects\zstack /
//                          \Samples\SampleApp\CC2530DB\..\..\..\..\..\Compon /
//                          ents\services\saddr\ -I                           /
//                          E:\BYSJ\bysj2018\SRC\11\ZigBeePro\Projects\zstack /
//                          \Samples\SampleApp\CC2530DB\..\..\..\..\..\Compon /
//                          ents\services\sdata\ -I                           /
//                          E:\BYSJ\bysj2018\SRC\11\ZigBeePro\Projects\zstack /
//                          \Samples\SampleApp\CC2530DB\..\..\..\..\..\Compon /
//                          ents\stack\af\ -I E:\BYSJ\bysj2018\SRC\11\ZigBeeP /
//                          ro\Projects\zstack\Samples\SampleApp\CC2530DB\..\ /
//                          ..\..\..\..\Components\stack\nwk\ -I              /
//                          E:\BYSJ\bysj2018\SRC\11\ZigBeePro\Projects\zstack /
//                          \Samples\SampleApp\CC2530DB\..\..\..\..\..\Compon /
//                          ents\stack\sapi\ -I E:\BYSJ\bysj2018\SRC\11\ZigBe /
//                          ePro\Projects\zstack\Samples\SampleApp\CC2530DB\. /
//                          .\..\..\..\..\Components\stack\sec\ -I            /
//                          E:\BYSJ\bysj2018\SRC\11\ZigBeePro\Projects\zstack /
//                          \Samples\SampleApp\CC2530DB\..\..\..\..\..\Compon /
//                          ents\stack\sys\ -I E:\BYSJ\bysj2018\SRC\11\ZigBee /
//                          Pro\Projects\zstack\Samples\SampleApp\CC2530DB\.. /
//                          \..\..\..\..\Components\stack\zdo\ -I             /
//                          E:\BYSJ\bysj2018\SRC\11\ZigBeePro\Projects\zstack /
//                          \Samples\SampleApp\CC2530DB\..\..\..\..\..\Compon /
//                          ents\zmac\ -I E:\BYSJ\bysj2018\SRC\11\ZigBeePro\P /
//                          rojects\zstack\Samples\SampleApp\CC2530DB\..\..\. /
//                          .\..\..\Components\zmac\f8w\ -Ohz                 /
//                          --require_prototypes                              /
//    List file          =  E:\BYSJ\bysj2018\SRC\11\ZigBeePro\Projects\zstack /
//                          \Samples\SampleApp\CC2530DB\EndDeviceEB\List\Samp /
//                          leApp.s51                                         /
//                                                                            /
//                                                                            /
///////////////////////////////////////////////////////////////////////////////

        NAME SampleApp

        RTMODEL "__SystemLibrary", "CLib"
        RTMODEL "__calling_convention", "xdata_reentrant"
        RTMODEL "__code_model", "banked"
        RTMODEL "__core", "plain"
        RTMODEL "__data_model", "large"
        RTMODEL "__dptr_size", "16"
        RTMODEL "__extended_stack", "disabled"
        RTMODEL "__location_for_constants", "data"
        RTMODEL "__number_of_dptrs", "1"
        RTMODEL "__rt_version", "1"

        RSEG DOVERLAY:DATA:NOROOT(0)
        RSEG IOVERLAY:IDATA:NOROOT(0)
        RSEG ISTACK:IDATA:NOROOT(0)
        RSEG PSTACK:XDATA:NOROOT(0)
        RSEG XSTACK:XDATA:NOROOT(0)

        EXTERN ?ALLOC_XSTACK8
        EXTERN ?BANKED_ENTER_XDATA
        EXTERN ?BANKED_LEAVE_XDATA
        EXTERN ?BDISPATCH
        EXTERN ?BRET
        EXTERN ?DEALLOC_XSTACK8
        EXTERN ?MOVE_LONG8_XDATA_XDATA
        EXTERN ?PUSH_XSTACK_I_ONE
        EXTERN ?PUSH_XSTACK_I_THREE
        EXTERN ?PUSH_XSTACK_I_TWO
        EXTERN ?US_SHR
        EXTERN ?US_SWITCH_DENSE
        EXTERN ?V0
        EXTERN ?XSP
        EXTERN ?XSTACK_DISP0_8
        EXTERN __INIT_XDATA_I
        EXTERN __INIT_XDATA_Z

        PUBLIC ??SampleApp_HandleKeys?relay
        FUNCTION ??SampleApp_HandleKeys?relay,0203H
        PUBLIC ??SampleApp_Init?relay
        FUNCTION ??SampleApp_Init?relay,0203H
        PUBLIC ??SampleApp_MessageMSGCB?relay
        FUNCTION ??SampleApp_MessageMSGCB?relay,0203H
        PUBLIC ??SampleApp_NwkCMDMsgProcessing?relay
        FUNCTION ??SampleApp_NwkCMDMsgProcessing?relay,0203H
        PUBLIC ??SampleApp_NwkP2PMsgProcessing?relay
        FUNCTION ??SampleApp_NwkP2PMsgProcessing?relay,0203H
        PUBLIC ??SampleApp_ProcessEvent?relay
        FUNCTION ??SampleApp_ProcessEvent?relay,0203H
        PUBLIC ??SampleApp_SendFlashMessage?relay
        FUNCTION ??SampleApp_SendFlashMessage?relay,0203H
        PUBLIC ??SampleApp_SendPeriodicMessage?relay
        FUNCTION ??SampleApp_SendPeriodicMessage?relay,0203H
        PUBLIC ??SampleApp_Send_CMD_Message?relay
        FUNCTION ??SampleApp_Send_CMD_Message?relay,0203H
        PUBLIC ??SampleApp_Send_P2P_Message?relay
        FUNCTION ??SampleApp_Send_P2P_Message?relay,0203H
        PUBLIC AppTitle
        PUBLIC SampleAppFlashCounter
        PUBLIC SampleAppPeriodicCounter
        PUBLIC SampleApp_CMD_DstAddr
        PUBLIC SampleApp_ClusterList
        PUBLIC SampleApp_Flash_DstAddr
        PUBLIC SampleApp_Group
        PUBLIC SampleApp_HandleKeys
        FUNCTION SampleApp_HandleKeys,021203H
        ARGFRAME XSTACK, 16, STACK
        ARGFRAME IOVERLAY, 0, STATIC
        ARGFRAME DOVERLAY, 0, STATIC
        LOCFRAME XSTACK, 10, STACK
        PUBLIC SampleApp_Init
        FUNCTION SampleApp_Init,021203H
        ARGFRAME XSTACK, 0, STACK
        LOCFRAME XSTACK, 14, STACK
        PUBLIC SampleApp_MessageMSGCB
        FUNCTION SampleApp_MessageMSGCB,0a1203H
        ARGFRAME XSTACK, 16, STACK
        ARGFRAME IOVERLAY, 0, STATIC
        ARGFRAME DOVERLAY, 0, STATIC
        LOCFRAME XSTACK, 10, STACK
        PUBLIC SampleApp_NwkCMDMsgProcessing
        FUNCTION SampleApp_NwkCMDMsgProcessing,021203H
        ARGFRAME XSTACK, 10, STACK
        ARGFRAME IOVERLAY, 0, STATIC
        ARGFRAME DOVERLAY, 0, STATIC
        LOCFRAME ISTACK, 2, STACK
        PUBLIC SampleApp_NwkP2PMsgProcessing
        FUNCTION SampleApp_NwkP2PMsgProcessing,021203H
        ARGFRAME XSTACK, 10, STACK
        ARGFRAME IOVERLAY, 0, STATIC
        ARGFRAME DOVERLAY, 0, STATIC
        LOCFRAME XSTACK, 14, STACK
        PUBLIC SampleApp_NwkState
        PUBLIC SampleApp_P2P_DstAddr
        PUBLIC SampleApp_Periodic_DstAddr
        PUBLIC SampleApp_ProcessEvent
        FUNCTION SampleApp_ProcessEvent,021203H
        ARGFRAME XSTACK, 0, STACK
        LOCFRAME ISTACK, 2, STACK
        LOCFRAME XSTACK, 16, STACK
        PUBLIC SampleApp_SendFlashMessage
        FUNCTION SampleApp_SendFlashMessage,021203H
        ARGFRAME XSTACK, 10, STACK
        ARGFRAME IOVERLAY, 0, STATIC
        ARGFRAME DOVERLAY, 0, STATIC
        LOCFRAME ISTACK, 1, STACK
        LOCFRAME XSTACK, 22, STACK
        PUBLIC SampleApp_SendPeriodicMessage
        FUNCTION SampleApp_SendPeriodicMessage,021203H
        ARGFRAME XSTACK, 0, STACK
        LOCFRAME XSTACK, 19, STACK
        PUBLIC SampleApp_Send_CMD_Message
        FUNCTION SampleApp_Send_CMD_Message,0a1203H
        ARGFRAME XSTACK, 16, STACK
        ARGFRAME IOVERLAY, 0, STATIC
        ARGFRAME DOVERLAY, 0, STATIC
        LOCFRAME XSTACK, 38, STACK
        PUBLIC SampleApp_Send_P2P_Message
        FUNCTION SampleApp_Send_P2P_Message,021203H
        ARGFRAME XSTACK, 16, STACK
        ARGFRAME IOVERLAY, 0, STATIC
        ARGFRAME DOVERLAY, 0, STATIC
        LOCFRAME ISTACK, 1, STACK
        LOCFRAME XSTACK, 33, STACK
        PUBLIC SampleApp_SimpleDesc
        PUBLIC SampleApp_TaskID
        PUBLIC SampleApp_TransID
        PUBLIC SampleApp_epDesc
        PUBLIC sensorValue
        
        CFI Names cfiNames0
        CFI StackFrame CFA_SP SP IDATA
        CFI StackFrame CFA_PSP16 PSP16 XDATA
        CFI StackFrame CFA_XSP16 XSP16 XDATA
        CFI StaticOverlayFrame CFA_IOVERLAY IOVERLAY
        CFI StaticOverlayFrame CFA_DOVERLAY DOVERLAY
        CFI Resource `PSW.CY`:1, `B.BR0`:1, `B.BR1`:1, `B.BR2`:1, `B.BR3`:1
        CFI Resource `B.BR4`:1, `B.BR5`:1, `B.BR6`:1, `B.BR7`:1, `VB.BR8`:1
        CFI Resource `VB.BR9`:1, `VB.BR10`:1, `VB.BR11`:1, `VB.BR12`:1
        CFI Resource `VB.BR13`:1, `VB.BR14`:1, `VB.BR15`:1, VB:8, B:8, A:8
        CFI Resource PSW:8, DPL0:8, DPH0:8, R0:8, R1:8, R2:8, R3:8, R4:8, R5:8
        CFI Resource R6:8, R7:8, V0:8, V1:8, V2:8, V3:8, V4:8, V5:8, V6:8, V7:8
        CFI Resource V8:8, V9:8, V10:8, V11:8, V12:8, V13:8, V14:8, V15:8, SP:8
        CFI Resource PSPH:8, PSPL:8, PSP16:16, XSPH:8, XSPL:8, XSP16:16
        CFI VirtualResource ?RET:24
        CFI Resource ?BRET_EXT:8
        CFI VirtualResource ?RET_HIGH:8, ?RET_LOW:8
        CFI ResourceParts PSP16 PSPH, PSPL
        CFI ResourceParts XSP16 XSPH, XSPL
        CFI ResourceParts ?RET ?BRET_EXT, ?RET_HIGH, ?RET_LOW
        CFI EndNames cfiNames0
        
        CFI Common cfiCommon0 Using cfiNames0
        CFI CodeAlign 1
        CFI DataAlign -1
        CFI ReturnAddress ?RET CODE
        CFI CFA_DOVERLAY Used
        CFI CFA_IOVERLAY Used
        CFI CFA_SP SP+-3
        CFI CFA_PSP16 PSP16+0
        CFI CFA_XSP16 XSP16+0
        CFI `PSW.CY` SameValue
        CFI `B.BR0` SameValue
        CFI `B.BR1` SameValue
        CFI `B.BR2` SameValue
        CFI `B.BR3` SameValue
        CFI `B.BR4` SameValue
        CFI `B.BR5` SameValue
        CFI `B.BR6` SameValue
        CFI `B.BR7` SameValue
        CFI `VB.BR8` SameValue
        CFI `VB.BR9` SameValue
        CFI `VB.BR10` SameValue
        CFI `VB.BR11` SameValue
        CFI `VB.BR12` SameValue
        CFI `VB.BR13` SameValue
        CFI `VB.BR14` SameValue
        CFI `VB.BR15` SameValue
        CFI VB SameValue
        CFI B Undefined
        CFI A Undefined
        CFI PSW SameValue
        CFI DPL0 SameValue
        CFI DPH0 SameValue
        CFI R0 Undefined
        CFI R1 Undefined
        CFI R2 Undefined
        CFI R3 Undefined
        CFI R4 Undefined
        CFI R5 Undefined
        CFI R6 SameValue
        CFI R7 SameValue
        CFI V0 SameValue
        CFI V1 SameValue
        CFI V2 SameValue
        CFI V3 SameValue
        CFI V4 SameValue
        CFI V5 SameValue
        CFI V6 SameValue
        CFI V7 SameValue
        CFI V8 SameValue
        CFI V9 SameValue
        CFI V10 SameValue
        CFI V11 SameValue
        CFI V12 SameValue
        CFI V13 SameValue
        CFI V14 SameValue
        CFI V15 SameValue
        CFI PSPH Undefined
        CFI PSPL Undefined
        CFI XSPH Undefined
        CFI XSPL Undefined
        CFI ?RET Concat
        CFI ?BRET_EXT Frame(CFA_SP, 3)
        CFI ?RET_HIGH Frame(CFA_SP, 2)
        CFI ?RET_LOW Frame(CFA_SP, 1)
        CFI EndCommon cfiCommon0
        
        
        CFI Common cfiCommon1 Using cfiNames0
        CFI CodeAlign 1
        CFI DataAlign -1
        CFI ReturnAddress ?RET CODE
        CFI CFA_DOVERLAY Used
        CFI CFA_IOVERLAY Used
        CFI CFA_SP SP+-2
        CFI CFA_PSP16 PSP16+0
        CFI CFA_XSP16 XSP16+0
        CFI `PSW.CY` SameValue
        CFI `B.BR0` SameValue
        CFI `B.BR1` SameValue
        CFI `B.BR2` SameValue
        CFI `B.BR3` SameValue
        CFI `B.BR4` SameValue
        CFI `B.BR5` SameValue
        CFI `B.BR6` SameValue
        CFI `B.BR7` SameValue
        CFI `VB.BR8` SameValue
        CFI `VB.BR9` SameValue
        CFI `VB.BR10` SameValue
        CFI `VB.BR11` SameValue
        CFI `VB.BR12` SameValue
        CFI `VB.BR13` SameValue
        CFI `VB.BR14` SameValue
        CFI `VB.BR15` SameValue
        CFI VB SameValue
        CFI B SameValue
        CFI A SameValue
        CFI PSW SameValue
        CFI DPL0 SameValue
        CFI DPH0 SameValue
        CFI R0 SameValue
        CFI R1 SameValue
        CFI R2 SameValue
        CFI R3 SameValue
        CFI R4 SameValue
        CFI R5 SameValue
        CFI R6 SameValue
        CFI R7 SameValue
        CFI V0 SameValue
        CFI V1 SameValue
        CFI V2 SameValue
        CFI V3 SameValue
        CFI V4 SameValue
        CFI V5 SameValue
        CFI V6 SameValue
        CFI V7 SameValue
        CFI V8 SameValue
        CFI V9 SameValue
        CFI V10 SameValue
        CFI V11 SameValue
        CFI V12 SameValue
        CFI V13 SameValue
        CFI V14 SameValue
        CFI V15 SameValue
        CFI PSPH Undefined
        CFI PSPL Undefined
        CFI XSPH Undefined
        CFI XSPL Undefined
        CFI ?RET Concat
        CFI ?BRET_EXT SameValue
        CFI ?RET_HIGH Frame(CFA_SP, 2)
        CFI ?RET_LOW Frame(CFA_SP, 1)
        CFI EndCommon cfiCommon1
        
MT_UartRegisterTaskID SYMBOL "MT_UartRegisterTaskID"
InitDigSensor       SYMBOL "InitDigSensor"
afRegister          SYMBOL "afRegister"
RegisterForKeys     SYMBOL "RegisterForKeys"
osal_memcpy         SYMBOL "osal_memcpy"
aps_AddGroup        SYMBOL "aps_AddGroup"
HalLcdWriteString   SYMBOL "HalLcdWriteString"
osal_msg_receive    SYMBOL "osal_msg_receive"
osal_start_timerEx  SYMBOL "osal_start_timerEx"
osal_msg_deallocate SYMBOL "osal_msg_deallocate"
ReadGasData         SYMBOL "ReadGasData"
GetHt11Value        SYMBOL "GetHt11Value"
GetLightData        SYMBOL "GetLightData"
osal_rand           SYMBOL "osal_rand"
aps_FindGroup       SYMBOL "aps_FindGroup"
aps_RemoveGroup     SYMBOL "aps_RemoveGroup"
HalLedBlink         SYMBOL "HalLedBlink"
AF_DataRequest      SYMBOL "AF_DataRequest"
NLME_GetShortAddr   SYMBOL "NLME_GetShortAddr"
HalUARTWrite        SYMBOL "HalUARTWrite"
CtrlRelyOne         SYMBOL "CtrlRelyOne"
CtrlRelyTwo         SYMBOL "CtrlRelyTwo"
CtrlRelyThree       SYMBOL "CtrlRelyThree"
??AF_DataRequest?relay SYMBOL "?relay", AF_DataRequest
??CtrlRelyOne?relay SYMBOL "?relay", CtrlRelyOne
??CtrlRelyThree?relay SYMBOL "?relay", CtrlRelyThree
??CtrlRelyTwo?relay SYMBOL "?relay", CtrlRelyTwo
??GetHt11Value?relay SYMBOL "?relay", GetHt11Value
??GetLightData?relay SYMBOL "?relay", GetLightData
??HalLcdWriteString?relay SYMBOL "?relay", HalLcdWriteString
??HalLedBlink?relay SYMBOL "?relay", HalLedBlink
??HalUARTWrite?relay SYMBOL "?relay", HalUARTWrite
??InitDigSensor?relay SYMBOL "?relay", InitDigSensor
??MT_UartRegisterTaskID?relay SYMBOL "?relay", MT_UartRegisterTaskID
??NLME_GetShortAddr?relay SYMBOL "?relay", NLME_GetShortAddr
??ReadGasData?relay SYMBOL "?relay", ReadGasData
??RegisterForKeys?relay SYMBOL "?relay", RegisterForKeys
??afRegister?relay  SYMBOL "?relay", afRegister
??aps_AddGroup?relay SYMBOL "?relay", aps_AddGroup
??aps_FindGroup?relay SYMBOL "?relay", aps_FindGroup
??aps_RemoveGroup?relay SYMBOL "?relay", aps_RemoveGroup
??osal_memcpy?relay SYMBOL "?relay", osal_memcpy
??osal_msg_deallocate?relay SYMBOL "?relay", osal_msg_deallocate
??osal_msg_receive?relay SYMBOL "?relay", osal_msg_receive
??osal_rand?relay   SYMBOL "?relay", osal_rand
??osal_start_timerEx?relay SYMBOL "?relay", osal_start_timerEx
SampleApp_HandleKeys SYMBOL "SampleApp_HandleKeys"
??SampleApp_HandleKeys?relay SYMBOL "?relay", SampleApp_HandleKeys
SampleApp_Init      SYMBOL "SampleApp_Init"
??SampleApp_Init?relay SYMBOL "?relay", SampleApp_Init
SampleApp_MessageMSGCB SYMBOL "SampleApp_MessageMSGCB"
??SampleApp_MessageMSGCB?relay SYMBOL "?relay", SampleApp_MessageMSGCB
SampleApp_NwkCMDMsgProcessing SYMBOL "SampleApp_NwkCMDMsgProcessing"
??SampleApp_NwkCMDMsgProcessing?relay SYMBOL "?relay", SampleApp_NwkCMDMsgProcessing
SampleApp_NwkP2PMsgProcessing SYMBOL "SampleApp_NwkP2PMsgProcessing"
??SampleApp_NwkP2PMsgProcessing?relay SYMBOL "?relay", SampleApp_NwkP2PMsgProcessing
SampleApp_ProcessEvent SYMBOL "SampleApp_ProcessEvent"
??SampleApp_ProcessEvent?relay SYMBOL "?relay", SampleApp_ProcessEvent
SampleApp_SendFlashMessage SYMBOL "SampleApp_SendFlashMessage"
??SampleApp_SendFlashMessage?relay SYMBOL "?relay", SampleApp_SendFlashMessage
SampleApp_SendPeriodicMessage SYMBOL "SampleApp_SendPeriodicMessage"
??SampleApp_SendPeriodicMessage?relay SYMBOL "?relay", SampleApp_SendPeriodicMessage
SampleApp_Send_CMD_Message SYMBOL "SampleApp_Send_CMD_Message"
??SampleApp_Send_CMD_Message?relay SYMBOL "?relay", SampleApp_Send_CMD_Message
SampleApp_Send_P2P_Message SYMBOL "SampleApp_Send_P2P_Message"
??SampleApp_Send_P2P_Message?relay SYMBOL "?relay", SampleApp_Send_P2P_Message

        EXTERN MT_UartRegisterTaskID
        FUNCTION MT_UartRegisterTaskID,0202H
        ARGFRAME ISTACK, 0, STACK
        ARGFRAME PSTACK, 0, STACK
        ARGFRAME XSTACK, 11, STACK
        ARGFRAME IOVERLAY, 0, STATIC
        ARGFRAME DOVERLAY, 0, STATIC
        EXTERN InitDigSensor
        FUNCTION InitDigSensor,0202H
        ARGFRAME ISTACK, 0, STACK
        ARGFRAME PSTACK, 0, STACK
        ARGFRAME XSTACK, 11, STACK
        ARGFRAME IOVERLAY, 0, STATIC
        ARGFRAME DOVERLAY, 0, STATIC
        EXTERN afRegister
        FUNCTION afRegister,0202H
        ARGFRAME ISTACK, 0, STACK
        ARGFRAME PSTACK, 0, STACK
        ARGFRAME XSTACK, 11, STACK
        ARGFRAME IOVERLAY, 0, STATIC
        ARGFRAME DOVERLAY, 0, STATIC
        EXTERN RegisterForKeys
        FUNCTION RegisterForKeys,0202H
        ARGFRAME ISTACK, 0, STACK
        ARGFRAME PSTACK, 0, STACK
        ARGFRAME XSTACK, 11, STACK
        ARGFRAME IOVERLAY, 0, STATIC
        ARGFRAME DOVERLAY, 0, STATIC
        EXTERN osal_memcpy
        FUNCTION osal_memcpy,0202H
        ARGFRAME ISTACK, 0, STACK
        ARGFRAME PSTACK, 0, STACK
        ARGFRAME XSTACK, 32, STACK
        ARGFRAME IOVERLAY, 0, STATIC
        ARGFRAME DOVERLAY, 0, STATIC
        EXTERN aps_AddGroup
        FUNCTION aps_AddGroup,0202H
        ARGFRAME ISTACK, 0, STACK
        ARGFRAME PSTACK, 0, STACK
        ARGFRAME XSTACK, 11, STACK
        ARGFRAME IOVERLAY, 0, STATIC
        ARGFRAME DOVERLAY, 0, STATIC
        EXTERN HalLcdWriteString
        FUNCTION HalLcdWriteString,0202H
        ARGFRAME ISTACK, 0, STACK
        ARGFRAME PSTACK, 0, STACK
        ARGFRAME XSTACK, 11, STACK
        ARGFRAME IOVERLAY, 0, STATIC
        ARGFRAME DOVERLAY, 0, STATIC
        EXTERN osal_msg_receive
        FUNCTION osal_msg_receive,0202H
        ARGFRAME ISTACK, 0, STACK
        ARGFRAME PSTACK, 0, STACK
        ARGFRAME XSTACK, 16, STACK
        ARGFRAME IOVERLAY, 0, STATIC
        ARGFRAME DOVERLAY, 0, STATIC
        EXTERN osal_start_timerEx
        FUNCTION osal_start_timerEx,0202H
        ARGFRAME ISTACK, 0, STACK
        ARGFRAME PSTACK, 0, STACK
        ARGFRAME XSTACK, 16, STACK
        ARGFRAME IOVERLAY, 0, STATIC
        ARGFRAME DOVERLAY, 0, STATIC
        EXTERN osal_msg_deallocate
        FUNCTION osal_msg_deallocate,0202H
        ARGFRAME ISTACK, 0, STACK
        ARGFRAME PSTACK, 0, STACK
        ARGFRAME XSTACK, 16, STACK
        ARGFRAME IOVERLAY, 0, STATIC
        ARGFRAME DOVERLAY, 0, STATIC
        EXTERN ReadGasData
        FUNCTION ReadGasData,0202H
        ARGFRAME ISTACK, 0, STACK
        ARGFRAME PSTACK, 0, STACK
        ARGFRAME XSTACK, 16, STACK
        ARGFRAME IOVERLAY, 0, STATIC
        ARGFRAME DOVERLAY, 0, STATIC
        EXTERN GetHt11Value
        FUNCTION GetHt11Value,0202H
        ARGFRAME ISTACK, 0, STACK
        ARGFRAME PSTACK, 0, STACK
        ARGFRAME XSTACK, 16, STACK
        ARGFRAME IOVERLAY, 0, STATIC
        ARGFRAME DOVERLAY, 0, STATIC
        EXTERN GetLightData
        FUNCTION GetLightData,0202H
        ARGFRAME ISTACK, 0, STACK
        ARGFRAME PSTACK, 0, STACK
        ARGFRAME XSTACK, 16, STACK
        ARGFRAME IOVERLAY, 0, STATIC
        ARGFRAME DOVERLAY, 0, STATIC
        EXTERN osal_rand
        FUNCTION osal_rand,0202H
        ARGFRAME ISTACK, 0, STACK
        ARGFRAME PSTACK, 0, STACK
        ARGFRAME XSTACK, 16, STACK
        ARGFRAME IOVERLAY, 0, STATIC
        ARGFRAME DOVERLAY, 0, STATIC
        EXTERN aps_FindGroup
        FUNCTION aps_FindGroup,0202H
        ARGFRAME ISTACK, 0, STACK
        ARGFRAME PSTACK, 0, STACK
        ARGFRAME XSTACK, 10, STACK
        ARGFRAME IOVERLAY, 0, STATIC
        ARGFRAME DOVERLAY, 0, STATIC
        EXTERN aps_RemoveGroup
        FUNCTION aps_RemoveGroup,0202H
        ARGFRAME ISTACK, 0, STACK
        ARGFRAME PSTACK, 0, STACK
        ARGFRAME XSTACK, 10, STACK
        ARGFRAME IOVERLAY, 0, STATIC
        ARGFRAME DOVERLAY, 0, STATIC
        EXTERN HalLedBlink
        FUNCTION HalLedBlink,0202H
        ARGFRAME ISTACK, 0, STACK
        ARGFRAME PSTACK, 0, STACK
        ARGFRAME XSTACK, 10, STACK
        ARGFRAME IOVERLAY, 0, STATIC
        ARGFRAME DOVERLAY, 0, STATIC
        EXTERN AF_DataRequest
        FUNCTION AF_DataRequest,0202H
        ARGFRAME ISTACK, 0, STACK
        ARGFRAME PSTACK, 0, STACK
        ARGFRAME XSTACK, 38, STACK
        ARGFRAME IOVERLAY, 0, STATIC
        ARGFRAME DOVERLAY, 0, STATIC
        EXTERN NLME_GetShortAddr
        FUNCTION NLME_GetShortAddr,0202H
        ARGFRAME ISTACK, 0, STACK
        ARGFRAME PSTACK, 0, STACK
        ARGFRAME XSTACK, 24, STACK
        ARGFRAME IOVERLAY, 0, STATIC
        ARGFRAME DOVERLAY, 0, STATIC
        EXTERN HalUARTWrite
        FUNCTION HalUARTWrite,0202H
        ARGFRAME ISTACK, 0, STACK
        ARGFRAME PSTACK, 0, STACK
        ARGFRAME XSTACK, 11, STACK
        ARGFRAME IOVERLAY, 0, STATIC
        ARGFRAME DOVERLAY, 0, STATIC
        EXTERN CtrlRelyOne
        FUNCTION CtrlRelyOne,0202H
        ARGFRAME ISTACK, 2, STACK
        ARGFRAME PSTACK, 0, STACK
        ARGFRAME XSTACK, 0, STACK
        ARGFRAME IOVERLAY, 0, STATIC
        ARGFRAME DOVERLAY, 0, STATIC
        EXTERN CtrlRelyTwo
        FUNCTION CtrlRelyTwo,0202H
        ARGFRAME ISTACK, 2, STACK
        ARGFRAME PSTACK, 0, STACK
        ARGFRAME XSTACK, 0, STACK
        ARGFRAME IOVERLAY, 0, STATIC
        ARGFRAME DOVERLAY, 0, STATIC
        EXTERN CtrlRelyThree
        FUNCTION CtrlRelyThree,0202H
        ARGFRAME ISTACK, 2, STACK
        ARGFRAME PSTACK, 0, STACK
        ARGFRAME XSTACK, 0, STACK
        ARGFRAME IOVERLAY, 0, STATIC
        ARGFRAME DOVERLAY, 0, STATIC
        EXTERN ??AF_DataRequest?relay
        FUNCTION ??AF_DataRequest?relay,00H
        EXTERN ??CtrlRelyOne?relay
        FUNCTION ??CtrlRelyOne?relay,00H
        EXTERN ??CtrlRelyThree?relay
        FUNCTION ??CtrlRelyThree?relay,00H
        EXTERN ??CtrlRelyTwo?relay
        FUNCTION ??CtrlRelyTwo?relay,00H
        EXTERN ??GetHt11Value?relay
        FUNCTION ??GetHt11Value?relay,00H
        EXTERN ??GetLightData?relay
        FUNCTION ??GetLightData?relay,00H
        EXTERN ??HalLcdWriteString?relay
        FUNCTION ??HalLcdWriteString?relay,00H
        EXTERN ??HalLedBlink?relay
        FUNCTION ??HalLedBlink?relay,00H
        EXTERN ??HalUARTWrite?relay
        FUNCTION ??HalUARTWrite?relay,00H
        EXTERN ??InitDigSensor?relay
        FUNCTION ??InitDigSensor?relay,00H
        EXTERN ??MT_UartRegisterTaskID?relay
        FUNCTION ??MT_UartRegisterTaskID?relay,00H
        EXTERN ??NLME_GetShortAddr?relay
        FUNCTION ??NLME_GetShortAddr?relay,00H
        EXTERN ??ReadGasData?relay
        FUNCTION ??ReadGasData?relay,00H
        EXTERN ??RegisterForKeys?relay
        FUNCTION ??RegisterForKeys?relay,00H
        EXTERN ??afRegister?relay
        FUNCTION ??afRegister?relay,00H
        EXTERN ??aps_AddGroup?relay
        FUNCTION ??aps_AddGroup?relay,00H
        EXTERN ??aps_FindGroup?relay
        FUNCTION ??aps_FindGroup?relay,00H
        EXTERN ??aps_RemoveGroup?relay
        FUNCTION ??aps_RemoveGroup?relay,00H
        EXTERN ??osal_memcpy?relay
        FUNCTION ??osal_memcpy?relay,00H
        EXTERN ??osal_msg_deallocate?relay
        FUNCTION ??osal_msg_deallocate?relay,00H
        EXTERN ??osal_msg_receive?relay
        FUNCTION ??osal_msg_receive?relay,00H
        EXTERN ??osal_rand?relay
        FUNCTION ??osal_rand?relay,00H
        EXTERN ??osal_start_timerEx?relay
        FUNCTION ??osal_start_timerEx?relay,00H
        EXTERN _NIB
        EXTERN humi
        EXTERN relay_one_value
        EXTERN relay_two_value
        EXTERN temp

// E:\BYSJ\bysj2018\SRC\11\ZigBeePro\Projects\zstack\Samples\SampleApp\Source\SampleApp.c
//    1 #include "OSAL.h"
//    2 #include "ZGlobals.h"
//    3 #include "AF.h"
//    4 #include "aps_groups.h"
//    5 #include "ZDApp.h"
//    6 
//    7 #include "SampleApp.h"
//    8 #include "SampleAppHw.h"
//    9 
//   10 #include "OnBoard.h"
//   11 
//   12 /* HAL */
//   13 #include "hal_lcd.h"
//   14 #include "hal_led.h"
//   15 #include "hal_key.h"
//   16 #include "MT_UART.h"
//   17 #include "MT_APP.h"
//   18 #include "MT.h"
//   19 #include "DHT11.h"
//   20 #include "hal_adc.h"
//   21 
//   22 #include "adc_sensor.h"
//   23 #include "dig_sensor.h"
//   24 #include "agreement.h"
//   25 //#include "Array_list.h"
//   26 
//   27 /*********************************************************************
//   28  * MACROS
//   29  */
//   30 
//   31 /*********************************************************************
//   32  * CONSTANTS
//   33  */
//   34 
//   35 /*********************************************************************
//   36  * TYPEDEFS
//   37  */
//   38 
//   39 /*********************************************************************
//   40  * GLOBAL VARIABLES
//   41  */

        RSEG XDATA_I:XDATA:NOROOT(0)
//   42 uint8 AppTitle[] = "ALD2530 DHT11"; //应用程序名称
AppTitle:
        DATA8
        DS 14
        REQUIRE `?<Initializer for AppTitle>`
        REQUIRE __INIT_XDATA_I
//   43 
//   44 // This list should be filled with Application specific Cluster IDs.

        RSEG XDATA_ROM_C:CONST:REORDER:NOROOT(0)
        DATA8
//   45 const cId_t SampleApp_ClusterList[SAMPLEAPP_MAX_CLUSTERS] =
SampleApp_ClusterList:
        DATA16
        DW 1
        DW 2
        DW 3
        DW 4
//   46 {
//   47   SAMPLEAPP_PERIODIC_CLUSTERID,
//   48   SAMPLEAPP_FLASH_CLUSTERID,
//   49   SAMPLEAPP_P2P_CLUSTERID,
//   50   SAMPLEAPP_CMD_CLUSTERID
//   51 };
//   52 

        RSEG XDATA_ROM_C:CONST:REORDER:NOROOT(0)
        DATA8
//   53 const SimpleDescriptionFormat_t SampleApp_SimpleDesc =
SampleApp_SimpleDesc:
        DB 20
        DATA16
        DW 3848
        DW 1
        DATA8
        DB 0
        DB 4
        DATA16
        DW SampleApp_ClusterList
        DATA8
        DB 4
        DATA16
        DW SampleApp_ClusterList
//   54 {
//   55   SAMPLEAPP_ENDPOINT,              //  int Endpoint;
//   56   SAMPLEAPP_PROFID,                //  uint16 AppProfId[2];
//   57   SAMPLEAPP_DEVICEID,              //  uint16 AppDeviceId[2];
//   58   SAMPLEAPP_DEVICE_VERSION,        //  int   AppDevVer:4;
//   59   SAMPLEAPP_FLAGS,                 //  int   AppFlags:4;
//   60   SAMPLEAPP_MAX_CLUSTERS,          //  uint8  AppNumInClusters;
//   61   (cId_t *)SampleApp_ClusterList,  //  uint8 *pAppInClusterList;
//   62   SAMPLEAPP_MAX_CLUSTERS,          //  uint8  AppNumInClusters;
//   63   (cId_t *)SampleApp_ClusterList   //  uint8 *pAppInClusterList;
//   64 };
//   65 
//   66 // This is the Endpoint/Interface description.  It is defined here, but
//   67 // filled-in in SampleApp_Init().  Another way to go would be to fill
//   68 // in the structure here and make it a "const" (in code space).  The
//   69 // way it's defined in this sample app it is define in RAM.

        RSEG XDATA_Z:XDATA:NOROOT(0)
        DATA8
//   70 endPointDesc_t SampleApp_epDesc;
SampleApp_epDesc:
        DS 6
        REQUIRE __INIT_XDATA_Z
//   71 
//   72 /*********************************************************************
//   73  * EXTERNAL VARIABLES
//   74  */
//   75 
//   76 /*********************************************************************
//   77  * EXTERNAL FUNCTIONS
//   78  */
//   79 
//   80 /*********************************************************************
//   81  * LOCAL VARIABLES
//   82  */

        RSEG XDATA_Z:XDATA:NOROOT(0)
        DATA8
//   83 uint8 SampleApp_TaskID;   // Task ID for internal task/event processing
SampleApp_TaskID:
        DS 1
        REQUIRE __INIT_XDATA_Z
//   84                           // This variable will be received when
//   85                           // SampleApp_Init() is called.

        RSEG XDATA_Z:XDATA:NOROOT(0)
        DATA8
//   86 devStates_t SampleApp_NwkState;
SampleApp_NwkState:
        DS 1
        REQUIRE __INIT_XDATA_Z
//   87 

        RSEG XDATA_Z:XDATA:NOROOT(0)
        DATA8
//   88 uint8 SampleApp_TransID;  // This is the unique message ID (counter)
SampleApp_TransID:
        DS 1
        REQUIRE __INIT_XDATA_Z
//   89 

        RSEG XDATA_Z:XDATA:NOROOT(0)
        DATA8
//   90 afAddrType_t SampleApp_Periodic_DstAddr; //广播
SampleApp_Periodic_DstAddr:
        DS 12
        REQUIRE __INIT_XDATA_Z

        RSEG XDATA_Z:XDATA:NOROOT(0)
        DATA8
//   91 afAddrType_t SampleApp_Flash_DstAddr;    //组播
SampleApp_Flash_DstAddr:
        DS 12
        REQUIRE __INIT_XDATA_Z

        RSEG XDATA_Z:XDATA:NOROOT(0)
        DATA8
//   92 afAddrType_t SampleApp_P2P_DstAddr;      //点播
SampleApp_P2P_DstAddr:
        DS 12
        REQUIRE __INIT_XDATA_Z

        RSEG XDATA_Z:XDATA:NOROOT(0)
        DATA8
//   93 afAddrType_t SampleApp_CMD_DstAddr;      //下发命令
SampleApp_CMD_DstAddr:
        DS 12
        REQUIRE __INIT_XDATA_Z
//   94 

        RSEG XDATA_Z:XDATA:NOROOT(0)
        DATA8
//   95 aps_Group_t SampleApp_Group;
SampleApp_Group:
        DS 18
        REQUIRE __INIT_XDATA_Z
//   96 

        RSEG XDATA_Z:XDATA:NOROOT(0)
        DATA8
//   97 uint8 SampleAppPeriodicCounter = 0;
SampleAppPeriodicCounter:
        DS 1
        REQUIRE __INIT_XDATA_Z

        RSEG XDATA_Z:XDATA:NOROOT(0)
        DATA8
//   98 uint8 SampleAppFlashCounter = 0;
SampleAppFlashCounter:
        DS 1
        REQUIRE __INIT_XDATA_Z

        RSEG XDATA_I:XDATA:NOROOT(0)
//   99 agreementData sensorValue = {DATA_HEADH,DATA_HEADL,NWK_ZIGBEE,0,0,0,0,0,0,SENSOR_DATA_LENGTH,0,0,0,0,0,0,0,DATA_END};
sensorValue:
        DATA8
        DS 18
        REQUIRE `?<Initializer for sensorValue>`
        REQUIRE __INIT_XDATA_I
//  100 //uint8 test_buffer[18] = {0xEE, 0xCC, 0x01, 0x00, 0x00, 0xBB, 0x51, 0x0B, 0x01, 0x44, 0x10, 0x00, 0x00, 0x00, 0x00, 0x00, 0x00, 0xFF};
//  101 
//  102 /*********************************************************************
//  103  * LOCAL FUNCTIONS
//  104  */
//  105 void SampleApp_HandleKeys( uint8 shift, uint8 keys );
//  106 void SampleApp_MessageMSGCB( afIncomingMSGPacket_t *pckt );
//  107 void SampleApp_SendPeriodicMessage(void);
//  108 void SampleApp_SendFlashMessage( uint16 flashTime );
//  109 void SampleApp_Send_P2P_Message(int8 _SensorStyle, int8 _SenserIndex, int8 _SenserPositon, uint8 *_pData);
//  110 void SampleApp_NwkP2PMsgProcessing(afIncomingMSGPacket_t * pkt);
//  111 void SampleApp_NwkCMDMsgProcessing(afIncomingMSGPacket_t * pkt);
//  112 //void Sensor_ProcessMTCB( uint8 *pckt);
//  113 void SampleApp_Send_CMD_Message(afIncomingMSGPacket_t *pckt);
//  114 /*********************************************************************
//  115  * NETWORK LAYER CALLBACKS
//  116  */
//  117 
//  118 /*********************************************************************
//  119  * PUBLIC FUNCTIONS
//  120  */
//  121 
//  122 /*********************************************************************
//  123  * @fn      SampleApp_Init
//  124  *
//  125  * @brief   Initialization function for the Generic App Task.
//  126  *          This is called during initialization and should contain
//  127  *          any application specific initialization (ie. hardware
//  128  *          initialization/setup, table initialization, power up
//  129  *          notificaiton ... ).
//  130  *
//  131  * @param   task_id - the ID assigned by OSAL.  This ID should be
//  132  *                    used to send messages and set timers.
//  133  *
//  134  * @return  none
//  135  */

        RSEG BANKED_CODE:CODE:NOROOT(0)
//  136 void SampleApp_Init( uint8 task_id )
SampleApp_Init:
        CFI Block cfiBlock0 Using cfiCommon0
        CFI Function SampleApp_Init
        CODE
//  137 { 
        FUNCALL SampleApp_Init, MT_UartRegisterTaskID
        LOCFRAME ISTACK, 0, STACK
        LOCFRAME PSTACK, 0, STACK
        LOCFRAME XSTACK, 11, STACK
        LOCFRAME IOVERLAY, 0, STATIC
        LOCFRAME DOVERLAY, 0, STATIC
        ARGFRAME ISTACK, 0, STACK
        ARGFRAME PSTACK, 0, STACK
        ARGFRAME XSTACK, 11, STACK
        ARGFRAME IOVERLAY, 0, STATIC
        ARGFRAME DOVERLAY, 0, STATIC
        FUNCALL SampleApp_Init, InitDigSensor
        LOCFRAME ISTACK, 0, STACK
        LOCFRAME PSTACK, 0, STACK
        LOCFRAME XSTACK, 11, STACK
        LOCFRAME IOVERLAY, 0, STATIC
        LOCFRAME DOVERLAY, 0, STATIC
        ARGFRAME ISTACK, 0, STACK
        ARGFRAME PSTACK, 0, STACK
        ARGFRAME XSTACK, 11, STACK
        ARGFRAME IOVERLAY, 0, STATIC
        ARGFRAME DOVERLAY, 0, STATIC
        FUNCALL SampleApp_Init, afRegister
        LOCFRAME ISTACK, 0, STACK
        LOCFRAME PSTACK, 0, STACK
        LOCFRAME XSTACK, 11, STACK
        LOCFRAME IOVERLAY, 0, STATIC
        LOCFRAME DOVERLAY, 0, STATIC
        ARGFRAME ISTACK, 0, STACK
        ARGFRAME PSTACK, 0, STACK
        ARGFRAME XSTACK, 11, STACK
        ARGFRAME IOVERLAY, 0, STATIC
        ARGFRAME DOVERLAY, 0, STATIC
        FUNCALL SampleApp_Init, RegisterForKeys
        LOCFRAME ISTACK, 0, STACK
        LOCFRAME PSTACK, 0, STACK
        LOCFRAME XSTACK, 11, STACK
        LOCFRAME IOVERLAY, 0, STATIC
        LOCFRAME DOVERLAY, 0, STATIC
        ARGFRAME ISTACK, 0, STACK
        ARGFRAME PSTACK, 0, STACK
        ARGFRAME XSTACK, 11, STACK
        ARGFRAME IOVERLAY, 0, STATIC
        ARGFRAME DOVERLAY, 0, STATIC
        FUNCALL SampleApp_Init, osal_memcpy
        LOCFRAME ISTACK, 0, STACK
        LOCFRAME PSTACK, 0, STACK
        LOCFRAME XSTACK, 14, STACK
        LOCFRAME IOVERLAY, 0, STATIC
        LOCFRAME DOVERLAY, 0, STATIC
        ARGFRAME ISTACK, 0, STACK
        ARGFRAME PSTACK, 0, STACK
        ARGFRAME XSTACK, 14, STACK
        ARGFRAME IOVERLAY, 0, STATIC
        ARGFRAME DOVERLAY, 0, STATIC
        FUNCALL SampleApp_Init, aps_AddGroup
        LOCFRAME ISTACK, 0, STACK
        LOCFRAME PSTACK, 0, STACK
        LOCFRAME XSTACK, 11, STACK
        LOCFRAME IOVERLAY, 0, STATIC
        LOCFRAME DOVERLAY, 0, STATIC
        ARGFRAME ISTACK, 0, STACK
        ARGFRAME PSTACK, 0, STACK
        ARGFRAME XSTACK, 11, STACK
        ARGFRAME IOVERLAY, 0, STATIC
        ARGFRAME DOVERLAY, 0, STATIC
        FUNCALL SampleApp_Init, HalLcdWriteString
        LOCFRAME ISTACK, 0, STACK
        LOCFRAME PSTACK, 0, STACK
        LOCFRAME XSTACK, 11, STACK
        LOCFRAME IOVERLAY, 0, STATIC
        LOCFRAME DOVERLAY, 0, STATIC
        ARGFRAME ISTACK, 0, STACK
        ARGFRAME PSTACK, 0, STACK
        ARGFRAME XSTACK, 11, STACK
        ARGFRAME IOVERLAY, 0, STATIC
        ARGFRAME DOVERLAY, 0, STATIC
        MOV     A,#-0xb
        LCALL   ?BANKED_ENTER_XDATA
        CFI DPH0 load(1, XDATA, add(CFA_XSP16, literal(-1)))
        CFI DPL0 load(1, XDATA, add(CFA_XSP16, literal(-2)))
        CFI ?BRET_EXT load(1, XDATA, add(CFA_XSP16, literal(-3)))
        CFI ?RET_HIGH load(1, XDATA, add(CFA_XSP16, literal(-4)))
        CFI ?RET_LOW load(1, XDATA, add(CFA_XSP16, literal(-5)))
        CFI R7 load(1, XDATA, add(CFA_XSP16, literal(-6)))
        CFI V2 load(1, XDATA, add(CFA_XSP16, literal(-7)))
        CFI V1 load(1, XDATA, add(CFA_XSP16, literal(-8)))
        CFI V0 load(1, XDATA, add(CFA_XSP16, literal(-9)))
        CFI VB load(1, XDATA, add(CFA_XSP16, literal(-10)))
        CFI R6 load(1, XDATA, add(CFA_XSP16, literal(-11)))
        CFI CFA_SP SP+0
        CFI CFA_XSP16 add(XSP16, 11)
        ; Saved register size: 11
        ; Auto size: 0
        MOV     A,R1
//  138   SampleApp_TaskID = task_id;
        MOV     DPTR,#SampleApp_TaskID
        MOVX    @DPTR,A
//  139   SampleApp_NwkState = DEV_INIT;
        MOV     DPTR,#SampleApp_NwkState
        MOV     A,#0x1
        MOVX    @DPTR,A
//  140   SampleApp_TransID = 0;
        MOV     DPTR,#SampleApp_TransID
        CLR     A
        MOVX    @DPTR,A
//  141   
//  142   //MT_UartInit();                  //串口初始化
//  143   //MT_UartRegisterTaskID(task_id); //注册串口任务
//  144   MT_UartRegisterTaskID(SampleApp_TaskID);
        ; Setup parameters for call to function MT_UartRegisterTaskID
        LCALL   ??MT_UartRegisterTaskID?relay
//  145   
//  146   //外设初始化
//  147   InitDigSensor();
        ; Setup parameters for call to function InitDigSensor
        LCALL   ??InitDigSensor?relay
//  148   //Array_init(&Galist,&Dev_BasicInf[0] , MAX_DEV_MANAGE_NUM ,Coor_Dev_manage.dev_num);//初始化设备列表
//  149   
//  150   // Device hardware initialization can be added here or in main() (Zmain.c).
//  151   // If the hardware is application specific - add it here.
//  152   // If the hardware is other parts of the device add it in main().
//  153 
//  154  #if defined ( BUILD_ALL_DEVICES )
//  155   // The "Demo" target is setup to have BUILD_ALL_DEVICES and HOLD_AUTO_START
//  156   // We are looking at a jumper (defined in SampleAppHw.c) to be jumpered
//  157   // together - if they are - we will start up a coordinator. Otherwise,
//  158   // the device will start as a router.
//  159   if ( readCoordinatorJumper() )
//  160     zgDeviceLogicalType = ZG_DEVICETYPE_COORDINATOR;
//  161   else
//  162     zgDeviceLogicalType = ZG_DEVICETYPE_ROUTER;
//  163 #endif // BUILD_ALL_DEVICES
//  164 
//  165 #if defined ( HOLD_AUTO_START )
//  166   // HOLD_AUTO_START is a compile option that will surpress ZDApp
//  167   //  from starting the device and wait for the application to
//  168   //  start the device.
//  169   ZDOInitDevice(0);
//  170 #endif
//  171 
//  172   // Setup for the periodic message's destination address
//  173   // Broadcast to everyone
//  174   SampleApp_Periodic_DstAddr.addrMode = (afAddrMode_t)AddrBroadcast;
        MOV     DPTR,#SampleApp_Periodic_DstAddr + 8
        MOV     A,#0xf
        LCALL   ??Subroutine18_0 & 0xFFFF
//  175   SampleApp_Periodic_DstAddr.endPoint = SAMPLEAPP_ENDPOINT;
//  176   SampleApp_Periodic_DstAddr.addr.shortAddr = 0xFFFF;
??CrossCallReturnLabel_36:
        MOV     DPTR,#SampleApp_Periodic_DstAddr
        MOV     A,#-0x1
        MOVX    @DPTR,A
        INC     DPTR
        MOVX    @DPTR,A
//  177 
//  178   // Setup for the flash command's destination address - Group 1
//  179   SampleApp_Flash_DstAddr.addrMode = (afAddrMode_t)afAddrGroup;
        MOV     DPTR,#SampleApp_Flash_DstAddr + 8
        MOV     A,#0x1
        LCALL   ??Subroutine18_0 & 0xFFFF
//  180   SampleApp_Flash_DstAddr.endPoint = SAMPLEAPP_ENDPOINT;
//  181   SampleApp_Flash_DstAddr.addr.shortAddr = SAMPLEAPP_FLASH_GROUP;
??CrossCallReturnLabel_37:
        MOV     DPTR,#SampleApp_Flash_DstAddr
        MOV     A,#0x1
        MOVX    @DPTR,A
        INC     DPTR
        CLR     A
        MOVX    @DPTR,A
//  182   
//  183   SampleApp_P2P_DstAddr.addrMode = (afAddrMode_t)Addr16Bit; //点播 
        LCALL   ?Subroutine5 & 0xFFFF
//  184   SampleApp_P2P_DstAddr.endPoint = SAMPLEAPP_ENDPOINT; 
//  185   SampleApp_P2P_DstAddr.addr.shortAddr = 0x0000;            //发给协调器
??CrossCallReturnLabel_34:
        MOV     DPTR,#SampleApp_P2P_DstAddr
        CLR     A
        MOVX    @DPTR,A
        INC     DPTR
        MOVX    @DPTR,A
//  186 
//  187   // Fill out the endpoint description.
//  188   SampleApp_epDesc.endPoint = SAMPLEAPP_ENDPOINT;
        MOV     DPTR,#SampleApp_epDesc
        MOV     A,#0x14
        MOVX    @DPTR,A
//  189   SampleApp_epDesc.task_id = &SampleApp_TaskID;
        INC     DPTR
        MOV     A,#SampleApp_TaskID & 0xff
        MOVX    @DPTR,A
        INC     DPTR
        MOV     A,#(SampleApp_TaskID >> 8) & 0xff
        MOVX    @DPTR,A
//  190   SampleApp_epDesc.simpleDesc
//  191             = (SimpleDescriptionFormat_t *)&SampleApp_SimpleDesc;
        INC     DPTR
        MOV     A,#SampleApp_SimpleDesc & 0xff
        MOVX    @DPTR,A
        INC     DPTR
        MOV     A,#(SampleApp_SimpleDesc >> 8) & 0xff
        MOVX    @DPTR,A
//  192   SampleApp_epDesc.latencyReq = noLatencyReqs;
        INC     DPTR
        CLR     A
        MOVX    @DPTR,A
//  193 
//  194   // Register the endpoint description with the AF
//  195   afRegister( &SampleApp_epDesc );
        ; Setup parameters for call to function afRegister
        MOV     R2,#SampleApp_epDesc & 0xff
        MOV     R3,#(SampleApp_epDesc >> 8) & 0xff
        LCALL   ??afRegister?relay
//  196 
//  197   // Register for all key events - This app will handle all key events
//  198   RegisterForKeys( SampleApp_TaskID );
        ; Setup parameters for call to function RegisterForKeys
        MOV     DPTR,#SampleApp_TaskID
        MOVX    A,@DPTR
        MOV     R1,A
        LCALL   ??RegisterForKeys?relay
//  199 
//  200   // By default, all devices start out in Group 1
//  201   SampleApp_Group.ID = 0x0001;
        MOV     DPTR,#SampleApp_Group
        MOV     A,#0x1
        MOVX    @DPTR,A
        INC     DPTR
        CLR     A
        MOVX    @DPTR,A
//  202   osal_memcpy( SampleApp_Group.name, "Group 1", 7 );
        ; Setup parameters for call to function osal_memcpy
        MOV     ?V0 + 0,#`?<Constant "Group 1">` & 0xff
        MOV     ?V0 + 1,#(`?<Constant "Group 1">` >> 8) & 0xff
        MOV     ?V0 + 2,A
        MOV     R0,#?V0 + 0
        LCALL   ?PUSH_XSTACK_I_THREE
        CFI CFA_XSP16 add(XSP16, 14)
        MOV     R4,#0x7
        MOV     R5,#0x0
        MOV     R2,#(SampleApp_Group + 2) & 0xff
        MOV     R3,#((SampleApp_Group + 2) >> 8) & 0xff
        LCALL   ??osal_memcpy?relay
        MOV     A,#0x3
        LCALL   ?DEALLOC_XSTACK8
        CFI CFA_XSP16 add(XSP16, 11)
//  203   aps_AddGroup( SAMPLEAPP_ENDPOINT, &SampleApp_Group );
        ; Setup parameters for call to function aps_AddGroup
        MOV     R2,#SampleApp_Group & 0xff
        MOV     R3,#(SampleApp_Group >> 8) & 0xff
        MOV     R1,#0x14
        LCALL   ??aps_AddGroup?relay
//  204   
//  205 #if defined ( LCD_SUPPORTED )
//  206   HalLcdWriteString( "SampleApp", HAL_LCD_LINE_1 );
        ; Setup parameters for call to function HalLcdWriteString
        MOV     R1,#0x0
        MOV     R2,#`?<Constant "SampleApp">` & 0xff
        MOV     R3,#(`?<Constant "SampleApp">` >> 8) & 0xff
        LCALL   ??HalLcdWriteString?relay
        CFI EndBlock cfiBlock0
//  207 #endif
//  208 }
        REQUIRE ?Subroutine0
        ; // Fall through to label ?Subroutine0

        RSEG BANKED_CODE:CODE:NOROOT(0)
?Subroutine0:
        CFI Block cfiBlock1 Using cfiCommon0
        CFI NoFunction
        CFI CFA_SP SP+0
        CFI CFA_XSP16 add(XSP16, 11)
        CFI VB load(1, XDATA, add(CFA_XSP16, literal(-10)))
        CFI DPL0 load(1, XDATA, add(CFA_XSP16, literal(-2)))
        CFI DPH0 load(1, XDATA, add(CFA_XSP16, literal(-1)))
        CFI R6 load(1, XDATA, add(CFA_XSP16, literal(-11)))
        CFI R7 load(1, XDATA, add(CFA_XSP16, literal(-6)))
        CFI V0 load(1, XDATA, add(CFA_XSP16, literal(-9)))
        CFI V1 load(1, XDATA, add(CFA_XSP16, literal(-8)))
        CFI V2 load(1, XDATA, add(CFA_XSP16, literal(-7)))
        CFI ?BRET_EXT load(1, XDATA, add(CFA_XSP16, literal(-3)))
        CFI ?RET_HIGH load(1, XDATA, add(CFA_XSP16, literal(-4)))
        CFI ?RET_LOW load(1, XDATA, add(CFA_XSP16, literal(-5)))
        MOV     R7,#0x3
        LJMP    ?BANKED_LEAVE_XDATA
        CFI EndBlock cfiBlock1
//  209 
//  210 /*********************************************************************
//  211  * @fn      SampleApp_ProcessEvent
//  212  *
//  213  * @brief   Generic Application Task event processor.  This function
//  214  *          is called to process all events for the task.  Events
//  215  *          include timers, messages and any other user defined events.
//  216  *
//  217  * @param   task_id  - The OSAL assigned task ID.
//  218  * @param   events - events to process.  This is a bit map and can
//  219  *                   contain more than one event.
//  220  *
//  221  * @return  none
//  222  */

        RSEG BANKED_CODE:CODE:NOROOT(0)
//  223 uint16 SampleApp_ProcessEvent( uint8 task_id, uint16 events )
SampleApp_ProcessEvent:
        CFI Block cfiBlock2 Using cfiCommon0
        CFI Function SampleApp_ProcessEvent
        CODE
//  224 {
        FUNCALL SampleApp_ProcessEvent, osal_msg_receive
        LOCFRAME ISTACK, 0, STACK
        LOCFRAME PSTACK, 0, STACK
        LOCFRAME XSTACK, 16, STACK
        LOCFRAME IOVERLAY, 0, STATIC
        LOCFRAME DOVERLAY, 0, STATIC
        ARGFRAME ISTACK, 0, STACK
        ARGFRAME PSTACK, 0, STACK
        ARGFRAME XSTACK, 16, STACK
        ARGFRAME IOVERLAY, 0, STATIC
        ARGFRAME DOVERLAY, 0, STATIC
        FUNCALL SampleApp_ProcessEvent, osal_start_timerEx
        LOCFRAME ISTACK, 0, STACK
        LOCFRAME PSTACK, 0, STACK
        LOCFRAME XSTACK, 16, STACK
        LOCFRAME IOVERLAY, 0, STATIC
        LOCFRAME DOVERLAY, 0, STATIC
        ARGFRAME ISTACK, 0, STACK
        ARGFRAME PSTACK, 0, STACK
        ARGFRAME XSTACK, 16, STACK
        ARGFRAME IOVERLAY, 0, STATIC
        ARGFRAME DOVERLAY, 0, STATIC
        FUNCALL SampleApp_ProcessEvent, osal_msg_deallocate
        LOCFRAME ISTACK, 0, STACK
        LOCFRAME PSTACK, 0, STACK
        LOCFRAME XSTACK, 16, STACK
        LOCFRAME IOVERLAY, 0, STATIC
        LOCFRAME DOVERLAY, 0, STATIC
        ARGFRAME ISTACK, 0, STACK
        ARGFRAME PSTACK, 0, STACK
        ARGFRAME XSTACK, 16, STACK
        ARGFRAME IOVERLAY, 0, STATIC
        ARGFRAME DOVERLAY, 0, STATIC
        FUNCALL SampleApp_ProcessEvent, osal_msg_receive
        LOCFRAME ISTACK, 0, STACK
        LOCFRAME PSTACK, 0, STACK
        LOCFRAME XSTACK, 16, STACK
        LOCFRAME IOVERLAY, 0, STATIC
        LOCFRAME DOVERLAY, 0, STATIC
        ARGFRAME ISTACK, 0, STACK
        ARGFRAME PSTACK, 0, STACK
        ARGFRAME XSTACK, 16, STACK
        ARGFRAME IOVERLAY, 0, STATIC
        ARGFRAME DOVERLAY, 0, STATIC
        FUNCALL SampleApp_ProcessEvent, SampleApp_HandleKeys
        LOCFRAME ISTACK, 0, STACK
        LOCFRAME PSTACK, 0, STACK
        LOCFRAME XSTACK, 16, STACK
        LOCFRAME IOVERLAY, 0, STATIC
        LOCFRAME DOVERLAY, 0, STATIC
        ARGFRAME ISTACK, 0, STACK
        ARGFRAME PSTACK, 0, STACK
        ARGFRAME XSTACK, 16, STACK
        ARGFRAME IOVERLAY, 0, STATIC
        ARGFRAME DOVERLAY, 0, STATIC
        FUNCALL SampleApp_ProcessEvent, SampleApp_MessageMSGCB
        LOCFRAME ISTACK, 0, STACK
        LOCFRAME PSTACK, 0, STACK
        LOCFRAME XSTACK, 16, STACK
        LOCFRAME IOVERLAY, 0, STATIC
        LOCFRAME DOVERLAY, 0, STATIC
        ARGFRAME ISTACK, 0, STACK
        ARGFRAME PSTACK, 0, STACK
        ARGFRAME XSTACK, 16, STACK
        ARGFRAME IOVERLAY, 0, STATIC
        ARGFRAME DOVERLAY, 0, STATIC
        FUNCALL SampleApp_ProcessEvent, SampleApp_Send_CMD_Message
        LOCFRAME ISTACK, 0, STACK
        LOCFRAME PSTACK, 0, STACK
        LOCFRAME XSTACK, 16, STACK
        LOCFRAME IOVERLAY, 0, STATIC
        LOCFRAME DOVERLAY, 0, STATIC
        ARGFRAME ISTACK, 0, STACK
        ARGFRAME PSTACK, 0, STACK
        ARGFRAME XSTACK, 16, STACK
        ARGFRAME IOVERLAY, 0, STATIC
        ARGFRAME DOVERLAY, 0, STATIC
        FUNCALL SampleApp_ProcessEvent, ReadGasData
        LOCFRAME ISTACK, 0, STACK
        LOCFRAME PSTACK, 0, STACK
        LOCFRAME XSTACK, 16, STACK
        LOCFRAME IOVERLAY, 0, STATIC
        LOCFRAME DOVERLAY, 0, STATIC
        ARGFRAME ISTACK, 0, STACK
        ARGFRAME PSTACK, 0, STACK
        ARGFRAME XSTACK, 16, STACK
        ARGFRAME IOVERLAY, 0, STATIC
        ARGFRAME DOVERLAY, 0, STATIC
        FUNCALL SampleApp_ProcessEvent, SampleApp_Send_P2P_Message
        LOCFRAME ISTACK, 0, STACK
        LOCFRAME PSTACK, 0, STACK
        LOCFRAME XSTACK, 16, STACK
        LOCFRAME IOVERLAY, 0, STATIC
        LOCFRAME DOVERLAY, 0, STATIC
        ARGFRAME ISTACK, 0, STACK
        ARGFRAME PSTACK, 0, STACK
        ARGFRAME XSTACK, 16, STACK
        ARGFRAME IOVERLAY, 0, STATIC
        ARGFRAME DOVERLAY, 0, STATIC
        FUNCALL SampleApp_ProcessEvent, GetHt11Value
        LOCFRAME ISTACK, 0, STACK
        LOCFRAME PSTACK, 0, STACK
        LOCFRAME XSTACK, 16, STACK
        LOCFRAME IOVERLAY, 0, STATIC
        LOCFRAME DOVERLAY, 0, STATIC
        ARGFRAME ISTACK, 0, STACK
        ARGFRAME PSTACK, 0, STACK
        ARGFRAME XSTACK, 16, STACK
        ARGFRAME IOVERLAY, 0, STATIC
        ARGFRAME DOVERLAY, 0, STATIC
        FUNCALL SampleApp_ProcessEvent, SampleApp_Send_P2P_Message
        LOCFRAME ISTACK, 0, STACK
        LOCFRAME PSTACK, 0, STACK
        LOCFRAME XSTACK, 16, STACK
        LOCFRAME IOVERLAY, 0, STATIC
        LOCFRAME DOVERLAY, 0, STATIC
        ARGFRAME ISTACK, 0, STACK
        ARGFRAME PSTACK, 0, STACK
        ARGFRAME XSTACK, 16, STACK
        ARGFRAME IOVERLAY, 0, STATIC
        ARGFRAME DOVERLAY, 0, STATIC
        FUNCALL SampleApp_ProcessEvent, GetLightData
        LOCFRAME ISTACK, 0, STACK
        LOCFRAME PSTACK, 0, STACK
        LOCFRAME XSTACK, 16, STACK
        LOCFRAME IOVERLAY, 0, STATIC
        LOCFRAME DOVERLAY, 0, STATIC
        ARGFRAME ISTACK, 0, STACK
        ARGFRAME PSTACK, 0, STACK
        ARGFRAME XSTACK, 16, STACK
        ARGFRAME IOVERLAY, 0, STATIC
        ARGFRAME DOVERLAY, 0, STATIC
        FUNCALL SampleApp_ProcessEvent, SampleApp_Send_P2P_Message
        LOCFRAME ISTACK, 0, STACK
        LOCFRAME PSTACK, 0, STACK
        LOCFRAME XSTACK, 16, STACK
        LOCFRAME IOVERLAY, 0, STATIC
        LOCFRAME DOVERLAY, 0, STATIC
        ARGFRAME ISTACK, 0, STACK
        ARGFRAME PSTACK, 0, STACK
        ARGFRAME XSTACK, 16, STACK
        ARGFRAME IOVERLAY, 0, STATIC
        ARGFRAME DOVERLAY, 0, STATIC
        FUNCALL SampleApp_ProcessEvent, SampleApp_Send_P2P_Message
        LOCFRAME ISTACK, 0, STACK
        LOCFRAME PSTACK, 0, STACK
        LOCFRAME XSTACK, 16, STACK
        LOCFRAME IOVERLAY, 0, STATIC
        LOCFRAME DOVERLAY, 0, STATIC
        ARGFRAME ISTACK, 0, STACK
        ARGFRAME PSTACK, 0, STACK
        ARGFRAME XSTACK, 16, STACK
        ARGFRAME IOVERLAY, 0, STATIC
        ARGFRAME DOVERLAY, 0, STATIC
        FUNCALL SampleApp_ProcessEvent, SampleApp_Send_P2P_Message
        LOCFRAME ISTACK, 0, STACK
        LOCFRAME PSTACK, 0, STACK
        LOCFRAME XSTACK, 16, STACK
        LOCFRAME IOVERLAY, 0, STATIC
        LOCFRAME DOVERLAY, 0, STATIC
        ARGFRAME ISTACK, 0, STACK
        ARGFRAME PSTACK, 0, STACK
        ARGFRAME XSTACK, 16, STACK
        ARGFRAME IOVERLAY, 0, STATIC
        ARGFRAME DOVERLAY, 0, STATIC
        FUNCALL SampleApp_ProcessEvent, SampleApp_Send_P2P_Message
        LOCFRAME ISTACK, 0, STACK
        LOCFRAME PSTACK, 0, STACK
        LOCFRAME XSTACK, 16, STACK
        LOCFRAME IOVERLAY, 0, STATIC
        LOCFRAME DOVERLAY, 0, STATIC
        ARGFRAME ISTACK, 0, STACK
        ARGFRAME PSTACK, 0, STACK
        ARGFRAME XSTACK, 16, STACK
        ARGFRAME IOVERLAY, 0, STATIC
        ARGFRAME DOVERLAY, 0, STATIC
        FUNCALL SampleApp_ProcessEvent, osal_rand
        LOCFRAME ISTACK, 0, STACK
        LOCFRAME PSTACK, 0, STACK
        LOCFRAME XSTACK, 16, STACK
        LOCFRAME IOVERLAY, 0, STATIC
        LOCFRAME DOVERLAY, 0, STATIC
        ARGFRAME ISTACK, 0, STACK
        ARGFRAME PSTACK, 0, STACK
        ARGFRAME XSTACK, 16, STACK
        ARGFRAME IOVERLAY, 0, STATIC
        ARGFRAME DOVERLAY, 0, STATIC
        FUNCALL SampleApp_ProcessEvent, osal_start_timerEx
        LOCFRAME ISTACK, 0, STACK
        LOCFRAME PSTACK, 0, STACK
        LOCFRAME XSTACK, 16, STACK
        LOCFRAME IOVERLAY, 0, STATIC
        LOCFRAME DOVERLAY, 0, STATIC
        ARGFRAME ISTACK, 0, STACK
        ARGFRAME PSTACK, 0, STACK
        ARGFRAME XSTACK, 16, STACK
        ARGFRAME IOVERLAY, 0, STATIC
        ARGFRAME DOVERLAY, 0, STATIC
        FUNCALL SampleApp_ProcessEvent, osal_rand
        LOCFRAME ISTACK, 0, STACK
        LOCFRAME PSTACK, 0, STACK
        LOCFRAME XSTACK, 16, STACK
        LOCFRAME IOVERLAY, 0, STATIC
        LOCFRAME DOVERLAY, 0, STATIC
        ARGFRAME ISTACK, 0, STACK
        ARGFRAME PSTACK, 0, STACK
        ARGFRAME XSTACK, 16, STACK
        ARGFRAME IOVERLAY, 0, STATIC
        ARGFRAME DOVERLAY, 0, STATIC
        FUNCALL SampleApp_ProcessEvent, osal_start_timerEx
        LOCFRAME ISTACK, 0, STACK
        LOCFRAME PSTACK, 0, STACK
        LOCFRAME XSTACK, 16, STACK
        LOCFRAME IOVERLAY, 0, STATIC
        LOCFRAME DOVERLAY, 0, STATIC
        ARGFRAME ISTACK, 0, STACK
        ARGFRAME PSTACK, 0, STACK
        ARGFRAME XSTACK, 16, STACK
        ARGFRAME IOVERLAY, 0, STATIC
        ARGFRAME DOVERLAY, 0, STATIC
        MOV     A,#-0xc
        LCALL   ?BANKED_ENTER_XDATA
        CFI DPH0 load(1, XDATA, add(CFA_XSP16, literal(-1)))
        CFI DPL0 load(1, XDATA, add(CFA_XSP16, literal(-2)))
        CFI ?BRET_EXT load(1, XDATA, add(CFA_XSP16, literal(-3)))
        CFI ?RET_HIGH load(1, XDATA, add(CFA_XSP16, literal(-4)))
        CFI ?RET_LOW load(1, XDATA, add(CFA_XSP16, literal(-5)))
        CFI R7 load(1, XDATA, add(CFA_XSP16, literal(-6)))
        CFI V3 load(1, XDATA, add(CFA_XSP16, literal(-7)))
        CFI V2 load(1, XDATA, add(CFA_XSP16, literal(-8)))
        CFI V1 load(1, XDATA, add(CFA_XSP16, literal(-9)))
        CFI V0 load(1, XDATA, add(CFA_XSP16, literal(-10)))
        CFI VB load(1, XDATA, add(CFA_XSP16, literal(-11)))
        CFI R6 load(1, XDATA, add(CFA_XSP16, literal(-12)))
        CFI CFA_SP SP+0
        CFI CFA_XSP16 add(XSP16, 12)
        ; Saved register size: 12
        ; Auto size: 4
        MOV     A,#-0x4
        LCALL   ?ALLOC_XSTACK8
        CFI CFA_XSP16 add(XSP16, 16)
        MOV     A,R2
        MOV     R6,A
        MOV     A,R3
        MOV     R7,A
//  225   afIncomingMSGPacket_t *MSGpkt;
//  226   
//  227   (void)task_id;  // Intentionally unreferenced parameter
//  228   
//  229   uint8 sdata[4] = {0};
        MOV     DPL,?XSP + 0
        MOV     DPH,?XSP + 1
        MOV     R4,DPL
        MOV     R5,DPH
        MOV     DPH,#(`?<Constant {0}>` >> 8) & 0xff
        MOV     DPL,#`?<Constant {0}>` & 0xff
        MOV     A,#0x4
        LCALL   ?MOVE_LONG8_XDATA_XDATA
//  230   uint16 gasvalue = 0;
//  231   
//  232   if ( events & SYS_EVENT_MSG )
        MOV     A,R7
        ANL     A,#0x80
        JZ      ??SampleApp_ProcessEvent_0
//  233   {
//  234     MSGpkt = (afIncomingMSGPacket_t *)osal_msg_receive( SampleApp_TaskID );
        ; Setup parameters for call to function osal_msg_receive
        SJMP    ??SampleApp_ProcessEvent_1
//  235     while ( MSGpkt )
//  236     {
//  237       switch ( MSGpkt->hdr.event )
//  238       {
//  239         // Received when a key is pressed
//  240         case KEY_CHANGE:
//  241           SampleApp_HandleKeys( ((keyChange_t *)MSGpkt)->state, ((keyChange_t *)MSGpkt)->keys );
//  242           break;
//  243 
//  244         // Received when a messages is received (OTA) for this endpoint
//  245         case AF_INCOMING_MSG_CMD:
//  246           SampleApp_MessageMSGCB( MSGpkt );
//  247           break;
//  248 	case CMD_SERIAL_MSG_0: 
//  249           //HalUARTWrite(1, ((mtOSALSerialData_t *)MSGpkt)->msg, 18); 
//  250           SampleApp_Send_CMD_Message(MSGpkt);
//  251           break;
//  252         case CMD_SERIAL_MSG_1:
//  253           //HalUARTWrite(1, sdata, 4); 
//  254           //Sensor_ProcessMTCB( (mtOSALSerialData_t*)MSGpkt );
//  255           break;
//  256         // Received whenever the device changes state in the network
//  257         case ZDO_STATE_CHANGE:
//  258           SampleApp_NwkState = (devStates_t)(MSGpkt->hdr.status);
??SampleApp_ProcessEvent_2:
        INC     DPTR
        MOVX    A,@DPTR
        MOV     DPTR,#SampleApp_NwkState
        MOVX    @DPTR,A
//  259           if ( //(SampleApp_NwkState == DEV_ZB_COORD) ||
//  260                  (SampleApp_NwkState == DEV_ROUTER)
//  261               || (SampleApp_NwkState == DEV_END_DEVICE) )
        XRL     A,#0x7
        JZ      ??SampleApp_ProcessEvent_3
        MOVX    A,@DPTR
        XRL     A,#0x6
        JNZ     ??CrossCallReturnLabel_27
//  262           {
//  263             // Start sending the periodic message in a regular interval.
//  264             osal_start_timerEx( SampleApp_TaskID,
//  265                               SAMPLEAPP_SEND_PERIODIC_MSG_EVT,
//  266                               SAMPLEAPP_SEND_PERIODIC_MSG_TIMEOUT );
??SampleApp_ProcessEvent_3:
        ; Setup parameters for call to function osal_start_timerEx
        MOV     R4,#-0x30
        MOV     R5,#0x7
        LCALL   ?Subroutine11 & 0xFFFF
//  267           }
//  268           else
//  269           {
//  270             // Device is no longer in the network
//  271           }
//  272           break;
//  273 
//  274         default:
//  275           break;
//  276       }
//  277 
//  278       // Release the memory
//  279       osal_msg_deallocate( (uint8 *)MSGpkt );
??CrossCallReturnLabel_27:
        ; Setup parameters for call to function osal_msg_deallocate
        MOV     R2,?V0 + 0
        MOV     R3,?V0 + 1
        LCALL   ??osal_msg_deallocate?relay
//  280 
//  281       // Next - if one is available
//  282       MSGpkt = (afIncomingMSGPacket_t *)osal_msg_receive( SampleApp_TaskID );
        ; Setup parameters for call to function osal_msg_receive
??SampleApp_ProcessEvent_1:
        MOV     DPTR,#SampleApp_TaskID
        MOVX    A,@DPTR
        MOV     R1,A
        LCALL   ??osal_msg_receive?relay
        MOV     ?V0 + 0,R2
        MOV     ?V0 + 1,R3
        MOV     A,?V0 + 0
        ORL     A,?V0 + 1
        JZ      ??SampleApp_ProcessEvent_4
        MOV     DPL,?V0 + 0
        MOV     DPH,?V0 + 1
        MOVX    A,@DPTR
        DEC     A
        JZ      ??SampleApp_ProcessEvent_5
        ADD     A,#-0x19
        JZ      ??SampleApp_ProcessEvent_6
        ADD     A,#0x5a
        JZ      ??SampleApp_ProcessEvent_7
        ADD     A,#-0x11
        JZ      ??SampleApp_ProcessEvent_2
        SJMP    ??CrossCallReturnLabel_27
??SampleApp_ProcessEvent_7:
        ; Setup parameters for call to function SampleApp_HandleKeys
        INC     DPTR
        INC     DPTR
        INC     DPTR
        MOVX    A,@DPTR
        MOV     R2,A
        MOV     DPL,?V0 + 0
        MOV     DPH,?V0 + 1
        INC     DPTR
        INC     DPTR
        MOVX    A,@DPTR
        MOV     R1,A
        LCALL   ??SampleApp_HandleKeys?relay
        SJMP    ??CrossCallReturnLabel_27
??SampleApp_ProcessEvent_6:
        ; Setup parameters for call to function SampleApp_MessageMSGCB
        MOV     R2,?V0 + 0
        MOV     R3,?V0 + 1
        LCALL   ??SampleApp_MessageMSGCB?relay
        SJMP    ??CrossCallReturnLabel_27
??SampleApp_ProcessEvent_5:
        ; Setup parameters for call to function SampleApp_Send_CMD_Message
        MOV     R2,?V0 + 0
        MOV     R3,?V0 + 1
        LCALL   ??SampleApp_Send_CMD_Message?relay
        SJMP    ??CrossCallReturnLabel_27
//  283     }
//  284 
//  285     // return unprocessed events
//  286     return (events ^ SYS_EVENT_MSG);
??SampleApp_ProcessEvent_4:
        MOV     A,R6
        MOV     R2,A
        MOV     A,R7
        XRL     A,#0x80
??SampleApp_ProcessEvent_8:
        MOV     R3,A
        LJMP    ??SampleApp_ProcessEvent_9 & 0xFFFF
//  287   }
//  288 
//  289   // Send a message out - This event is generated by a timer
//  290   //  (setup in SampleApp_Init()).
//  291   if ( events & SAMPLEAPP_SEND_PERIODIC_MSG_EVT )
??SampleApp_ProcessEvent_0:
        MOV     A,R6
        MOV     C,0xE0 /* A   */.0
        JC      $+5
        LJMP    ??SampleApp_ProcessEvent_10 & 0xFFFF
//  292   {
//  293     // Send the periodic message
//  294     //SampleApp_SendPeriodicMessage();
//  295 
//  296 #ifdef DEVICE_MQ2 //烟雾传感器
//  297   gasvalue = ReadGasData();
        ; Setup parameters for call to function ReadGasData
        LCALL   ??ReadGasData?relay
//  298   sdata[0] = 0;
        MOV     DPL,?XSP + 0
        MOV     DPH,?XSP + 1
        CLR     A
        MOVX    @DPTR,A
//  299   sdata[1] = 0;
        INC     A
        LCALL   ?XSTACK_DISP0_8
        CLR     A
        MOVX    @DPTR,A
//  300   sdata[2] = gasvalue>>8;//高位
        MOV     A,#0x2
        LCALL   ?XSTACK_DISP0_8
        MOV     A,R3
        MOVX    @DPTR,A
//  301   sdata[3] = gasvalue;//低位
        MOV     A,#0x3
        LCALL   ?XSTACK_DISP0_8
        MOV     A,R2
        LCALL   ?Subroutine2 & 0xFFFF
//  302   SampleApp_Send_P2P_Message(DEVICE_MQ2, 0, 0, sdata);
??CrossCallReturnLabel_0:
        MOV     R1,#0xc
        LCALL   ??SampleApp_Send_P2P_Message?relay
//  303 #endif
//  304 #ifdef DEVICE_HT11 //温湿度
//  305   GetHt11Value();
        ; Setup parameters for call to function GetHt11Value
        LCALL   ??GetHt11Value?relay
//  306   sdata[0] = temp>>8;
        MOV     DPL,?XSP + 0
        MOV     DPH,?XSP + 1
        CLR     A
        MOVX    @DPTR,A
//  307   sdata[1] = temp;
        MOV     DPTR,#temp
        MOVX    A,@DPTR
        PUSH    A
        CFI CFA_SP SP+-1
        MOV     A,#0x1
        LCALL   ?XSTACK_DISP0_8
        POP     A
        CFI CFA_SP SP+0
        MOVX    @DPTR,A
//  308   sdata[2] = humi>>8;
        MOV     A,#0x2
        LCALL   ?XSTACK_DISP0_8
        CLR     A
        MOVX    @DPTR,A
//  309   sdata[3] = humi;
        MOV     DPTR,#humi
        MOVX    A,@DPTR
        PUSH    A
        CFI CFA_SP SP+-1
        MOV     A,#0x3
        LCALL   ?XSTACK_DISP0_8
        POP     A
        CFI CFA_SP SP+0
        LCALL   ?Subroutine2 & 0xFFFF
//  310   SampleApp_Send_P2P_Message(DEVICE_HT11, 0, 0, sdata);
??CrossCallReturnLabel_1:
        MOV     R1,#0x4
        LCALL   ?Subroutine7 & 0xFFFF
//  311 #endif
//  312 #ifdef DEVICE_MAN //人体检测
//  313   sdata[0] = 0;
//  314   sdata[1] = 0;
??CrossCallReturnLabel_12:
        LCALL   ?XSTACK_DISP0_8
        CLR     A
        MOVX    @DPTR,A
//  315   sdata[2] = 0;
        MOV     A,#0x2
        LCALL   ?XSTACK_DISP0_8
        CLR     A
        MOVX    @DPTR,A
//  316   sdata[3] = GetLightData();
        ; Setup parameters for call to function GetLightData
        LCALL   ??GetLightData?relay
        MOV     A,#0x3
        LCALL   ?XSTACK_DISP0_8
        MOV     A,R1
        LCALL   ?Subroutine2 & 0xFFFF
//  317   SampleApp_Send_P2P_Message(DEVICE_MAN, 0, 0, sdata);
??CrossCallReturnLabel_2:
        MOV     R1,#0x5
        LCALL   ?Subroutine7 & 0xFFFF
//  318 #endif 
//  319 #ifdef DEVICE_RELAY_PUMP //水泵
//  320   sdata[0] = 0;
//  321   sdata[1] = 0;
??CrossCallReturnLabel_13:
        LCALL   ?XSTACK_DISP0_8
        CLR     A
        MOVX    @DPTR,A
//  322   sdata[2] = 0;
        MOV     A,#0x2
        LCALL   ?XSTACK_DISP0_8
        CLR     A
        MOVX    @DPTR,A
//  323   sdata[3] = relay_one_value;
        MOV     DPTR,#relay_one_value
        MOVX    A,@DPTR
        PUSH    A
        CFI CFA_SP SP+-1
        MOV     A,#0x3
        LCALL   ?XSTACK_DISP0_8
        POP     A
        CFI CFA_SP SP+0
        LCALL   ?Subroutine2 & 0xFFFF
//  324   SampleApp_Send_P2P_Message(DEVICE_RELAY_PUMP, 0, 0, sdata);
??CrossCallReturnLabel_3:
        MOV     R1,#0x13
        LCALL   ?Subroutine7 & 0xFFFF
//  325 #endif    
//  326 #ifdef DEVICE_RELAY_LAMP //灯光
//  327   sdata[0] = 0;
//  328   sdata[1] = 0;
??CrossCallReturnLabel_14:
        LCALL   ?XSTACK_DISP0_8
        CLR     A
        MOVX    @DPTR,A
//  329   sdata[2] = 0;
        MOV     A,#0x2
        LCALL   ?XSTACK_DISP0_8
        CLR     A
        MOVX    @DPTR,A
//  330   sdata[3] = relay_two_value;
        MOV     DPTR,#relay_two_value
        MOVX    A,@DPTR
        PUSH    A
        CFI CFA_SP SP+-1
        MOV     A,#0x3
        LCALL   ?XSTACK_DISP0_8
        POP     A
        CFI CFA_SP SP+0
        LCALL   ?Subroutine2 & 0xFFFF
//  331   SampleApp_Send_P2P_Message(DEVICE_RELAY_LAMP, 0, 0, sdata);
??CrossCallReturnLabel_4:
        MOV     R1,#0x11
        LCALL   ?Subroutine7 & 0xFFFF
//  332 #endif    
//  333 #ifdef DEVICE_RELAY_COLD //制冷
//  334   sdata[0] = 0;
//  335   sdata[1] = 0;
??CrossCallReturnLabel_15:
        LCALL   ?XSTACK_DISP0_8
        CLR     A
        MOVX    @DPTR,A
//  336   sdata[2] = 0;
        MOV     A,#0x2
        LCALL   ?XSTACK_DISP0_8
        CLR     A
        MOVX    @DPTR,A
//  337   sdata[3] = relay_two_value;
        MOV     DPTR,#relay_two_value
        MOVX    A,@DPTR
        PUSH    A
        CFI CFA_SP SP+-1
        MOV     A,#0x3
        LCALL   ?XSTACK_DISP0_8
        POP     A
        CFI CFA_SP SP+0
        LCALL   ?Subroutine2 & 0xFFFF
//  338   SampleApp_Send_P2P_Message(DEVICE_RELAY_COLD, 0, 0, sdata);
??CrossCallReturnLabel_5:
        MOV     R1,#0x16
        LCALL   ??SampleApp_Send_P2P_Message?relay
//  339 #endif  
//  340     // Setup to send message again in normal period (+ a little jitter)
//  341     osal_start_timerEx( SampleApp_TaskID, SAMPLEAPP_SEND_PERIODIC_MSG_EVT,
//  342         (SAMPLEAPP_SEND_PERIODIC_MSG_TIMEOUT + (osal_rand() & 0x00FF)) );
        ; Setup parameters for call to function osal_rand
        LCALL   ??osal_rand?relay
        ; Setup parameters for call to function osal_start_timerEx
        MOV     A,R2
        ADD     A,#-0x30
        MOV     R4,A
        CLR     A
        ADDC    A,#0x7
        MOV     R5,A
        LCALL   ?Subroutine11 & 0xFFFF
//  343 
//  344     // return unprocessed events
//  345     return (events ^ SAMPLEAPP_SEND_PERIODIC_MSG_EVT);
??CrossCallReturnLabel_28:
        MOV     A,R6
        XRL     A,#0x1
??SampleApp_ProcessEvent_11:
        MOV     R2,A
        MOV     A,R7
        LJMP    ??SampleApp_ProcessEvent_8 & 0xFFFF
//  346   }
//  347   
//  348   if(events & SAMPLEAPP_TEST_EVT)
??SampleApp_ProcessEvent_10:
        ANL     A,#0x2
        JZ      ??SampleApp_ProcessEvent_12
//  349   {
//  350     //SampleApp_Send_CMD_Message(test_buffer);
//  351     osal_start_timerEx( SampleApp_TaskID, SAMPLEAPP_TEST_EVT,
//  352     (3000 + (osal_rand() & 0x00FF)) );
        ; Setup parameters for call to function osal_rand
        LCALL   ??osal_rand?relay
        ; Setup parameters for call to function osal_start_timerEx
        MOV     A,R2
        ADD     A,#-0x48
        MOV     R4,A
        CLR     A
        ADDC    A,#0xb
        MOV     R5,A
        MOV     R2,#0x2
        LCALL   ??Subroutine15_0 & 0xFFFF
//  353 
//  354     // return unprocessed events
//  355     return (events ^ SAMPLEAPP_TEST_EVT);
??CrossCallReturnLabel_29:
        MOV     A,R6
        XRL     A,#0x2
        SJMP    ??SampleApp_ProcessEvent_11
//  356   }
//  357 
//  358   // Discard unknown events
//  359   return 0;
??SampleApp_ProcessEvent_12:
        MOV     R2,#0x0
        MOV     R3,#0x0
??SampleApp_ProcessEvent_9:
        MOV     A,#0x4
        LCALL   ?DEALLOC_XSTACK8
        CFI CFA_XSP16 add(XSP16, 12)
        MOV     R7,#0x4
        LJMP    ?BANKED_LEAVE_XDATA
        CFI EndBlock cfiBlock2
//  360 }

        RSEG BANKED_CODE:CODE:NOROOT(0)
?Subroutine11:
        CFI Block cfiCond3 Using cfiCommon0
        CFI NoFunction
        CFI Conditional ??CrossCallReturnLabel_27
        CFI R6 load(1, XDATA, add(CFA_XSP16, literal(-12)))
        CFI VB load(1, XDATA, add(CFA_XSP16, literal(-11)))
        CFI V0 load(1, XDATA, add(CFA_XSP16, literal(-10)))
        CFI V1 load(1, XDATA, add(CFA_XSP16, literal(-9)))
        CFI V2 load(1, XDATA, add(CFA_XSP16, literal(-8)))
        CFI V3 load(1, XDATA, add(CFA_XSP16, literal(-7)))
        CFI R7 load(1, XDATA, add(CFA_XSP16, literal(-6)))
        CFI ?RET_LOW load(1, XDATA, add(CFA_XSP16, literal(-5)))
        CFI ?RET_HIGH load(1, XDATA, add(CFA_XSP16, literal(-4)))
        CFI ?BRET_EXT load(1, XDATA, add(CFA_XSP16, literal(-3)))
        CFI DPL0 load(1, XDATA, add(CFA_XSP16, literal(-2)))
        CFI DPH0 load(1, XDATA, add(CFA_XSP16, literal(-1)))
        CFI CFA_SP SP+0
        CFI CFA_XSP16 add(XSP16, 16)
        CFI Block cfiCond4 Using cfiCommon0
        CFI (cfiCond4) NoFunction
        CFI (cfiCond4) Conditional ??CrossCallReturnLabel_28
        CFI (cfiCond4) R6 load(1, XDATA, add(CFA_XSP16, literal(-12)))
        CFI (cfiCond4) VB load(1, XDATA, add(CFA_XSP16, literal(-11)))
        CFI (cfiCond4) V0 load(1, XDATA, add(CFA_XSP16, literal(-10)))
        CFI (cfiCond4) V1 load(1, XDATA, add(CFA_XSP16, literal(-9)))
        CFI (cfiCond4) V2 load(1, XDATA, add(CFA_XSP16, literal(-8)))
        CFI (cfiCond4) V3 load(1, XDATA, add(CFA_XSP16, literal(-7)))
        CFI (cfiCond4) R7 load(1, XDATA, add(CFA_XSP16, literal(-6)))
        CFI (cfiCond4) ?RET_LOW load(1, XDATA, add(CFA_XSP16, literal(-5)))
        CFI (cfiCond4) ?RET_HIGH load(1, XDATA, add(CFA_XSP16, literal(-4)))
        CFI (cfiCond4) ?BRET_EXT load(1, XDATA, add(CFA_XSP16, literal(-3)))
        CFI (cfiCond4) DPL0 load(1, XDATA, add(CFA_XSP16, literal(-2)))
        CFI (cfiCond4) DPH0 load(1, XDATA, add(CFA_XSP16, literal(-1)))
        CFI (cfiCond4) CFA_SP SP+0
        CFI (cfiCond4) CFA_XSP16 add(XSP16, 16)
        CFI Block cfiPicker5 Using cfiCommon1
        CFI (cfiPicker5) NoFunction
        CFI (cfiPicker5) Picker
        MOV     R2,#0x1
        CFI EndBlock cfiCond3
        CFI EndBlock cfiCond4
        CFI EndBlock cfiPicker5
        REQUIRE ??Subroutine15_0
        ; // Fall through to label ??Subroutine15_0

        RSEG BANKED_CODE:CODE:NOROOT(0)
??Subroutine15_0:
        CFI Block cfiCond6 Using cfiCommon0
        CFI NoFunction
        CFI Conditional ??CrossCallReturnLabel_29
        CFI R6 load(1, XDATA, add(CFA_XSP16, literal(-12)))
        CFI VB load(1, XDATA, add(CFA_XSP16, literal(-11)))
        CFI V0 load(1, XDATA, add(CFA_XSP16, literal(-10)))
        CFI V1 load(1, XDATA, add(CFA_XSP16, literal(-9)))
        CFI V2 load(1, XDATA, add(CFA_XSP16, literal(-8)))
        CFI V3 load(1, XDATA, add(CFA_XSP16, literal(-7)))
        CFI R7 load(1, XDATA, add(CFA_XSP16, literal(-6)))
        CFI ?RET_LOW load(1, XDATA, add(CFA_XSP16, literal(-5)))
        CFI ?RET_HIGH load(1, XDATA, add(CFA_XSP16, literal(-4)))
        CFI ?BRET_EXT load(1, XDATA, add(CFA_XSP16, literal(-3)))
        CFI DPL0 load(1, XDATA, add(CFA_XSP16, literal(-2)))
        CFI DPH0 load(1, XDATA, add(CFA_XSP16, literal(-1)))
        CFI CFA_SP SP+0
        CFI CFA_XSP16 add(XSP16, 16)
        CFI Block cfiCond7 Using cfiCommon0
        CFI (cfiCond7) NoFunction
        CFI (cfiCond7) Conditional ??CrossCallReturnLabel_27
        CFI (cfiCond7) R6 load(1, XDATA, add(CFA_XSP16, literal(-12)))
        CFI (cfiCond7) VB load(1, XDATA, add(CFA_XSP16, literal(-11)))
        CFI (cfiCond7) V0 load(1, XDATA, add(CFA_XSP16, literal(-10)))
        CFI (cfiCond7) V1 load(1, XDATA, add(CFA_XSP16, literal(-9)))
        CFI (cfiCond7) V2 load(1, XDATA, add(CFA_XSP16, literal(-8)))
        CFI (cfiCond7) V3 load(1, XDATA, add(CFA_XSP16, literal(-7)))
        CFI (cfiCond7) R7 load(1, XDATA, add(CFA_XSP16, literal(-6)))
        CFI (cfiCond7) ?RET_LOW load(1, XDATA, add(CFA_XSP16, literal(-5)))
        CFI (cfiCond7) ?RET_HIGH load(1, XDATA, add(CFA_XSP16, literal(-4)))
        CFI (cfiCond7) ?BRET_EXT load(1, XDATA, add(CFA_XSP16, literal(-3)))
        CFI (cfiCond7) DPL0 load(1, XDATA, add(CFA_XSP16, literal(-2)))
        CFI (cfiCond7) DPH0 load(1, XDATA, add(CFA_XSP16, literal(-1)))
        CFI (cfiCond7) CFA_SP SP+0
        CFI (cfiCond7) CFA_XSP16 add(XSP16, 16)
        CFI Block cfiCond8 Using cfiCommon0
        CFI (cfiCond8) NoFunction
        CFI (cfiCond8) Conditional ??CrossCallReturnLabel_28
        CFI (cfiCond8) R6 load(1, XDATA, add(CFA_XSP16, literal(-12)))
        CFI (cfiCond8) VB load(1, XDATA, add(CFA_XSP16, literal(-11)))
        CFI (cfiCond8) V0 load(1, XDATA, add(CFA_XSP16, literal(-10)))
        CFI (cfiCond8) V1 load(1, XDATA, add(CFA_XSP16, literal(-9)))
        CFI (cfiCond8) V2 load(1, XDATA, add(CFA_XSP16, literal(-8)))
        CFI (cfiCond8) V3 load(1, XDATA, add(CFA_XSP16, literal(-7)))
        CFI (cfiCond8) R7 load(1, XDATA, add(CFA_XSP16, literal(-6)))
        CFI (cfiCond8) ?RET_LOW load(1, XDATA, add(CFA_XSP16, literal(-5)))
        CFI (cfiCond8) ?RET_HIGH load(1, XDATA, add(CFA_XSP16, literal(-4)))
        CFI (cfiCond8) ?BRET_EXT load(1, XDATA, add(CFA_XSP16, literal(-3)))
        CFI (cfiCond8) DPL0 load(1, XDATA, add(CFA_XSP16, literal(-2)))
        CFI (cfiCond8) DPH0 load(1, XDATA, add(CFA_XSP16, literal(-1)))
        CFI (cfiCond8) CFA_SP SP+0
        CFI (cfiCond8) CFA_XSP16 add(XSP16, 16)
        CFI Block cfiPicker9 Using cfiCommon1
        CFI (cfiPicker9) NoFunction
        CFI (cfiPicker9) Picker
        MOV     R3,#0x0
        MOV     DPTR,#SampleApp_TaskID
        MOVX    A,@DPTR
        MOV     R1,A
        LCALL   ??osal_start_timerEx?relay
        RET
        CFI EndBlock cfiCond6
        CFI EndBlock cfiCond7
        CFI EndBlock cfiCond8
        CFI EndBlock cfiPicker9

        RSEG BANKED_CODE:CODE:NOROOT(0)
?Subroutine7:
        CFI Block cfiCond10 Using cfiCommon0
        CFI NoFunction
        CFI Conditional ??CrossCallReturnLabel_12
        CFI R6 load(1, XDATA, add(CFA_XSP16, literal(-12)))
        CFI VB load(1, XDATA, add(CFA_XSP16, literal(-11)))
        CFI V0 load(1, XDATA, add(CFA_XSP16, literal(-10)))
        CFI V1 load(1, XDATA, add(CFA_XSP16, literal(-9)))
        CFI V2 load(1, XDATA, add(CFA_XSP16, literal(-8)))
        CFI V3 load(1, XDATA, add(CFA_XSP16, literal(-7)))
        CFI R7 load(1, XDATA, add(CFA_XSP16, literal(-6)))
        CFI ?RET_LOW load(1, XDATA, add(CFA_XSP16, literal(-5)))
        CFI ?RET_HIGH load(1, XDATA, add(CFA_XSP16, literal(-4)))
        CFI ?BRET_EXT load(1, XDATA, add(CFA_XSP16, literal(-3)))
        CFI DPL0 load(1, XDATA, add(CFA_XSP16, literal(-2)))
        CFI DPH0 load(1, XDATA, add(CFA_XSP16, literal(-1)))
        CFI CFA_SP SP+0
        CFI CFA_XSP16 add(XSP16, 16)
        CFI Block cfiCond11 Using cfiCommon0
        CFI (cfiCond11) NoFunction
        CFI (cfiCond11) Conditional ??CrossCallReturnLabel_13
        CFI (cfiCond11) R6 load(1, XDATA, add(CFA_XSP16, literal(-12)))
        CFI (cfiCond11) VB load(1, XDATA, add(CFA_XSP16, literal(-11)))
        CFI (cfiCond11) V0 load(1, XDATA, add(CFA_XSP16, literal(-10)))
        CFI (cfiCond11) V1 load(1, XDATA, add(CFA_XSP16, literal(-9)))
        CFI (cfiCond11) V2 load(1, XDATA, add(CFA_XSP16, literal(-8)))
        CFI (cfiCond11) V3 load(1, XDATA, add(CFA_XSP16, literal(-7)))
        CFI (cfiCond11) R7 load(1, XDATA, add(CFA_XSP16, literal(-6)))
        CFI (cfiCond11) ?RET_LOW load(1, XDATA, add(CFA_XSP16, literal(-5)))
        CFI (cfiCond11) ?RET_HIGH load(1, XDATA, add(CFA_XSP16, literal(-4)))
        CFI (cfiCond11) ?BRET_EXT load(1, XDATA, add(CFA_XSP16, literal(-3)))
        CFI (cfiCond11) DPL0 load(1, XDATA, add(CFA_XSP16, literal(-2)))
        CFI (cfiCond11) DPH0 load(1, XDATA, add(CFA_XSP16, literal(-1)))
        CFI (cfiCond11) CFA_SP SP+0
        CFI (cfiCond11) CFA_XSP16 add(XSP16, 16)
        CFI Block cfiCond12 Using cfiCommon0
        CFI (cfiCond12) NoFunction
        CFI (cfiCond12) Conditional ??CrossCallReturnLabel_14
        CFI (cfiCond12) R6 load(1, XDATA, add(CFA_XSP16, literal(-12)))
        CFI (cfiCond12) VB load(1, XDATA, add(CFA_XSP16, literal(-11)))
        CFI (cfiCond12) V0 load(1, XDATA, add(CFA_XSP16, literal(-10)))
        CFI (cfiCond12) V1 load(1, XDATA, add(CFA_XSP16, literal(-9)))
        CFI (cfiCond12) V2 load(1, XDATA, add(CFA_XSP16, literal(-8)))
        CFI (cfiCond12) V3 load(1, XDATA, add(CFA_XSP16, literal(-7)))
        CFI (cfiCond12) R7 load(1, XDATA, add(CFA_XSP16, literal(-6)))
        CFI (cfiCond12) ?RET_LOW load(1, XDATA, add(CFA_XSP16, literal(-5)))
        CFI (cfiCond12) ?RET_HIGH load(1, XDATA, add(CFA_XSP16, literal(-4)))
        CFI (cfiCond12) ?BRET_EXT load(1, XDATA, add(CFA_XSP16, literal(-3)))
        CFI (cfiCond12) DPL0 load(1, XDATA, add(CFA_XSP16, literal(-2)))
        CFI (cfiCond12) DPH0 load(1, XDATA, add(CFA_XSP16, literal(-1)))
        CFI (cfiCond12) CFA_SP SP+0
        CFI (cfiCond12) CFA_XSP16 add(XSP16, 16)
        CFI Block cfiCond13 Using cfiCommon0
        CFI (cfiCond13) NoFunction
        CFI (cfiCond13) Conditional ??CrossCallReturnLabel_15
        CFI (cfiCond13) R6 load(1, XDATA, add(CFA_XSP16, literal(-12)))
        CFI (cfiCond13) VB load(1, XDATA, add(CFA_XSP16, literal(-11)))
        CFI (cfiCond13) V0 load(1, XDATA, add(CFA_XSP16, literal(-10)))
        CFI (cfiCond13) V1 load(1, XDATA, add(CFA_XSP16, literal(-9)))
        CFI (cfiCond13) V2 load(1, XDATA, add(CFA_XSP16, literal(-8)))
        CFI (cfiCond13) V3 load(1, XDATA, add(CFA_XSP16, literal(-7)))
        CFI (cfiCond13) R7 load(1, XDATA, add(CFA_XSP16, literal(-6)))
        CFI (cfiCond13) ?RET_LOW load(1, XDATA, add(CFA_XSP16, literal(-5)))
        CFI (cfiCond13) ?RET_HIGH load(1, XDATA, add(CFA_XSP16, literal(-4)))
        CFI (cfiCond13) ?BRET_EXT load(1, XDATA, add(CFA_XSP16, literal(-3)))
        CFI (cfiCond13) DPL0 load(1, XDATA, add(CFA_XSP16, literal(-2)))
        CFI (cfiCond13) DPH0 load(1, XDATA, add(CFA_XSP16, literal(-1)))
        CFI (cfiCond13) CFA_SP SP+0
        CFI (cfiCond13) CFA_XSP16 add(XSP16, 16)
        CFI Block cfiPicker14 Using cfiCommon1
        CFI (cfiPicker14) NoFunction
        CFI (cfiPicker14) Picker
        LCALL   ??SampleApp_Send_P2P_Message?relay
        MOV     DPL,?XSP + 0
        MOV     DPH,?XSP + 1
        CLR     A
        MOVX    @DPTR,A
        INC     A
        RET
        CFI EndBlock cfiCond10
        CFI EndBlock cfiCond11
        CFI EndBlock cfiCond12
        CFI EndBlock cfiCond13
        CFI EndBlock cfiPicker14

        RSEG BANKED_CODE:CODE:NOROOT(0)
?Subroutine2:
        CFI Block cfiCond15 Using cfiCommon0
        CFI NoFunction
        CFI Conditional ??CrossCallReturnLabel_0
        CFI R6 load(1, XDATA, add(CFA_XSP16, literal(-12)))
        CFI VB load(1, XDATA, add(CFA_XSP16, literal(-11)))
        CFI V0 load(1, XDATA, add(CFA_XSP16, literal(-10)))
        CFI V1 load(1, XDATA, add(CFA_XSP16, literal(-9)))
        CFI V2 load(1, XDATA, add(CFA_XSP16, literal(-8)))
        CFI V3 load(1, XDATA, add(CFA_XSP16, literal(-7)))
        CFI R7 load(1, XDATA, add(CFA_XSP16, literal(-6)))
        CFI ?RET_LOW load(1, XDATA, add(CFA_XSP16, literal(-5)))
        CFI ?RET_HIGH load(1, XDATA, add(CFA_XSP16, literal(-4)))
        CFI ?BRET_EXT load(1, XDATA, add(CFA_XSP16, literal(-3)))
        CFI DPL0 load(1, XDATA, add(CFA_XSP16, literal(-2)))
        CFI DPH0 load(1, XDATA, add(CFA_XSP16, literal(-1)))
        CFI CFA_SP SP+0
        CFI CFA_XSP16 add(XSP16, 16)
        CFI Block cfiCond16 Using cfiCommon0
        CFI (cfiCond16) NoFunction
        CFI (cfiCond16) Conditional ??CrossCallReturnLabel_1
        CFI (cfiCond16) R6 load(1, XDATA, add(CFA_XSP16, literal(-12)))
        CFI (cfiCond16) VB load(1, XDATA, add(CFA_XSP16, literal(-11)))
        CFI (cfiCond16) V0 load(1, XDATA, add(CFA_XSP16, literal(-10)))
        CFI (cfiCond16) V1 load(1, XDATA, add(CFA_XSP16, literal(-9)))
        CFI (cfiCond16) V2 load(1, XDATA, add(CFA_XSP16, literal(-8)))
        CFI (cfiCond16) V3 load(1, XDATA, add(CFA_XSP16, literal(-7)))
        CFI (cfiCond16) R7 load(1, XDATA, add(CFA_XSP16, literal(-6)))
        CFI (cfiCond16) ?RET_LOW load(1, XDATA, add(CFA_XSP16, literal(-5)))
        CFI (cfiCond16) ?RET_HIGH load(1, XDATA, add(CFA_XSP16, literal(-4)))
        CFI (cfiCond16) ?BRET_EXT load(1, XDATA, add(CFA_XSP16, literal(-3)))
        CFI (cfiCond16) DPL0 load(1, XDATA, add(CFA_XSP16, literal(-2)))
        CFI (cfiCond16) DPH0 load(1, XDATA, add(CFA_XSP16, literal(-1)))
        CFI (cfiCond16) CFA_SP SP+0
        CFI (cfiCond16) CFA_XSP16 add(XSP16, 16)
        CFI Block cfiCond17 Using cfiCommon0
        CFI (cfiCond17) NoFunction
        CFI (cfiCond17) Conditional ??CrossCallReturnLabel_2
        CFI (cfiCond17) R6 load(1, XDATA, add(CFA_XSP16, literal(-12)))
        CFI (cfiCond17) VB load(1, XDATA, add(CFA_XSP16, literal(-11)))
        CFI (cfiCond17) V0 load(1, XDATA, add(CFA_XSP16, literal(-10)))
        CFI (cfiCond17) V1 load(1, XDATA, add(CFA_XSP16, literal(-9)))
        CFI (cfiCond17) V2 load(1, XDATA, add(CFA_XSP16, literal(-8)))
        CFI (cfiCond17) V3 load(1, XDATA, add(CFA_XSP16, literal(-7)))
        CFI (cfiCond17) R7 load(1, XDATA, add(CFA_XSP16, literal(-6)))
        CFI (cfiCond17) ?RET_LOW load(1, XDATA, add(CFA_XSP16, literal(-5)))
        CFI (cfiCond17) ?RET_HIGH load(1, XDATA, add(CFA_XSP16, literal(-4)))
        CFI (cfiCond17) ?BRET_EXT load(1, XDATA, add(CFA_XSP16, literal(-3)))
        CFI (cfiCond17) DPL0 load(1, XDATA, add(CFA_XSP16, literal(-2)))
        CFI (cfiCond17) DPH0 load(1, XDATA, add(CFA_XSP16, literal(-1)))
        CFI (cfiCond17) CFA_SP SP+0
        CFI (cfiCond17) CFA_XSP16 add(XSP16, 16)
        CFI Block cfiCond18 Using cfiCommon0
        CFI (cfiCond18) NoFunction
        CFI (cfiCond18) Conditional ??CrossCallReturnLabel_3
        CFI (cfiCond18) R6 load(1, XDATA, add(CFA_XSP16, literal(-12)))
        CFI (cfiCond18) VB load(1, XDATA, add(CFA_XSP16, literal(-11)))
        CFI (cfiCond18) V0 load(1, XDATA, add(CFA_XSP16, literal(-10)))
        CFI (cfiCond18) V1 load(1, XDATA, add(CFA_XSP16, literal(-9)))
        CFI (cfiCond18) V2 load(1, XDATA, add(CFA_XSP16, literal(-8)))
        CFI (cfiCond18) V3 load(1, XDATA, add(CFA_XSP16, literal(-7)))
        CFI (cfiCond18) R7 load(1, XDATA, add(CFA_XSP16, literal(-6)))
        CFI (cfiCond18) ?RET_LOW load(1, XDATA, add(CFA_XSP16, literal(-5)))
        CFI (cfiCond18) ?RET_HIGH load(1, XDATA, add(CFA_XSP16, literal(-4)))
        CFI (cfiCond18) ?BRET_EXT load(1, XDATA, add(CFA_XSP16, literal(-3)))
        CFI (cfiCond18) DPL0 load(1, XDATA, add(CFA_XSP16, literal(-2)))
        CFI (cfiCond18) DPH0 load(1, XDATA, add(CFA_XSP16, literal(-1)))
        CFI (cfiCond18) CFA_SP SP+0
        CFI (cfiCond18) CFA_XSP16 add(XSP16, 16)
        CFI Block cfiCond19 Using cfiCommon0
        CFI (cfiCond19) NoFunction
        CFI (cfiCond19) Conditional ??CrossCallReturnLabel_4
        CFI (cfiCond19) R6 load(1, XDATA, add(CFA_XSP16, literal(-12)))
        CFI (cfiCond19) VB load(1, XDATA, add(CFA_XSP16, literal(-11)))
        CFI (cfiCond19) V0 load(1, XDATA, add(CFA_XSP16, literal(-10)))
        CFI (cfiCond19) V1 load(1, XDATA, add(CFA_XSP16, literal(-9)))
        CFI (cfiCond19) V2 load(1, XDATA, add(CFA_XSP16, literal(-8)))
        CFI (cfiCond19) V3 load(1, XDATA, add(CFA_XSP16, literal(-7)))
        CFI (cfiCond19) R7 load(1, XDATA, add(CFA_XSP16, literal(-6)))
        CFI (cfiCond19) ?RET_LOW load(1, XDATA, add(CFA_XSP16, literal(-5)))
        CFI (cfiCond19) ?RET_HIGH load(1, XDATA, add(CFA_XSP16, literal(-4)))
        CFI (cfiCond19) ?BRET_EXT load(1, XDATA, add(CFA_XSP16, literal(-3)))
        CFI (cfiCond19) DPL0 load(1, XDATA, add(CFA_XSP16, literal(-2)))
        CFI (cfiCond19) DPH0 load(1, XDATA, add(CFA_XSP16, literal(-1)))
        CFI (cfiCond19) CFA_SP SP+0
        CFI (cfiCond19) CFA_XSP16 add(XSP16, 16)
        CFI Block cfiCond20 Using cfiCommon0
        CFI (cfiCond20) NoFunction
        CFI (cfiCond20) Conditional ??CrossCallReturnLabel_5
        CFI (cfiCond20) R6 load(1, XDATA, add(CFA_XSP16, literal(-12)))
        CFI (cfiCond20) VB load(1, XDATA, add(CFA_XSP16, literal(-11)))
        CFI (cfiCond20) V0 load(1, XDATA, add(CFA_XSP16, literal(-10)))
        CFI (cfiCond20) V1 load(1, XDATA, add(CFA_XSP16, literal(-9)))
        CFI (cfiCond20) V2 load(1, XDATA, add(CFA_XSP16, literal(-8)))
        CFI (cfiCond20) V3 load(1, XDATA, add(CFA_XSP16, literal(-7)))
        CFI (cfiCond20) R7 load(1, XDATA, add(CFA_XSP16, literal(-6)))
        CFI (cfiCond20) ?RET_LOW load(1, XDATA, add(CFA_XSP16, literal(-5)))
        CFI (cfiCond20) ?RET_HIGH load(1, XDATA, add(CFA_XSP16, literal(-4)))
        CFI (cfiCond20) ?BRET_EXT load(1, XDATA, add(CFA_XSP16, literal(-3)))
        CFI (cfiCond20) DPL0 load(1, XDATA, add(CFA_XSP16, literal(-2)))
        CFI (cfiCond20) DPH0 load(1, XDATA, add(CFA_XSP16, literal(-1)))
        CFI (cfiCond20) CFA_SP SP+0
        CFI (cfiCond20) CFA_XSP16 add(XSP16, 16)
        CFI Block cfiPicker21 Using cfiCommon1
        CFI (cfiPicker21) NoFunction
        CFI (cfiPicker21) Picker
        MOVX    @DPTR,A
        ; Setup parameters for call to function SampleApp_Send_P2P_Message
        ; Setup parameters for call to function SampleApp_Send_P2P_Message
        ; Setup parameters for call to function SampleApp_Send_P2P_Message
        ; Setup parameters for call to function SampleApp_Send_P2P_Message
        ; Setup parameters for call to function SampleApp_Send_P2P_Message
        ; Setup parameters for call to function SampleApp_Send_P2P_Message
        MOV     DPL,?XSP + 0
        MOV     DPH,?XSP + 1
        MOV     R4,DPL
        MOV     R5,DPH
        MOV     R3,#0x0
        MOV     R2,#0x0
        RET
        CFI EndBlock cfiCond15
        CFI EndBlock cfiCond16
        CFI EndBlock cfiCond17
        CFI EndBlock cfiCond18
        CFI EndBlock cfiCond19
        CFI EndBlock cfiCond20
        CFI EndBlock cfiPicker21
//  361 
//  362 /*********************************************************************
//  363  * Event Generation Functions
//  364  */
//  365 /*********************************************************************
//  366  * @fn      SampleApp_HandleKeys
//  367  *
//  368  * @brief   Handles all key events for this device.
//  369  *
//  370  * @param   shift - true if in shift/alt.
//  371  * @param   keys - bit field for key events. Valid entries:
//  372  *                 HAL_KEY_SW_2
//  373  *                 HAL_KEY_SW_1
//  374  *
//  375  * @return  none
//  376  */

        RSEG BANKED_CODE:CODE:NOROOT(0)
//  377 void SampleApp_HandleKeys( uint8 shift, uint8 keys )
SampleApp_HandleKeys:
        CFI Block cfiBlock22 Using cfiCommon0
        CFI Function SampleApp_HandleKeys
        CODE
//  378 {
        FUNCALL SampleApp_HandleKeys, SampleApp_SendFlashMessage
        LOCFRAME ISTACK, 0, STACK
        LOCFRAME PSTACK, 0, STACK
        LOCFRAME XSTACK, 10, STACK
        LOCFRAME IOVERLAY, 0, STATIC
        LOCFRAME DOVERLAY, 0, STATIC
        ARGFRAME ISTACK, 0, STACK
        ARGFRAME PSTACK, 0, STACK
        ARGFRAME XSTACK, 10, STACK
        ARGFRAME IOVERLAY, 0, STATIC
        ARGFRAME DOVERLAY, 0, STATIC
        FUNCALL SampleApp_HandleKeys, aps_FindGroup
        LOCFRAME ISTACK, 0, STACK
        LOCFRAME PSTACK, 0, STACK
        LOCFRAME XSTACK, 10, STACK
        LOCFRAME IOVERLAY, 0, STATIC
        LOCFRAME DOVERLAY, 0, STATIC
        ARGFRAME ISTACK, 0, STACK
        ARGFRAME PSTACK, 0, STACK
        ARGFRAME XSTACK, 10, STACK
        ARGFRAME IOVERLAY, 0, STATIC
        ARGFRAME DOVERLAY, 0, STATIC
        FUNCALL SampleApp_HandleKeys, aps_RemoveGroup
        LOCFRAME ISTACK, 0, STACK
        LOCFRAME PSTACK, 0, STACK
        LOCFRAME XSTACK, 10, STACK
        LOCFRAME IOVERLAY, 0, STATIC
        LOCFRAME DOVERLAY, 0, STATIC
        ARGFRAME ISTACK, 0, STACK
        ARGFRAME PSTACK, 0, STACK
        ARGFRAME XSTACK, 10, STACK
        ARGFRAME IOVERLAY, 0, STATIC
        ARGFRAME DOVERLAY, 0, STATIC
        FUNCALL SampleApp_HandleKeys, aps_AddGroup
        LOCFRAME ISTACK, 0, STACK
        LOCFRAME PSTACK, 0, STACK
        LOCFRAME XSTACK, 10, STACK
        LOCFRAME IOVERLAY, 0, STATIC
        LOCFRAME DOVERLAY, 0, STATIC
        ARGFRAME ISTACK, 0, STACK
        ARGFRAME PSTACK, 0, STACK
        ARGFRAME XSTACK, 10, STACK
        ARGFRAME IOVERLAY, 0, STATIC
        ARGFRAME DOVERLAY, 0, STATIC
        MOV     A,#-0xa
        LCALL   ?BANKED_ENTER_XDATA
        CFI DPH0 load(1, XDATA, add(CFA_XSP16, literal(-1)))
        CFI DPL0 load(1, XDATA, add(CFA_XSP16, literal(-2)))
        CFI ?BRET_EXT load(1, XDATA, add(CFA_XSP16, literal(-3)))
        CFI ?RET_HIGH load(1, XDATA, add(CFA_XSP16, literal(-4)))
        CFI ?RET_LOW load(1, XDATA, add(CFA_XSP16, literal(-5)))
        CFI R7 load(1, XDATA, add(CFA_XSP16, literal(-6)))
        CFI V1 load(1, XDATA, add(CFA_XSP16, literal(-7)))
        CFI V0 load(1, XDATA, add(CFA_XSP16, literal(-8)))
        CFI VB load(1, XDATA, add(CFA_XSP16, literal(-9)))
        CFI R6 load(1, XDATA, add(CFA_XSP16, literal(-10)))
        CFI CFA_SP SP+0
        CFI CFA_XSP16 add(XSP16, 10)
        ; Saved register size: 10
        ; Auto size: 0
        MOV     A,R2
        MOV     R6,A
//  379   (void)shift;  // Intentionally unreferenced parameter
//  380   
//  381   if ( keys & HAL_KEY_SW_1 )
        MOV     C,0xE0 /* A   */.0
        JNC     ??SampleApp_HandleKeys_0
//  382   {
//  383     /* This key sends the Flash Command is sent to Group 1.
//  384      * This device will not receive the Flash Command from this
//  385      * device (even if it belongs to group 1).
//  386      */
//  387     SampleApp_SendFlashMessage( SAMPLEAPP_FLASH_DURATION );
        ; Setup parameters for call to function SampleApp_SendFlashMessage
        MOV     R2,#-0x18
        MOV     R3,#0x3
        LCALL   ??SampleApp_SendFlashMessage?relay
//  388   }
//  389 
//  390   if ( keys & HAL_KEY_SW_2 )
??SampleApp_HandleKeys_0:
        MOV     A,R6
        MOV     C,0xE0 /* A   */.1
        JNC     ??SampleApp_HandleKeys_1
//  391   {
//  392     /* The Flashr Command is sent to Group 1.
//  393      * This key toggles this device in and out of group 1.
//  394      * If this device doesn't belong to group 1, this application
//  395      * will not receive the Flash command sent to group 1.
//  396      */
//  397     aps_Group_t *grp;
//  398     grp = aps_FindGroup( SAMPLEAPP_ENDPOINT, SAMPLEAPP_FLASH_GROUP );
//  399     if ( grp )
        ; Setup parameters for call to function aps_FindGroup
        MOV     R2,#0x1
        MOV     R3,#0x0
        MOV     R1,#0x14
        LCALL   ??aps_FindGroup?relay
        MOV     ?V0 + 1,R3
        MOV     A,R2
        ORL     A,?V0 + 1
        JZ      ??SampleApp_HandleKeys_2
//  400     {
//  401       // Remove from the group
//  402       aps_RemoveGroup( SAMPLEAPP_ENDPOINT, SAMPLEAPP_FLASH_GROUP );
        ; Setup parameters for call to function aps_RemoveGroup
        MOV     R2,#0x1
        MOV     R3,#0x0
        MOV     R1,#0x14
        LCALL   ??aps_RemoveGroup?relay
        SJMP    ??SampleApp_HandleKeys_1
//  403     }
//  404     else
//  405     {
//  406       // Add to the flash group
//  407       aps_AddGroup( SAMPLEAPP_ENDPOINT, &SampleApp_Group );
??SampleApp_HandleKeys_2:
        ; Setup parameters for call to function aps_AddGroup
        MOV     R2,#SampleApp_Group & 0xff
        MOV     R3,#(SampleApp_Group >> 8) & 0xff
        MOV     R1,#0x14
        LCALL   ??aps_AddGroup?relay
//  408     }
//  409   }
//  410 }
??SampleApp_HandleKeys_1:
        SJMP    ??Subroutine16_0
        CFI EndBlock cfiBlock22

        RSEG BANKED_CODE:CODE:NOROOT(0)
?Subroutine1:
        CFI Block cfiBlock23 Using cfiCommon0
        CFI NoFunction
        CFI CFA_SP SP+0
        CFI CFA_XSP16 add(XSP16, 19)
        CFI VB load(1, XDATA, add(CFA_XSP16, literal(-9)))
        CFI DPL0 load(1, XDATA, add(CFA_XSP16, literal(-2)))
        CFI DPH0 load(1, XDATA, add(CFA_XSP16, literal(-1)))
        CFI R6 load(1, XDATA, add(CFA_XSP16, literal(-10)))
        CFI R7 load(1, XDATA, add(CFA_XSP16, literal(-6)))
        CFI V0 load(1, XDATA, add(CFA_XSP16, literal(-8)))
        CFI V1 load(1, XDATA, add(CFA_XSP16, literal(-7)))
        CFI ?BRET_EXT load(1, XDATA, add(CFA_XSP16, literal(-3)))
        CFI ?RET_HIGH load(1, XDATA, add(CFA_XSP16, literal(-4)))
        CFI ?RET_LOW load(1, XDATA, add(CFA_XSP16, literal(-5)))
        CFI Invalid
        LCALL   ?DEALLOC_XSTACK8
        CFI EndBlock cfiBlock23
        REQUIRE ??Subroutine16_0
        ; // Fall through to label ??Subroutine16_0

        RSEG BANKED_CODE:CODE:NOROOT(0)
??Subroutine16_0:
        CFI Block cfiBlock24 Using cfiCommon0
        CFI NoFunction
        CFI CFA_SP SP+0
        CFI CFA_XSP16 add(XSP16, 10)
        CFI VB load(1, XDATA, add(CFA_XSP16, literal(-9)))
        CFI DPL0 load(1, XDATA, add(CFA_XSP16, literal(-2)))
        CFI DPH0 load(1, XDATA, add(CFA_XSP16, literal(-1)))
        CFI R6 load(1, XDATA, add(CFA_XSP16, literal(-10)))
        CFI R7 load(1, XDATA, add(CFA_XSP16, literal(-6)))
        CFI V0 load(1, XDATA, add(CFA_XSP16, literal(-8)))
        CFI V1 load(1, XDATA, add(CFA_XSP16, literal(-7)))
        CFI ?BRET_EXT load(1, XDATA, add(CFA_XSP16, literal(-3)))
        CFI ?RET_HIGH load(1, XDATA, add(CFA_XSP16, literal(-4)))
        CFI ?RET_LOW load(1, XDATA, add(CFA_XSP16, literal(-5)))
        MOV     R7,#0x2
        LJMP    ?BANKED_LEAVE_XDATA
        CFI EndBlock cfiBlock24
//  411 
//  412 /*********************************************************************
//  413  * LOCAL FUNCTIONS
//  414  */
//  415 
//  416 /*********************************************************************
//  417  * @fn      SampleApp_MessageMSGCB
//  418  *
//  419  * @brief   Data message processor callback.  This function processes
//  420  *          any incoming data - probably from other devices.  So, based
//  421  *          on cluster ID, perform the intended action.
//  422  *
//  423  * @param   none
//  424  *
//  425  * @return  none
//  426  */

        RSEG BANKED_CODE:CODE:NOROOT(0)
//  427 void SampleApp_MessageMSGCB( afIncomingMSGPacket_t *pkt )
SampleApp_MessageMSGCB:
        CFI Block cfiBlock25 Using cfiCommon0
        CFI Function SampleApp_MessageMSGCB
        CODE
//  428 {
        FUNCALL SampleApp_MessageMSGCB, SampleApp_NwkP2PMsgProcessing
        LOCFRAME ISTACK, 0, STACK
        LOCFRAME PSTACK, 0, STACK
        LOCFRAME XSTACK, 10, STACK
        LOCFRAME IOVERLAY, 0, STATIC
        LOCFRAME DOVERLAY, 0, STATIC
        ARGFRAME ISTACK, 0, STACK
        ARGFRAME PSTACK, 0, STACK
        ARGFRAME XSTACK, 10, STACK
        ARGFRAME IOVERLAY, 0, STATIC
        ARGFRAME DOVERLAY, 0, STATIC
        FUNCALL SampleApp_MessageMSGCB, SampleApp_NwkCMDMsgProcessing
        LOCFRAME ISTACK, 0, STACK
        LOCFRAME PSTACK, 0, STACK
        LOCFRAME XSTACK, 10, STACK
        LOCFRAME IOVERLAY, 0, STATIC
        LOCFRAME DOVERLAY, 0, STATIC
        ARGFRAME ISTACK, 0, STACK
        ARGFRAME PSTACK, 0, STACK
        ARGFRAME XSTACK, 10, STACK
        ARGFRAME IOVERLAY, 0, STATIC
        ARGFRAME DOVERLAY, 0, STATIC
        FUNCALL SampleApp_MessageMSGCB, HalLedBlink
        LOCFRAME ISTACK, 0, STACK
        LOCFRAME PSTACK, 0, STACK
        LOCFRAME XSTACK, 10, STACK
        LOCFRAME IOVERLAY, 0, STATIC
        LOCFRAME DOVERLAY, 0, STATIC
        ARGFRAME ISTACK, 0, STACK
        ARGFRAME PSTACK, 0, STACK
        ARGFRAME XSTACK, 10, STACK
        ARGFRAME IOVERLAY, 0, STATIC
        ARGFRAME DOVERLAY, 0, STATIC
        MOV     A,#-0xa
        LCALL   ?BANKED_ENTER_XDATA
        CFI DPH0 load(1, XDATA, add(CFA_XSP16, literal(-1)))
        CFI DPL0 load(1, XDATA, add(CFA_XSP16, literal(-2)))
        CFI ?BRET_EXT load(1, XDATA, add(CFA_XSP16, literal(-3)))
        CFI ?RET_HIGH load(1, XDATA, add(CFA_XSP16, literal(-4)))
        CFI ?RET_LOW load(1, XDATA, add(CFA_XSP16, literal(-5)))
        CFI R7 load(1, XDATA, add(CFA_XSP16, literal(-6)))
        CFI V1 load(1, XDATA, add(CFA_XSP16, literal(-7)))
        CFI V0 load(1, XDATA, add(CFA_XSP16, literal(-8)))
        CFI VB load(1, XDATA, add(CFA_XSP16, literal(-9)))
        CFI R6 load(1, XDATA, add(CFA_XSP16, literal(-10)))
        CFI CFA_SP SP+0
        CFI CFA_XSP16 add(XSP16, 10)
        ; Saved register size: 10
        ; Auto size: 0
//  429   uint16 flashTime;
//  430 
//  431   switch ( pkt->clusterId )
        MOV     DPL,R2
        MOV     DPH,R3
        INC     DPTR
        INC     DPTR
        INC     DPTR
        INC     DPTR
        MOVX    A,@DPTR
        MOV     ?V0 + 0,A
        INC     DPTR
        MOVX    A,@DPTR
        MOV     ?V0 + 1,A
        MOV     R0,#?V0 + 0
        LCALL   ?US_SWITCH_DENSE
`?<Jumptable for SampleApp_MessageMSGCB>_0`:
        DATA
        DATA16
        DATA
        DATA16
        DW        2
        DATA
        DATA8
        DATA
        DATA8
        DB        2
        DATA
        DATA16
        DATA
        DATA16
        DW        ??SampleApp_MessageMSGCB_0
        DATA
        DATA16
        DATA
        DATA16
        DW        ??SampleApp_MessageMSGCB_1
        DATA
        DATA16
        DATA
        DATA16
        DW        ??SampleApp_MessageMSGCB_2
        DATA
        DATA16
        DATA
        DATA16
        DW        ??SampleApp_MessageMSGCB_3
        CODE
//  432   {
//  433     case SAMPLEAPP_P2P_CLUSTERID: //传感器数据上报
//  434       SampleApp_NwkP2PMsgProcessing(pkt);
??SampleApp_MessageMSGCB_2:
        ; Setup parameters for call to function SampleApp_NwkP2PMsgProcessing
        LCALL   ??SampleApp_NwkP2PMsgProcessing?relay
//  435       break;    
        SJMP    ??SampleApp_MessageMSGCB_0
//  436     case  SAMPLEAPP_PERIODIC_CLUSTERID: 
//  437       break;    
//  438     case  SAMPLEAPP_CMD_CLUSTERID: //协调器命令下发
//  439       SampleApp_NwkCMDMsgProcessing(pkt);
??SampleApp_MessageMSGCB_3:
        ; Setup parameters for call to function SampleApp_NwkCMDMsgProcessing
        LCALL   ??SampleApp_NwkCMDMsgProcessing?relay
//  440       break;
        SJMP    ??SampleApp_MessageMSGCB_0
//  441     case SAMPLEAPP_FLASH_CLUSTERID:
//  442       flashTime = BUILD_UINT16(pkt->cmd.Data[1], pkt->cmd.Data[2] );
//  443       HalLedBlink( HAL_LED_4, 4, 50, (flashTime / 4) );
??SampleApp_MessageMSGCB_1:
        LCALL   ?Subroutine8 & 0xFFFF
??CrossCallReturnLabel_17:
        INC     DPTR
        MOVX    A,@DPTR
        MOV     R2,A
        MOV     DPL,R0
        MOV     DPH,R1
        INC     DPTR
        INC     DPTR
        MOVX    A,@DPTR
        MOV     R1,A
        MOV     A,R2
        ADD     A,#0x0
        MOV     ?V0 + 0,A
        CLR     A
        ADDC    A,R1
        MOV     ?V0 + 1,A
        MOV     A,#0x2
        MOV     R0,#?V0 + 0
        LCALL   ?US_SHR
        MOV     R4,?V0 + 0
        MOV     R5,?V0 + 1
        MOV     R3,#0x32
        MOV     R2,#0x4
        MOV     R1,#0x8
        LCALL   ??HalLedBlink?relay
//  444       break;
//  445   }
//  446 }
??SampleApp_MessageMSGCB_0:
        SJMP    ??Subroutine16_0
        CFI EndBlock cfiBlock25
//  447 
//  448 /*********************************************************************
//  449  * @fn      SampleApp_SendPeriodicMessage
//  450  *
//  451  * @brief   Send the periodic message.
//  452  *
//  453  * @param   none
//  454  *
//  455  * @return  none
//  456  */

        RSEG BANKED_CODE:CODE:NOROOT(0)
//  457 void SampleApp_SendPeriodicMessage( void )
SampleApp_SendPeriodicMessage:
        CFI Block cfiBlock26 Using cfiCommon0
        CFI Function SampleApp_SendPeriodicMessage
        CODE
//  458 {
        FUNCALL SampleApp_SendPeriodicMessage, AF_DataRequest
        LOCFRAME ISTACK, 0, STACK
        LOCFRAME PSTACK, 0, STACK
        LOCFRAME XSTACK, 19, STACK
        LOCFRAME IOVERLAY, 0, STATIC
        LOCFRAME DOVERLAY, 0, STATIC
        ARGFRAME ISTACK, 0, STACK
        ARGFRAME PSTACK, 0, STACK
        ARGFRAME XSTACK, 19, STACK
        ARGFRAME IOVERLAY, 0, STATIC
        ARGFRAME DOVERLAY, 0, STATIC
        MOV     A,#-0xa
        LCALL   ?BANKED_ENTER_XDATA
        CFI DPH0 load(1, XDATA, add(CFA_XSP16, literal(-1)))
        CFI DPL0 load(1, XDATA, add(CFA_XSP16, literal(-2)))
        CFI ?BRET_EXT load(1, XDATA, add(CFA_XSP16, literal(-3)))
        CFI ?RET_HIGH load(1, XDATA, add(CFA_XSP16, literal(-4)))
        CFI ?RET_LOW load(1, XDATA, add(CFA_XSP16, literal(-5)))
        CFI R7 load(1, XDATA, add(CFA_XSP16, literal(-6)))
        CFI V1 load(1, XDATA, add(CFA_XSP16, literal(-7)))
        CFI V0 load(1, XDATA, add(CFA_XSP16, literal(-8)))
        CFI VB load(1, XDATA, add(CFA_XSP16, literal(-9)))
        CFI R6 load(1, XDATA, add(CFA_XSP16, literal(-10)))
        CFI CFA_SP SP+0
        CFI CFA_XSP16 add(XSP16, 10)
        ; Saved register size: 10
        ; Auto size: 0
//  459   if ( AF_DataRequest( &SampleApp_Periodic_DstAddr, &SampleApp_epDesc,
//  460                        SAMPLEAPP_PERIODIC_CLUSTERID,
//  461                        1,
//  462                        (uint8*)&SampleAppPeriodicCounter,
//  463                        &SampleApp_TransID,
//  464                        AF_DISCV_ROUTE,
//  465                        AF_DEFAULT_RADIUS ) == afStatus_SUCCESS )
        ; Setup parameters for call to function AF_DataRequest
        MOV     ?V0 + 0,#0x1e
        MOV     R0,#?V0 + 0
        LCALL   ?PUSH_XSTACK_I_ONE
        CFI CFA_XSP16 add(XSP16, 11)
        MOV     ?V0 + 0,#SampleApp_TransID & 0xff
        MOV     ?V0 + 1,#(SampleApp_TransID >> 8) & 0xff
        MOV     R0,#?V0 + 0
        LCALL   ?PUSH_XSTACK_I_TWO
        CFI CFA_XSP16 add(XSP16, 13)
        MOV     ?V0 + 0,#SampleAppPeriodicCounter & 0xff
        MOV     ?V0 + 1,#(SampleAppPeriodicCounter >> 8) & 0xff
        MOV     R0,#?V0 + 0
        LCALL   ?PUSH_XSTACK_I_TWO
        CFI CFA_XSP16 add(XSP16, 15)
        MOV     ?V0 + 0,#0x1
        MOV     ?V0 + 1,#0x0
        MOV     R0,#?V0 + 0
        LCALL   ?PUSH_XSTACK_I_TWO
        CFI CFA_XSP16 add(XSP16, 17)
        MOV     R0,#?V0 + 0
        LCALL   ?PUSH_XSTACK_I_TWO
        CFI CFA_XSP16 add(XSP16, 19)
        MOV     R1,#0x20
        MOV     R4,#SampleApp_epDesc & 0xff
        MOV     R5,#(SampleApp_epDesc >> 8) & 0xff
        MOV     R2,#SampleApp_Periodic_DstAddr & 0xff
        MOV     R3,#(SampleApp_Periodic_DstAddr >> 8) & 0xff
        LCALL   ??Subroutine17_0 & 0xFFFF
??CrossCallReturnLabel_32:
        LJMP    ?Subroutine1 & 0xFFFF
        CFI EndBlock cfiBlock26
//  466   {
//  467   }
//  468   else
//  469   {
//  470     // Error occurred in request to send.
//  471   }
//  472 }
//  473 
//  474 /*********************************************************************
//  475  * @fn      SampleApp_SendFlashMessage
//  476  *
//  477  * @brief   Send the flash message to group 1.
//  478  *
//  479  * @param   flashTime - in milliseconds
//  480  *
//  481  * @return  none
//  482  */

        RSEG BANKED_CODE:CODE:NOROOT(0)
//  483 void SampleApp_SendFlashMessage( uint16 flashTime )
SampleApp_SendFlashMessage:
        CFI Block cfiBlock27 Using cfiCommon0
        CFI Function SampleApp_SendFlashMessage
        CODE
//  484 {
        FUNCALL SampleApp_SendFlashMessage, AF_DataRequest
        LOCFRAME ISTACK, 0, STACK
        LOCFRAME PSTACK, 0, STACK
        LOCFRAME XSTACK, 22, STACK
        LOCFRAME IOVERLAY, 0, STATIC
        LOCFRAME DOVERLAY, 0, STATIC
        ARGFRAME ISTACK, 0, STACK
        ARGFRAME PSTACK, 0, STACK
        ARGFRAME XSTACK, 22, STACK
        ARGFRAME IOVERLAY, 0, STATIC
        ARGFRAME DOVERLAY, 0, STATIC
        MOV     A,#-0xa
        LCALL   ?BANKED_ENTER_XDATA
        CFI DPH0 load(1, XDATA, add(CFA_XSP16, literal(-1)))
        CFI DPL0 load(1, XDATA, add(CFA_XSP16, literal(-2)))
        CFI ?BRET_EXT load(1, XDATA, add(CFA_XSP16, literal(-3)))
        CFI ?RET_HIGH load(1, XDATA, add(CFA_XSP16, literal(-4)))
        CFI ?RET_LOW load(1, XDATA, add(CFA_XSP16, literal(-5)))
        CFI R7 load(1, XDATA, add(CFA_XSP16, literal(-6)))
        CFI V1 load(1, XDATA, add(CFA_XSP16, literal(-7)))
        CFI V0 load(1, XDATA, add(CFA_XSP16, literal(-8)))
        CFI VB load(1, XDATA, add(CFA_XSP16, literal(-9)))
        CFI R6 load(1, XDATA, add(CFA_XSP16, literal(-10)))
        CFI CFA_SP SP+0
        CFI CFA_XSP16 add(XSP16, 10)
        ; Saved register size: 10
        ; Auto size: 3
        MOV     A,#-0x3
        LCALL   ?ALLOC_XSTACK8
        CFI CFA_XSP16 add(XSP16, 13)
//  485   uint8 buffer[3];
//  486   buffer[0] = (uint8)(SampleAppFlashCounter++);
        MOV     DPTR,#SampleAppFlashCounter
        MOVX    A,@DPTR
        MOV     DPL,?XSP + 0
        MOV     DPH,?XSP + 1
        MOVX    @DPTR,A
        MOV     DPTR,#SampleAppFlashCounter
        MOVX    A,@DPTR
        INC     A
        MOVX    @DPTR,A
//  487   buffer[1] = LO_UINT16( flashTime );
        MOV     A,#0x1
        LCALL   ?XSTACK_DISP0_8
        MOV     A,R2
        MOVX    @DPTR,A
//  488   buffer[2] = HI_UINT16( flashTime );
        MOV     A,#0x2
        LCALL   ?XSTACK_DISP0_8
        MOV     A,R3
        MOVX    @DPTR,A
//  489 
//  490   if ( AF_DataRequest( &SampleApp_Flash_DstAddr, &SampleApp_epDesc,
//  491                        SAMPLEAPP_FLASH_CLUSTERID,
//  492                        3,
//  493                        buffer,
//  494                        &SampleApp_TransID,
//  495                        AF_DISCV_ROUTE,
//  496                        AF_DEFAULT_RADIUS ) == afStatus_SUCCESS )
        ; Setup parameters for call to function AF_DataRequest
        MOV     ?V0 + 0,#0x1e
        MOV     R0,#?V0 + 0
        LCALL   ?PUSH_XSTACK_I_ONE
        CFI CFA_XSP16 add(XSP16, 14)
        MOV     ?V0 + 0,#SampleApp_TransID & 0xff
        MOV     ?V0 + 1,#(SampleApp_TransID >> 8) & 0xff
        MOV     R0,#?V0 + 0
        LCALL   ?PUSH_XSTACK_I_TWO
        CFI CFA_XSP16 add(XSP16, 16)
        MOV     A,#0x3
        LCALL   ?XSTACK_DISP0_8
        MOV     ?V0 + 0,DPL
        MOV     ?V0 + 1,DPH
        MOV     R0,#?V0 + 0
        LCALL   ?PUSH_XSTACK_I_TWO
        CFI CFA_XSP16 add(XSP16, 18)
        MOV     ?V0 + 0,#0x3
        MOV     ?V0 + 1,#0x0
        MOV     R0,#?V0 + 0
        LCALL   ?PUSH_XSTACK_I_TWO
        CFI CFA_XSP16 add(XSP16, 20)
        MOV     ?V0 + 0,#0x2
        MOV     R0,#?V0 + 0
        LCALL   ?PUSH_XSTACK_I_TWO
        CFI CFA_XSP16 add(XSP16, 22)
        MOV     R1,#0x20
        MOV     R4,#SampleApp_epDesc & 0xff
        MOV     R5,#(SampleApp_epDesc >> 8) & 0xff
        MOV     R2,#SampleApp_Flash_DstAddr & 0xff
        MOV     R3,#(SampleApp_Flash_DstAddr >> 8) & 0xff
        LCALL   ??Subroutine17_0 & 0xFFFF
??CrossCallReturnLabel_33:
        LCALL   ?DEALLOC_XSTACK8
        CFI CFA_XSP16 add(XSP16, 13)
//  497   {
//  498   }
//  499   else
//  500   {
//  501     // Error occurred in request to send.
//  502   }
//  503 }
        MOV     A,#0x3
        LJMP    ?Subroutine1 & 0xFFFF
        CFI EndBlock cfiBlock27
//  504 
//  505 /*********************************************************************
//  506  * @fn      SampleApp_Send_P2P_Message
//  507  *
//  508  * @brief   point to point.
//  509  *
//  510  * @param   none
//  511  *
//  512  * @return  none
//  513  */
//  514 /*
//  515 *终端打包传感器数据并发送到协调器处理函数
//  516 */

        RSEG BANKED_CODE:CODE:NOROOT(0)
//  517 void SampleApp_Send_P2P_Message(int8 _SensorStyle, int8 _SenserIndex, int8 _SenserPositon, uint8 *_pData)
SampleApp_Send_P2P_Message:
        CFI Block cfiBlock28 Using cfiCommon0
        CFI Function SampleApp_Send_P2P_Message
        CODE
//  518 {
        FUNCALL SampleApp_Send_P2P_Message, NLME_GetShortAddr
        LOCFRAME ISTACK, 0, STACK
        LOCFRAME PSTACK, 0, STACK
        LOCFRAME XSTACK, 24, STACK
        LOCFRAME IOVERLAY, 0, STATIC
        LOCFRAME DOVERLAY, 0, STATIC
        ARGFRAME ISTACK, 0, STACK
        ARGFRAME PSTACK, 0, STACK
        ARGFRAME XSTACK, 24, STACK
        ARGFRAME IOVERLAY, 0, STATIC
        ARGFRAME DOVERLAY, 0, STATIC
        FUNCALL SampleApp_Send_P2P_Message, AF_DataRequest
        LOCFRAME ISTACK, 0, STACK
        LOCFRAME PSTACK, 0, STACK
        LOCFRAME XSTACK, 33, STACK
        LOCFRAME IOVERLAY, 0, STATIC
        LOCFRAME DOVERLAY, 0, STATIC
        ARGFRAME ISTACK, 0, STACK
        ARGFRAME PSTACK, 0, STACK
        ARGFRAME XSTACK, 33, STACK
        ARGFRAME IOVERLAY, 0, STATIC
        ARGFRAME DOVERLAY, 0, STATIC
        MOV     A,#-0xe
        LCALL   ?BANKED_ENTER_XDATA
        CFI DPH0 load(1, XDATA, add(CFA_XSP16, literal(-1)))
        CFI DPL0 load(1, XDATA, add(CFA_XSP16, literal(-2)))
        CFI ?BRET_EXT load(1, XDATA, add(CFA_XSP16, literal(-3)))
        CFI ?RET_HIGH load(1, XDATA, add(CFA_XSP16, literal(-4)))
        CFI ?RET_LOW load(1, XDATA, add(CFA_XSP16, literal(-5)))
        CFI R7 load(1, XDATA, add(CFA_XSP16, literal(-6)))
        CFI V5 load(1, XDATA, add(CFA_XSP16, literal(-7)))
        CFI V4 load(1, XDATA, add(CFA_XSP16, literal(-8)))
        CFI V3 load(1, XDATA, add(CFA_XSP16, literal(-9)))
        CFI V2 load(1, XDATA, add(CFA_XSP16, literal(-10)))
        CFI V1 load(1, XDATA, add(CFA_XSP16, literal(-11)))
        CFI V0 load(1, XDATA, add(CFA_XSP16, literal(-12)))
        CFI VB load(1, XDATA, add(CFA_XSP16, literal(-13)))
        CFI R6 load(1, XDATA, add(CFA_XSP16, literal(-14)))
        CFI CFA_SP SP+0
        CFI CFA_XSP16 add(XSP16, 14)
        ; Saved register size: 14
        ; Auto size: 10
        MOV     A,#-0xa
        LCALL   ?ALLOC_XSTACK8
        CFI CFA_XSP16 add(XSP16, 24)
        MOV     A,R1
        MOV     R6,A
        MOV     A,R2
        MOV     R7,A
        MOV     ?V0 + 0,R3
        MOV     ?V0 + 2,R4
        MOV     ?V0 + 3,R5
//  519   //MT_BuildAndSendZToolResponse(((uint8)MT_RPC_CMD_SRSP | (uint8)MT_RPC_SYS_CBT2530_APP), 0, 0, 0);
//  520   uint8 sMsg[10];  
//  521   uint8 sMsgLen = 0x0A;
//  522   uint16 nwkAddr;
//  523 
//  524   nwkAddr = NLME_GetShortAddr();
        ; Setup parameters for call to function NLME_GetShortAddr
        LCALL   ??NLME_GetShortAddr?relay
//  525 
//  526   sMsg[0] = HI_UINT16(nwkAddr);
        MOV     DPL,?XSP + 0
        MOV     DPH,?XSP + 1
        MOV     A,R3
        MOVX    @DPTR,A
//  527   sMsg[1] = LO_UINT16(nwkAddr);
        MOV     A,#0x1
        LCALL   ?XSTACK_DISP0_8
        MOV     A,R2
        MOVX    @DPTR,A
//  528   sMsg[2] = _SensorStyle;
        MOV     A,#0x2
        LCALL   ?XSTACK_DISP0_8
        MOV     A,R6
        MOVX    @DPTR,A
//  529   sMsg[3] = _SenserIndex;
        MOV     A,#0x3
        LCALL   ?XSTACK_DISP0_8
        MOV     A,R7
        MOVX    @DPTR,A
//  530   sMsg[4] = _SenserPositon;
        MOV     A,#0x4
        LCALL   ?XSTACK_DISP0_8
        MOV     A,?V0 + 0
        MOVX    @DPTR,A
//  531 
//  532   sMsg[5] = _pData[0];
        MOV     DPL,?V0 + 2
        MOV     DPH,?V0 + 3
        MOVX    A,@DPTR
        PUSH    A
        CFI CFA_SP SP+-1
        MOV     A,#0x5
        LCALL   ?XSTACK_DISP0_8
        POP     A
        CFI CFA_SP SP+0
        LCALL   ?Subroutine13 & 0xFFFF
//  533   sMsg[6] = _pData[1];
??CrossCallReturnLabel_23:
        MOVX    A,@DPTR
        PUSH    A
        CFI CFA_SP SP+-1
        MOV     A,#0x6
        LCALL   ?XSTACK_DISP0_8
        POP     A
        CFI CFA_SP SP+0
        LCALL   ?Subroutine6 & 0xFFFF
//  534   sMsg[7] = _pData[2];
??CrossCallReturnLabel_10:
        MOVX    A,@DPTR
        PUSH    A
        CFI CFA_SP SP+-1
        MOV     A,#0x7
        LCALL   ?XSTACK_DISP0_8
        POP     A
        CFI CFA_SP SP+0
        LCALL   ?Subroutine6 & 0xFFFF
//  535   sMsg[8] = _pData[3];
??CrossCallReturnLabel_11:
        INC     DPTR
        MOVX    A,@DPTR
        PUSH    A
        CFI CFA_SP SP+-1
        MOV     A,#0x8
        LCALL   ?XSTACK_DISP0_8
        POP     A
        CFI CFA_SP SP+0
        MOVX    @DPTR,A
//  536   
//  537   sMsg[9] = 0x00;//_pData[4];// REV DATA BIT
        MOV     A,#0x9
        LCALL   ?XSTACK_DISP0_8
        CLR     A
        MOVX    @DPTR,A
//  538   if ( AF_DataRequest( &SampleApp_P2P_DstAddr, &SampleApp_epDesc,
//  539                        SAMPLEAPP_P2P_CLUSTERID,
//  540                        sMsgLen,
//  541                        sMsg,
//  542                        &SampleApp_TransID,
//  543                        AF_DISCV_ROUTE,
//  544                        AF_DEFAULT_RADIUS ) == afStatus_SUCCESS )
        ; Setup parameters for call to function AF_DataRequest
        MOV     ?V0 + 1,#0x1e
        MOV     R0,#?V0 + 1
        LCALL   ?PUSH_XSTACK_I_ONE
        CFI CFA_XSP16 add(XSP16, 25)
        MOV     ?V0 + 2,#SampleApp_TransID & 0xff
        MOV     ?V0 + 3,#(SampleApp_TransID >> 8) & 0xff
        MOV     R0,#?V0 + 2
        LCALL   ?PUSH_XSTACK_I_TWO
        CFI CFA_XSP16 add(XSP16, 27)
        MOV     A,#0x3
        LCALL   ?XSTACK_DISP0_8
        MOV     ?V0 + 2,DPL
        MOV     ?V0 + 3,DPH
        MOV     R0,#?V0 + 2
        LCALL   ?PUSH_XSTACK_I_TWO
        CFI CFA_XSP16 add(XSP16, 29)
        MOV     ?V0 + 2,#0xa
        MOV     ?V0 + 3,#0x0
        MOV     R0,#?V0 + 2
        LCALL   ?PUSH_XSTACK_I_TWO
        CFI CFA_XSP16 add(XSP16, 31)
        MOV     ?V0 + 2,#0x3
        MOV     R0,#?V0 + 2
        LCALL   ?PUSH_XSTACK_I_TWO
        CFI CFA_XSP16 add(XSP16, 33)
        LCALL   ?Subroutine10 & 0xFFFF
??CrossCallReturnLabel_30:
        LCALL   ?DEALLOC_XSTACK8
        CFI CFA_XSP16 add(XSP16, 24)
//  545   {
//  546     
//  547   }else
//  548   {
//  549     // Error occurred in request to send.
//  550   }
//  551 }
        MOV     A,#0xa
        LCALL   ?DEALLOC_XSTACK8
        CFI CFA_XSP16 add(XSP16, 14)
        MOV     R7,#0x6
        LJMP    ?BANKED_LEAVE_XDATA
        CFI EndBlock cfiBlock28

        RSEG BANKED_CODE:CODE:NOROOT(0)
?Subroutine10:
        CFI Block cfiCond29 Using cfiCommon0
        CFI NoFunction
        CFI Conditional ??CrossCallReturnLabel_30
        CFI R6 load(1, XDATA, add(CFA_XSP16, literal(-14)))
        CFI VB load(1, XDATA, add(CFA_XSP16, literal(-13)))
        CFI V0 load(1, XDATA, add(CFA_XSP16, literal(-12)))
        CFI V1 load(1, XDATA, add(CFA_XSP16, literal(-11)))
        CFI V2 load(1, XDATA, add(CFA_XSP16, literal(-10)))
        CFI V3 load(1, XDATA, add(CFA_XSP16, literal(-9)))
        CFI V4 load(1, XDATA, add(CFA_XSP16, literal(-8)))
        CFI V5 load(1, XDATA, add(CFA_XSP16, literal(-7)))
        CFI R7 load(1, XDATA, add(CFA_XSP16, literal(-6)))
        CFI ?RET_LOW load(1, XDATA, add(CFA_XSP16, literal(-5)))
        CFI ?RET_HIGH load(1, XDATA, add(CFA_XSP16, literal(-4)))
        CFI ?BRET_EXT load(1, XDATA, add(CFA_XSP16, literal(-3)))
        CFI DPL0 load(1, XDATA, add(CFA_XSP16, literal(-2)))
        CFI DPH0 load(1, XDATA, add(CFA_XSP16, literal(-1)))
        CFI CFA_SP SP+0
        CFI CFA_XSP16 add(XSP16, 33)
        CFI Block cfiCond30 Using cfiCommon0
        CFI (cfiCond30) NoFunction
        CFI (cfiCond30) Conditional ??CrossCallReturnLabel_31
        CFI (cfiCond30) R6 load(1, XDATA, add(CFA_XSP16, literal(-11)))
        CFI (cfiCond30) VB load(1, XDATA, add(CFA_XSP16, literal(-10)))
        CFI (cfiCond30) V0 load(1, XDATA, add(CFA_XSP16, literal(-9)))
        CFI (cfiCond30) V1 load(1, XDATA, add(CFA_XSP16, literal(-8)))
        CFI (cfiCond30) V2 load(1, XDATA, add(CFA_XSP16, literal(-7)))
        CFI (cfiCond30) R7 load(1, XDATA, add(CFA_XSP16, literal(-6)))
        CFI (cfiCond30) ?RET_LOW load(1, XDATA, add(CFA_XSP16, literal(-5)))
        CFI (cfiCond30) ?RET_HIGH load(1, XDATA, add(CFA_XSP16, literal(-4)))
        CFI (cfiCond30) ?BRET_EXT load(1, XDATA, add(CFA_XSP16, literal(-3)))
        CFI (cfiCond30) DPL0 load(1, XDATA, add(CFA_XSP16, literal(-2)))
        CFI (cfiCond30) DPH0 load(1, XDATA, add(CFA_XSP16, literal(-1)))
        CFI (cfiCond30) CFA_SP SP+0
        CFI (cfiCond30) CFA_XSP16 add(XSP16, 38)
        CFI Block cfiPicker31 Using cfiCommon1
        CFI (cfiPicker31) NoFunction
        CFI (cfiPicker31) Picker
        MOV     R1,#0x20
        MOV     R4,#SampleApp_epDesc & 0xff
        MOV     R5,#(SampleApp_epDesc >> 8) & 0xff
        MOV     R2,#SampleApp_P2P_DstAddr & 0xff
        MOV     R3,#(SampleApp_P2P_DstAddr >> 8) & 0xff
        CFI EndBlock cfiCond29
        CFI EndBlock cfiCond30
        CFI EndBlock cfiPicker31
        REQUIRE ??Subroutine17_0
        ; // Fall through to label ??Subroutine17_0

        RSEG BANKED_CODE:CODE:NOROOT(0)
??Subroutine17_0:
        CFI Block cfiCond32 Using cfiCommon0
        CFI NoFunction
        CFI Conditional ??CrossCallReturnLabel_32
        CFI R6 load(1, XDATA, add(CFA_XSP16, literal(-10)))
        CFI VB load(1, XDATA, add(CFA_XSP16, literal(-9)))
        CFI V0 load(1, XDATA, add(CFA_XSP16, literal(-8)))
        CFI V1 load(1, XDATA, add(CFA_XSP16, literal(-7)))
        CFI R7 load(1, XDATA, add(CFA_XSP16, literal(-6)))
        CFI ?RET_LOW load(1, XDATA, add(CFA_XSP16, literal(-5)))
        CFI ?RET_HIGH load(1, XDATA, add(CFA_XSP16, literal(-4)))
        CFI ?BRET_EXT load(1, XDATA, add(CFA_XSP16, literal(-3)))
        CFI DPL0 load(1, XDATA, add(CFA_XSP16, literal(-2)))
        CFI DPH0 load(1, XDATA, add(CFA_XSP16, literal(-1)))
        CFI CFA_SP SP+0
        CFI CFA_XSP16 add(XSP16, 19)
        CFI Block cfiCond33 Using cfiCommon0
        CFI (cfiCond33) NoFunction
        CFI (cfiCond33) Conditional ??CrossCallReturnLabel_33
        CFI (cfiCond33) R6 load(1, XDATA, add(CFA_XSP16, literal(-10)))
        CFI (cfiCond33) VB load(1, XDATA, add(CFA_XSP16, literal(-9)))
        CFI (cfiCond33) V0 load(1, XDATA, add(CFA_XSP16, literal(-8)))
        CFI (cfiCond33) V1 load(1, XDATA, add(CFA_XSP16, literal(-7)))
        CFI (cfiCond33) R7 load(1, XDATA, add(CFA_XSP16, literal(-6)))
        CFI (cfiCond33) ?RET_LOW load(1, XDATA, add(CFA_XSP16, literal(-5)))
        CFI (cfiCond33) ?RET_HIGH load(1, XDATA, add(CFA_XSP16, literal(-4)))
        CFI (cfiCond33) ?BRET_EXT load(1, XDATA, add(CFA_XSP16, literal(-3)))
        CFI (cfiCond33) DPL0 load(1, XDATA, add(CFA_XSP16, literal(-2)))
        CFI (cfiCond33) DPH0 load(1, XDATA, add(CFA_XSP16, literal(-1)))
        CFI (cfiCond33) CFA_SP SP+0
        CFI (cfiCond33) CFA_XSP16 add(XSP16, 22)
        CFI Block cfiCond34 Using cfiCommon0
        CFI (cfiCond34) NoFunction
        CFI (cfiCond34) Conditional ??CrossCallReturnLabel_30
        CFI (cfiCond34) R6 load(1, XDATA, add(CFA_XSP16, literal(-14)))
        CFI (cfiCond34) VB load(1, XDATA, add(CFA_XSP16, literal(-13)))
        CFI (cfiCond34) V0 load(1, XDATA, add(CFA_XSP16, literal(-12)))
        CFI (cfiCond34) V1 load(1, XDATA, add(CFA_XSP16, literal(-11)))
        CFI (cfiCond34) V2 load(1, XDATA, add(CFA_XSP16, literal(-10)))
        CFI (cfiCond34) V3 load(1, XDATA, add(CFA_XSP16, literal(-9)))
        CFI (cfiCond34) V4 load(1, XDATA, add(CFA_XSP16, literal(-8)))
        CFI (cfiCond34) V5 load(1, XDATA, add(CFA_XSP16, literal(-7)))
        CFI (cfiCond34) R7 load(1, XDATA, add(CFA_XSP16, literal(-6)))
        CFI (cfiCond34) ?RET_LOW load(1, XDATA, add(CFA_XSP16, literal(-5)))
        CFI (cfiCond34) ?RET_HIGH load(1, XDATA, add(CFA_XSP16, literal(-4)))
        CFI (cfiCond34) ?BRET_EXT load(1, XDATA, add(CFA_XSP16, literal(-3)))
        CFI (cfiCond34) DPL0 load(1, XDATA, add(CFA_XSP16, literal(-2)))
        CFI (cfiCond34) DPH0 load(1, XDATA, add(CFA_XSP16, literal(-1)))
        CFI (cfiCond34) CFA_SP SP+0
        CFI (cfiCond34) CFA_XSP16 add(XSP16, 33)
        CFI Block cfiCond35 Using cfiCommon0
        CFI (cfiCond35) NoFunction
        CFI (cfiCond35) Conditional ??CrossCallReturnLabel_31
        CFI (cfiCond35) R6 load(1, XDATA, add(CFA_XSP16, literal(-11)))
        CFI (cfiCond35) VB load(1, XDATA, add(CFA_XSP16, literal(-10)))
        CFI (cfiCond35) V0 load(1, XDATA, add(CFA_XSP16, literal(-9)))
        CFI (cfiCond35) V1 load(1, XDATA, add(CFA_XSP16, literal(-8)))
        CFI (cfiCond35) V2 load(1, XDATA, add(CFA_XSP16, literal(-7)))
        CFI (cfiCond35) R7 load(1, XDATA, add(CFA_XSP16, literal(-6)))
        CFI (cfiCond35) ?RET_LOW load(1, XDATA, add(CFA_XSP16, literal(-5)))
        CFI (cfiCond35) ?RET_HIGH load(1, XDATA, add(CFA_XSP16, literal(-4)))
        CFI (cfiCond35) ?BRET_EXT load(1, XDATA, add(CFA_XSP16, literal(-3)))
        CFI (cfiCond35) DPL0 load(1, XDATA, add(CFA_XSP16, literal(-2)))
        CFI (cfiCond35) DPH0 load(1, XDATA, add(CFA_XSP16, literal(-1)))
        CFI (cfiCond35) CFA_SP SP+0
        CFI (cfiCond35) CFA_XSP16 add(XSP16, 38)
        CFI Block cfiPicker36 Using cfiCommon1
        CFI (cfiPicker36) NoFunction
        CFI (cfiPicker36) Picker
        LCALL   ??AF_DataRequest?relay
        MOV     A,#0x9
        RET
        CFI EndBlock cfiCond32
        CFI EndBlock cfiCond33
        CFI EndBlock cfiCond34
        CFI EndBlock cfiCond35
        CFI EndBlock cfiPicker36

        RSEG BANKED_CODE:CODE:NOROOT(0)
?Subroutine6:
        CFI Block cfiCond37 Using cfiCommon0
        CFI NoFunction
        CFI Conditional ??CrossCallReturnLabel_10
        CFI R6 load(1, XDATA, add(CFA_XSP16, literal(-14)))
        CFI VB load(1, XDATA, add(CFA_XSP16, literal(-13)))
        CFI V0 load(1, XDATA, add(CFA_XSP16, literal(-12)))
        CFI V1 load(1, XDATA, add(CFA_XSP16, literal(-11)))
        CFI V2 load(1, XDATA, add(CFA_XSP16, literal(-10)))
        CFI V3 load(1, XDATA, add(CFA_XSP16, literal(-9)))
        CFI V4 load(1, XDATA, add(CFA_XSP16, literal(-8)))
        CFI V5 load(1, XDATA, add(CFA_XSP16, literal(-7)))
        CFI R7 load(1, XDATA, add(CFA_XSP16, literal(-6)))
        CFI ?RET_LOW load(1, XDATA, add(CFA_XSP16, literal(-5)))
        CFI ?RET_HIGH load(1, XDATA, add(CFA_XSP16, literal(-4)))
        CFI ?BRET_EXT load(1, XDATA, add(CFA_XSP16, literal(-3)))
        CFI DPL0 load(1, XDATA, add(CFA_XSP16, literal(-2)))
        CFI DPH0 load(1, XDATA, add(CFA_XSP16, literal(-1)))
        CFI CFA_SP SP+0
        CFI CFA_XSP16 add(XSP16, 24)
        CFI Block cfiCond38 Using cfiCommon0
        CFI (cfiCond38) NoFunction
        CFI (cfiCond38) Conditional ??CrossCallReturnLabel_11
        CFI (cfiCond38) R6 load(1, XDATA, add(CFA_XSP16, literal(-14)))
        CFI (cfiCond38) VB load(1, XDATA, add(CFA_XSP16, literal(-13)))
        CFI (cfiCond38) V0 load(1, XDATA, add(CFA_XSP16, literal(-12)))
        CFI (cfiCond38) V1 load(1, XDATA, add(CFA_XSP16, literal(-11)))
        CFI (cfiCond38) V2 load(1, XDATA, add(CFA_XSP16, literal(-10)))
        CFI (cfiCond38) V3 load(1, XDATA, add(CFA_XSP16, literal(-9)))
        CFI (cfiCond38) V4 load(1, XDATA, add(CFA_XSP16, literal(-8)))
        CFI (cfiCond38) V5 load(1, XDATA, add(CFA_XSP16, literal(-7)))
        CFI (cfiCond38) R7 load(1, XDATA, add(CFA_XSP16, literal(-6)))
        CFI (cfiCond38) ?RET_LOW load(1, XDATA, add(CFA_XSP16, literal(-5)))
        CFI (cfiCond38) ?RET_HIGH load(1, XDATA, add(CFA_XSP16, literal(-4)))
        CFI (cfiCond38) ?BRET_EXT load(1, XDATA, add(CFA_XSP16, literal(-3)))
        CFI (cfiCond38) DPL0 load(1, XDATA, add(CFA_XSP16, literal(-2)))
        CFI (cfiCond38) DPH0 load(1, XDATA, add(CFA_XSP16, literal(-1)))
        CFI (cfiCond38) CFA_SP SP+0
        CFI (cfiCond38) CFA_XSP16 add(XSP16, 24)
        CFI Block cfiPicker39 Using cfiCommon1
        CFI (cfiPicker39) NoFunction
        CFI (cfiPicker39) Picker
        LCALL   ?Subroutine13 & 0xFFFF
??CrossCallReturnLabel_24:
        INC     DPTR
        RET
        CFI EndBlock cfiCond37
        CFI EndBlock cfiCond38
        CFI EndBlock cfiPicker39

        RSEG BANKED_CODE:CODE:NOROOT(0)
?Subroutine13:
        CFI Block cfiCond40 Using cfiCommon0
        CFI NoFunction
        CFI Conditional ??CrossCallReturnLabel_23
        CFI R6 load(1, XDATA, add(CFA_XSP16, literal(-14)))
        CFI VB load(1, XDATA, add(CFA_XSP16, literal(-13)))
        CFI V0 load(1, XDATA, add(CFA_XSP16, literal(-12)))
        CFI V1 load(1, XDATA, add(CFA_XSP16, literal(-11)))
        CFI V2 load(1, XDATA, add(CFA_XSP16, literal(-10)))
        CFI V3 load(1, XDATA, add(CFA_XSP16, literal(-9)))
        CFI V4 load(1, XDATA, add(CFA_XSP16, literal(-8)))
        CFI V5 load(1, XDATA, add(CFA_XSP16, literal(-7)))
        CFI R7 load(1, XDATA, add(CFA_XSP16, literal(-6)))
        CFI ?RET_LOW load(1, XDATA, add(CFA_XSP16, literal(-5)))
        CFI ?RET_HIGH load(1, XDATA, add(CFA_XSP16, literal(-4)))
        CFI ?BRET_EXT load(1, XDATA, add(CFA_XSP16, literal(-3)))
        CFI DPL0 load(1, XDATA, add(CFA_XSP16, literal(-2)))
        CFI DPH0 load(1, XDATA, add(CFA_XSP16, literal(-1)))
        CFI CFA_SP SP+0
        CFI CFA_XSP16 add(XSP16, 24)
        CFI Block cfiCond41 Using cfiCommon0
        CFI (cfiCond41) NoFunction
        CFI (cfiCond41) Conditional ??CrossCallReturnLabel_24, ??CrossCallReturnLabel_10
        CFI (cfiCond41) R6 load(1, XDATA, add(CFA_XSP16, literal(-14)))
        CFI (cfiCond41) VB load(1, XDATA, add(CFA_XSP16, literal(-13)))
        CFI (cfiCond41) V0 load(1, XDATA, add(CFA_XSP16, literal(-12)))
        CFI (cfiCond41) V1 load(1, XDATA, add(CFA_XSP16, literal(-11)))
        CFI (cfiCond41) V2 load(1, XDATA, add(CFA_XSP16, literal(-10)))
        CFI (cfiCond41) V3 load(1, XDATA, add(CFA_XSP16, literal(-9)))
        CFI (cfiCond41) V4 load(1, XDATA, add(CFA_XSP16, literal(-8)))
        CFI (cfiCond41) V5 load(1, XDATA, add(CFA_XSP16, literal(-7)))
        CFI (cfiCond41) R7 load(1, XDATA, add(CFA_XSP16, literal(-6)))
        CFI (cfiCond41) ?RET_LOW load(1, XDATA, add(CFA_XSP16, literal(-5)))
        CFI (cfiCond41) ?RET_HIGH load(1, XDATA, add(CFA_XSP16, literal(-4)))
        CFI (cfiCond41) ?BRET_EXT load(1, XDATA, add(CFA_XSP16, literal(-3)))
        CFI (cfiCond41) DPL0 load(1, XDATA, add(CFA_XSP16, literal(-2)))
        CFI (cfiCond41) DPH0 load(1, XDATA, add(CFA_XSP16, literal(-1)))
        CFI (cfiCond41) CFA_SP SP+0
        CFI (cfiCond41) CFA_XSP16 add(XSP16, 24)
        CFI Block cfiCond42 Using cfiCommon0
        CFI (cfiCond42) NoFunction
        CFI (cfiCond42) Conditional ??CrossCallReturnLabel_24, ??CrossCallReturnLabel_11
        CFI (cfiCond42) R6 load(1, XDATA, add(CFA_XSP16, literal(-14)))
        CFI (cfiCond42) VB load(1, XDATA, add(CFA_XSP16, literal(-13)))
        CFI (cfiCond42) V0 load(1, XDATA, add(CFA_XSP16, literal(-12)))
        CFI (cfiCond42) V1 load(1, XDATA, add(CFA_XSP16, literal(-11)))
        CFI (cfiCond42) V2 load(1, XDATA, add(CFA_XSP16, literal(-10)))
        CFI (cfiCond42) V3 load(1, XDATA, add(CFA_XSP16, literal(-9)))
        CFI (cfiCond42) V4 load(1, XDATA, add(CFA_XSP16, literal(-8)))
        CFI (cfiCond42) V5 load(1, XDATA, add(CFA_XSP16, literal(-7)))
        CFI (cfiCond42) R7 load(1, XDATA, add(CFA_XSP16, literal(-6)))
        CFI (cfiCond42) ?RET_LOW load(1, XDATA, add(CFA_XSP16, literal(-5)))
        CFI (cfiCond42) ?RET_HIGH load(1, XDATA, add(CFA_XSP16, literal(-4)))
        CFI (cfiCond42) ?BRET_EXT load(1, XDATA, add(CFA_XSP16, literal(-3)))
        CFI (cfiCond42) DPL0 load(1, XDATA, add(CFA_XSP16, literal(-2)))
        CFI (cfiCond42) DPH0 load(1, XDATA, add(CFA_XSP16, literal(-1)))
        CFI (cfiCond42) CFA_SP SP+0
        CFI (cfiCond42) CFA_XSP16 add(XSP16, 24)
        CFI Block cfiPicker43 Using cfiCommon1
        CFI (cfiPicker43) NoFunction
        CFI (cfiPicker43) Picker
        MOVX    @DPTR,A
        MOV     DPL,?V0 + 2
        MOV     DPH,?V0 + 3
        INC     DPTR
        RET
        CFI EndBlock cfiCond40
        CFI EndBlock cfiCond41
        CFI EndBlock cfiCond42
        CFI EndBlock cfiPicker43
//  552 
//  553 /*
//  554 *协调器收到上位机串口数据处理函数
//  555 */

        RSEG BANKED_CODE:CODE:NOROOT(0)
//  556 void SampleApp_Send_CMD_Message(afIncomingMSGPacket_t *pckt)
SampleApp_Send_CMD_Message:
        CFI Block cfiBlock44 Using cfiCommon0
        CFI Function SampleApp_Send_CMD_Message
        CODE
//  557 {
        FUNCALL SampleApp_Send_CMD_Message, osal_memcpy
        LOCFRAME ISTACK, 0, STACK
        LOCFRAME PSTACK, 0, STACK
        LOCFRAME XSTACK, 32, STACK
        LOCFRAME IOVERLAY, 0, STATIC
        LOCFRAME DOVERLAY, 0, STATIC
        ARGFRAME ISTACK, 0, STACK
        ARGFRAME PSTACK, 0, STACK
        ARGFRAME XSTACK, 32, STACK
        ARGFRAME IOVERLAY, 0, STATIC
        ARGFRAME DOVERLAY, 0, STATIC
        FUNCALL SampleApp_Send_CMD_Message, AF_DataRequest
        LOCFRAME ISTACK, 0, STACK
        LOCFRAME PSTACK, 0, STACK
        LOCFRAME XSTACK, 38, STACK
        LOCFRAME IOVERLAY, 0, STATIC
        LOCFRAME DOVERLAY, 0, STATIC
        ARGFRAME ISTACK, 0, STACK
        ARGFRAME PSTACK, 0, STACK
        ARGFRAME XSTACK, 38, STACK
        ARGFRAME IOVERLAY, 0, STATIC
        ARGFRAME DOVERLAY, 0, STATIC
        MOV     A,#-0xb
        LCALL   ?BANKED_ENTER_XDATA
        CFI DPH0 load(1, XDATA, add(CFA_XSP16, literal(-1)))
        CFI DPL0 load(1, XDATA, add(CFA_XSP16, literal(-2)))
        CFI ?BRET_EXT load(1, XDATA, add(CFA_XSP16, literal(-3)))
        CFI ?RET_HIGH load(1, XDATA, add(CFA_XSP16, literal(-4)))
        CFI ?RET_LOW load(1, XDATA, add(CFA_XSP16, literal(-5)))
        CFI R7 load(1, XDATA, add(CFA_XSP16, literal(-6)))
        CFI V2 load(1, XDATA, add(CFA_XSP16, literal(-7)))
        CFI V1 load(1, XDATA, add(CFA_XSP16, literal(-8)))
        CFI V0 load(1, XDATA, add(CFA_XSP16, literal(-9)))
        CFI VB load(1, XDATA, add(CFA_XSP16, literal(-10)))
        CFI R6 load(1, XDATA, add(CFA_XSP16, literal(-11)))
        CFI CFA_SP SP+0
        CFI CFA_XSP16 add(XSP16, 11)
        ; Saved register size: 11
        ; Auto size: 18
        MOV     A,#-0x12
        LCALL   ?ALLOC_XSTACK8
        CFI CFA_XSP16 add(XSP16, 29)
//  558   uint8 data_buf[18];
//  559   uint8 len = 18;
//  560  
//  561   osal_memcpy(data_buf, (uint8 *)pckt+2, 18);
        ; Setup parameters for call to function osal_memcpy
        MOV     DPL,R2
        MOV     DPH,R3
        INC     DPTR
        INC     DPTR
        MOV     R1,DPL
        MOV     R2,DPH
        MOV     ?V0 + 0,R1
        MOV     ?V0 + 1,R2
        MOV     ?V0 + 2,#0x0
        MOV     R0,#?V0 + 0
        LCALL   ?PUSH_XSTACK_I_THREE
        CFI CFA_XSP16 add(XSP16, 32)
        MOV     R4,#0x12
        MOV     R5,#0x0
        MOV     A,#0x3
        LCALL   ?XSTACK_DISP0_8
        MOV     R2,DPL
        MOV     R3,DPH
        LCALL   ??osal_memcpy?relay
        MOV     A,#0x3
        LCALL   ?DEALLOC_XSTACK8
        CFI CFA_XSP16 add(XSP16, 29)
//  562   //HalUARTWrite(1, data_buf, 18); 
//  563   if((data_buf[0]==0xee) && (data_buf[1]==0xcc) && (data_buf[17]==0xff) && (len==18))
        MOV     DPL,?XSP + 0
        MOV     DPH,?XSP + 1
        MOVX    A,@DPTR
        XRL     A,#0xee
        JNZ     ??SampleApp_Send_CMD_Message_0
        MOV     A,#0x1
        LCALL   ?XSTACK_DISP0_8
        MOVX    A,@DPTR
        XRL     A,#0xcc
        JNZ     ??SampleApp_Send_CMD_Message_0
        MOV     A,#0x11
        LCALL   ?XSTACK_DISP0_8
        MOVX    A,@DPTR
        CPL     A
        JNZ     ??SampleApp_Send_CMD_Message_0
//  564   {
//  565     SampleApp_P2P_DstAddr.addrMode = (afAddrMode_t)afAddr16Bit;
        LCALL   ?Subroutine5 & 0xFFFF
//  566     SampleApp_P2P_DstAddr.endPoint = SAMPLEAPP_ENDPOINT;
//  567     SampleApp_P2P_DstAddr.addr.shortAddr = BUILD_UINT16(data_buf[6], data_buf[5]);
??CrossCallReturnLabel_35:
        MOV     A,#0x6
        LCALL   ?XSTACK_DISP0_8
        MOVX    A,@DPTR
        MOV     R2,A
        MOV     A,#0x5
        LCALL   ?XSTACK_DISP0_8
        MOVX    A,@DPTR
        MOV     R1,A
        MOV     A,R2
        MOV     DPTR,#SampleApp_P2P_DstAddr
        MOVX    @DPTR,A
        INC     DPTR
        MOV     A,R1
        MOVX    @DPTR,A
//  568   
//  569     if ( AF_DataRequest( &SampleApp_P2P_DstAddr, &SampleApp_epDesc,
//  570                          SAMPLEAPP_CMD_CLUSTERID,
//  571                          len,
//  572                          data_buf,
//  573                          &SampleApp_TransID,
//  574                          AF_DISCV_ROUTE,
//  575                          AF_DEFAULT_RADIUS ) == afStatus_SUCCESS )
        ; Setup parameters for call to function AF_DataRequest
        MOV     ?V0 + 0,#0x1e
        MOV     R0,#?V0 + 0
        LCALL   ?PUSH_XSTACK_I_ONE
        CFI CFA_XSP16 add(XSP16, 30)
        MOV     ?V0 + 0,#SampleApp_TransID & 0xff
        MOV     ?V0 + 1,#(SampleApp_TransID >> 8) & 0xff
        MOV     R0,#?V0 + 0
        LCALL   ?PUSH_XSTACK_I_TWO
        CFI CFA_XSP16 add(XSP16, 32)
        MOV     A,#0x3
        LCALL   ?XSTACK_DISP0_8
        MOV     ?V0 + 0,DPL
        MOV     ?V0 + 1,DPH
        MOV     R0,#?V0 + 0
        LCALL   ?PUSH_XSTACK_I_TWO
        CFI CFA_XSP16 add(XSP16, 34)
        MOV     ?V0 + 0,#0x12
        MOV     ?V0 + 1,#0x0
        MOV     R0,#?V0 + 0
        LCALL   ?PUSH_XSTACK_I_TWO
        CFI CFA_XSP16 add(XSP16, 36)
        MOV     ?V0 + 0,#0x4
        MOV     R0,#?V0 + 0
        LCALL   ?PUSH_XSTACK_I_TWO
        CFI CFA_XSP16 add(XSP16, 38)
        LCALL   ?Subroutine10 & 0xFFFF
??CrossCallReturnLabel_31:
        LCALL   ?DEALLOC_XSTACK8
        CFI CFA_XSP16 add(XSP16, 29)
        MOV     A,R1
        JNZ     ??SampleApp_Send_CMD_Message_0
//  576     {    
//  577       asm("NOP");
        NOP
//  578     }
//  579     else
//  580     {
//  581       //HalLedBlink( HAL_LED_1, 2, 50, (1000 / 4) );
//  582       //Error occurred in request to send.
//  583     }
//  584   }
//  585 }
??SampleApp_Send_CMD_Message_0:
        MOV     A,#0x12
        LCALL   ?DEALLOC_XSTACK8
        CFI CFA_XSP16 add(XSP16, 11)
        LJMP    ?Subroutine0 & 0xFFFF
        CFI EndBlock cfiBlock44

        RSEG BANKED_CODE:CODE:NOROOT(0)
?Subroutine5:
        CFI Block cfiCond45 Using cfiCommon0
        CFI NoFunction
        CFI Conditional ??CrossCallReturnLabel_34
        CFI R6 load(1, XDATA, add(CFA_XSP16, literal(-11)))
        CFI VB load(1, XDATA, add(CFA_XSP16, literal(-10)))
        CFI V0 load(1, XDATA, add(CFA_XSP16, literal(-9)))
        CFI V1 load(1, XDATA, add(CFA_XSP16, literal(-8)))
        CFI V2 load(1, XDATA, add(CFA_XSP16, literal(-7)))
        CFI R7 load(1, XDATA, add(CFA_XSP16, literal(-6)))
        CFI ?RET_LOW load(1, XDATA, add(CFA_XSP16, literal(-5)))
        CFI ?RET_HIGH load(1, XDATA, add(CFA_XSP16, literal(-4)))
        CFI ?BRET_EXT load(1, XDATA, add(CFA_XSP16, literal(-3)))
        CFI DPL0 load(1, XDATA, add(CFA_XSP16, literal(-2)))
        CFI DPH0 load(1, XDATA, add(CFA_XSP16, literal(-1)))
        CFI CFA_SP SP+0
        CFI CFA_XSP16 add(XSP16, 11)
        CFI Block cfiCond46 Using cfiCommon0
        CFI (cfiCond46) NoFunction
        CFI (cfiCond46) Conditional ??CrossCallReturnLabel_35
        CFI (cfiCond46) R6 load(1, XDATA, add(CFA_XSP16, literal(-11)))
        CFI (cfiCond46) VB load(1, XDATA, add(CFA_XSP16, literal(-10)))
        CFI (cfiCond46) V0 load(1, XDATA, add(CFA_XSP16, literal(-9)))
        CFI (cfiCond46) V1 load(1, XDATA, add(CFA_XSP16, literal(-8)))
        CFI (cfiCond46) V2 load(1, XDATA, add(CFA_XSP16, literal(-7)))
        CFI (cfiCond46) R7 load(1, XDATA, add(CFA_XSP16, literal(-6)))
        CFI (cfiCond46) ?RET_LOW load(1, XDATA, add(CFA_XSP16, literal(-5)))
        CFI (cfiCond46) ?RET_HIGH load(1, XDATA, add(CFA_XSP16, literal(-4)))
        CFI (cfiCond46) ?BRET_EXT load(1, XDATA, add(CFA_XSP16, literal(-3)))
        CFI (cfiCond46) DPL0 load(1, XDATA, add(CFA_XSP16, literal(-2)))
        CFI (cfiCond46) DPH0 load(1, XDATA, add(CFA_XSP16, literal(-1)))
        CFI (cfiCond46) CFA_SP SP+0
        CFI (cfiCond46) CFA_XSP16 add(XSP16, 29)
        CFI Block cfiPicker47 Using cfiCommon1
        CFI (cfiPicker47) NoFunction
        CFI (cfiPicker47) Picker
        MOV     DPTR,#SampleApp_P2P_DstAddr + 8
        MOV     A,#0x2
        CFI EndBlock cfiCond45
        CFI EndBlock cfiCond46
        CFI EndBlock cfiPicker47
        REQUIRE ??Subroutine18_0
        ; // Fall through to label ??Subroutine18_0

        RSEG BANKED_CODE:CODE:NOROOT(0)
??Subroutine18_0:
        CFI Block cfiCond48 Using cfiCommon0
        CFI NoFunction
        CFI Conditional ??CrossCallReturnLabel_36
        CFI R6 load(1, XDATA, add(CFA_XSP16, literal(-11)))
        CFI VB load(1, XDATA, add(CFA_XSP16, literal(-10)))
        CFI V0 load(1, XDATA, add(CFA_XSP16, literal(-9)))
        CFI V1 load(1, XDATA, add(CFA_XSP16, literal(-8)))
        CFI V2 load(1, XDATA, add(CFA_XSP16, literal(-7)))
        CFI R7 load(1, XDATA, add(CFA_XSP16, literal(-6)))
        CFI ?RET_LOW load(1, XDATA, add(CFA_XSP16, literal(-5)))
        CFI ?RET_HIGH load(1, XDATA, add(CFA_XSP16, literal(-4)))
        CFI ?BRET_EXT load(1, XDATA, add(CFA_XSP16, literal(-3)))
        CFI DPL0 load(1, XDATA, add(CFA_XSP16, literal(-2)))
        CFI DPH0 load(1, XDATA, add(CFA_XSP16, literal(-1)))
        CFI CFA_SP SP+0
        CFI CFA_XSP16 add(XSP16, 11)
        CFI Block cfiCond49 Using cfiCommon0
        CFI (cfiCond49) NoFunction
        CFI (cfiCond49) Conditional ??CrossCallReturnLabel_37
        CFI (cfiCond49) R6 load(1, XDATA, add(CFA_XSP16, literal(-11)))
        CFI (cfiCond49) VB load(1, XDATA, add(CFA_XSP16, literal(-10)))
        CFI (cfiCond49) V0 load(1, XDATA, add(CFA_XSP16, literal(-9)))
        CFI (cfiCond49) V1 load(1, XDATA, add(CFA_XSP16, literal(-8)))
        CFI (cfiCond49) V2 load(1, XDATA, add(CFA_XSP16, literal(-7)))
        CFI (cfiCond49) R7 load(1, XDATA, add(CFA_XSP16, literal(-6)))
        CFI (cfiCond49) ?RET_LOW load(1, XDATA, add(CFA_XSP16, literal(-5)))
        CFI (cfiCond49) ?RET_HIGH load(1, XDATA, add(CFA_XSP16, literal(-4)))
        CFI (cfiCond49) ?BRET_EXT load(1, XDATA, add(CFA_XSP16, literal(-3)))
        CFI (cfiCond49) DPL0 load(1, XDATA, add(CFA_XSP16, literal(-2)))
        CFI (cfiCond49) DPH0 load(1, XDATA, add(CFA_XSP16, literal(-1)))
        CFI (cfiCond49) CFA_SP SP+0
        CFI (cfiCond49) CFA_XSP16 add(XSP16, 11)
        CFI Block cfiCond50 Using cfiCommon0
        CFI (cfiCond50) NoFunction
        CFI (cfiCond50) Conditional ??CrossCallReturnLabel_34
        CFI (cfiCond50) R6 load(1, XDATA, add(CFA_XSP16, literal(-11)))
        CFI (cfiCond50) VB load(1, XDATA, add(CFA_XSP16, literal(-10)))
        CFI (cfiCond50) V0 load(1, XDATA, add(CFA_XSP16, literal(-9)))
        CFI (cfiCond50) V1 load(1, XDATA, add(CFA_XSP16, literal(-8)))
        CFI (cfiCond50) V2 load(1, XDATA, add(CFA_XSP16, literal(-7)))
        CFI (cfiCond50) R7 load(1, XDATA, add(CFA_XSP16, literal(-6)))
        CFI (cfiCond50) ?RET_LOW load(1, XDATA, add(CFA_XSP16, literal(-5)))
        CFI (cfiCond50) ?RET_HIGH load(1, XDATA, add(CFA_XSP16, literal(-4)))
        CFI (cfiCond50) ?BRET_EXT load(1, XDATA, add(CFA_XSP16, literal(-3)))
        CFI (cfiCond50) DPL0 load(1, XDATA, add(CFA_XSP16, literal(-2)))
        CFI (cfiCond50) DPH0 load(1, XDATA, add(CFA_XSP16, literal(-1)))
        CFI (cfiCond50) CFA_SP SP+0
        CFI (cfiCond50) CFA_XSP16 add(XSP16, 11)
        CFI Block cfiCond51 Using cfiCommon0
        CFI (cfiCond51) NoFunction
        CFI (cfiCond51) Conditional ??CrossCallReturnLabel_35
        CFI (cfiCond51) R6 load(1, XDATA, add(CFA_XSP16, literal(-11)))
        CFI (cfiCond51) VB load(1, XDATA, add(CFA_XSP16, literal(-10)))
        CFI (cfiCond51) V0 load(1, XDATA, add(CFA_XSP16, literal(-9)))
        CFI (cfiCond51) V1 load(1, XDATA, add(CFA_XSP16, literal(-8)))
        CFI (cfiCond51) V2 load(1, XDATA, add(CFA_XSP16, literal(-7)))
        CFI (cfiCond51) R7 load(1, XDATA, add(CFA_XSP16, literal(-6)))
        CFI (cfiCond51) ?RET_LOW load(1, XDATA, add(CFA_XSP16, literal(-5)))
        CFI (cfiCond51) ?RET_HIGH load(1, XDATA, add(CFA_XSP16, literal(-4)))
        CFI (cfiCond51) ?BRET_EXT load(1, XDATA, add(CFA_XSP16, literal(-3)))
        CFI (cfiCond51) DPL0 load(1, XDATA, add(CFA_XSP16, literal(-2)))
        CFI (cfiCond51) DPH0 load(1, XDATA, add(CFA_XSP16, literal(-1)))
        CFI (cfiCond51) CFA_SP SP+0
        CFI (cfiCond51) CFA_XSP16 add(XSP16, 29)
        CFI Block cfiPicker52 Using cfiCommon1
        CFI (cfiPicker52) NoFunction
        CFI (cfiPicker52) Picker
        MOVX    @DPTR,A
        INC     DPTR
        MOV     A,#0x14
        MOVX    @DPTR,A
        RET
        CFI EndBlock cfiCond48
        CFI EndBlock cfiCond49
        CFI EndBlock cfiCond50
        CFI EndBlock cfiCond51
        CFI EndBlock cfiPicker52
//  586 
//  587 /*
//  588 *协调器收到终端发送的周期数据处理函数
//  589 */

        RSEG BANKED_CODE:CODE:NOROOT(0)
//  590 void SampleApp_NwkP2PMsgProcessing(afIncomingMSGPacket_t * pkt)
SampleApp_NwkP2PMsgProcessing:
        CFI Block cfiBlock53 Using cfiCommon0
        CFI Function SampleApp_NwkP2PMsgProcessing
        CODE
//  591 {
        FUNCALL SampleApp_NwkP2PMsgProcessing, osal_memcpy
        LOCFRAME ISTACK, 0, STACK
        LOCFRAME PSTACK, 0, STACK
        LOCFRAME XSTACK, 14, STACK
        LOCFRAME IOVERLAY, 0, STATIC
        LOCFRAME DOVERLAY, 0, STATIC
        ARGFRAME ISTACK, 0, STACK
        ARGFRAME PSTACK, 0, STACK
        ARGFRAME XSTACK, 14, STACK
        ARGFRAME IOVERLAY, 0, STATIC
        ARGFRAME DOVERLAY, 0, STATIC
        FUNCALL SampleApp_NwkP2PMsgProcessing, HalUARTWrite
        LOCFRAME ISTACK, 0, STACK
        LOCFRAME PSTACK, 0, STACK
        LOCFRAME XSTACK, 11, STACK
        LOCFRAME IOVERLAY, 0, STATIC
        LOCFRAME DOVERLAY, 0, STATIC
        ARGFRAME ISTACK, 0, STACK
        ARGFRAME PSTACK, 0, STACK
        ARGFRAME XSTACK, 11, STACK
        ARGFRAME IOVERLAY, 0, STATIC
        ARGFRAME DOVERLAY, 0, STATIC
        MOV     A,#-0xb
        LCALL   ?BANKED_ENTER_XDATA
        CFI DPH0 load(1, XDATA, add(CFA_XSP16, literal(-1)))
        CFI DPL0 load(1, XDATA, add(CFA_XSP16, literal(-2)))
        CFI ?BRET_EXT load(1, XDATA, add(CFA_XSP16, literal(-3)))
        CFI ?RET_HIGH load(1, XDATA, add(CFA_XSP16, literal(-4)))
        CFI ?RET_LOW load(1, XDATA, add(CFA_XSP16, literal(-5)))
        CFI R7 load(1, XDATA, add(CFA_XSP16, literal(-6)))
        CFI V2 load(1, XDATA, add(CFA_XSP16, literal(-7)))
        CFI V1 load(1, XDATA, add(CFA_XSP16, literal(-8)))
        CFI V0 load(1, XDATA, add(CFA_XSP16, literal(-9)))
        CFI VB load(1, XDATA, add(CFA_XSP16, literal(-10)))
        CFI R6 load(1, XDATA, add(CFA_XSP16, literal(-11)))
        CFI CFA_SP SP+0
        CFI CFA_XSP16 add(XSP16, 11)
        ; Saved register size: 11
        ; Auto size: 0
//  592   sensorValue.dataDetail.nodeAddr[2] = *pkt->cmd.Data;
        MOV     A,R2
        ADD     A,#0x22
        MOV     R0,A
        MOV     A,R3
        ADDC    A,#0x0
        MOV     R1,A
        LCALL   ?Subroutine14 & 0xFFFF
??CrossCallReturnLabel_25:
        MOVX    A,@DPTR
        MOV     DPTR,#sensorValue + 5
        LCALL   ?Subroutine4 & 0xFFFF
//  593   sensorValue.dataDetail.nodeAddr[3] = *(pkt->cmd.Data+1);
??CrossCallReturnLabel_8:
        MOVX    A,@DPTR
        MOV     DPTR,#sensorValue + 6
        MOVX    @DPTR,A
//  594   sensorValue.dataDetail.nodeChannel = _NIB.nwkLogicalChannel;
        MOV     DPTR,#_NIB + 22
        MOVX    A,@DPTR
        MOV     DPTR,#sensorValue + 7
        MOVX    @DPTR,A
//  595   sensorValue.dataDetail.nodePort    = 0x01;
        INC     DPTR
        MOV     A,#0x1
        LCALL   ?Subroutine4 & 0xFFFF
//  596   sensorValue.dataDetail.data.sensorType = *(pkt->cmd.Data+2);
??CrossCallReturnLabel_9:
        INC     DPTR
        MOVX    A,@DPTR
        MOV     DPTR,#sensorValue + 10
        LCALL   ?Subroutine3 & 0xFFFF
//  597   sensorValue.dataDetail.data.sensorID   = *(pkt->cmd.Data+3);
??CrossCallReturnLabel_6:
        MOVX    A,@DPTR
        MOV     DPTR,#sensorValue + 11
        LCALL   ?Subroutine3 & 0xFFFF
//  598   sensorValue.dataDetail.data.sensorPostion = *(pkt->cmd.Data+4);
??CrossCallReturnLabel_7:
        INC     DPTR
        MOVX    A,@DPTR
        MOV     DPTR,#sensorValue + 12
        MOVX    @DPTR,A
//  599   osal_memcpy(sensorValue.dataDetail.data.SensorData, pkt->cmd.Data+5, 4);
        ; Setup parameters for call to function osal_memcpy
        MOV     DPL,R0
        MOV     DPH,R1
        MOVX    A,@DPTR
        ADD     A,#0x5
        MOV     ?V0 + 0,A
        INC     DPTR
        MOVX    A,@DPTR
        ADDC    A,#0x0
        MOV     ?V0 + 1,A
        MOV     ?V0 + 2,#0x0
        MOV     R0,#?V0 + 0
        LCALL   ?PUSH_XSTACK_I_THREE
        CFI CFA_XSP16 add(XSP16, 14)
        MOV     R4,#0x4
        MOV     R5,#0x0
        MOV     R2,#(sensorValue + 13) & 0xff
        MOV     R3,#((sensorValue + 13) >> 8) & 0xff
        LCALL   ??osal_memcpy?relay
        MOV     A,#0x3
        LCALL   ?DEALLOC_XSTACK8
        CFI CFA_XSP16 add(XSP16, 11)
//  600   
//  601   HalUARTWrite(0, sensorValue.dataArry,DATA_AGREEMENT_LENGTH);
        ; Setup parameters for call to function HalUARTWrite
        MOV     R4,#0x12
        MOV     R5,#0x0
        MOV     R2,#sensorValue & 0xff
        MOV     R3,#(sensorValue >> 8) & 0xff
        MOV     R1,#0x0
        LCALL   ??HalUARTWrite?relay
//  602 }
        LJMP    ?Subroutine0 & 0xFFFF
        CFI EndBlock cfiBlock53

        RSEG BANKED_CODE:CODE:NOROOT(0)
?Subroutine4:
        CFI Block cfiCond54 Using cfiCommon0
        CFI NoFunction
        CFI Conditional ??CrossCallReturnLabel_8
        CFI R6 load(1, XDATA, add(CFA_XSP16, literal(-11)))
        CFI VB load(1, XDATA, add(CFA_XSP16, literal(-10)))
        CFI V0 load(1, XDATA, add(CFA_XSP16, literal(-9)))
        CFI V1 load(1, XDATA, add(CFA_XSP16, literal(-8)))
        CFI V2 load(1, XDATA, add(CFA_XSP16, literal(-7)))
        CFI R7 load(1, XDATA, add(CFA_XSP16, literal(-6)))
        CFI ?RET_LOW load(1, XDATA, add(CFA_XSP16, literal(-5)))
        CFI ?RET_HIGH load(1, XDATA, add(CFA_XSP16, literal(-4)))
        CFI ?BRET_EXT load(1, XDATA, add(CFA_XSP16, literal(-3)))
        CFI DPL0 load(1, XDATA, add(CFA_XSP16, literal(-2)))
        CFI DPH0 load(1, XDATA, add(CFA_XSP16, literal(-1)))
        CFI CFA_SP SP+0
        CFI CFA_XSP16 add(XSP16, 11)
        CFI Block cfiCond55 Using cfiCommon0
        CFI (cfiCond55) NoFunction
        CFI (cfiCond55) Conditional ??CrossCallReturnLabel_9
        CFI (cfiCond55) R6 load(1, XDATA, add(CFA_XSP16, literal(-11)))
        CFI (cfiCond55) VB load(1, XDATA, add(CFA_XSP16, literal(-10)))
        CFI (cfiCond55) V0 load(1, XDATA, add(CFA_XSP16, literal(-9)))
        CFI (cfiCond55) V1 load(1, XDATA, add(CFA_XSP16, literal(-8)))
        CFI (cfiCond55) V2 load(1, XDATA, add(CFA_XSP16, literal(-7)))
        CFI (cfiCond55) R7 load(1, XDATA, add(CFA_XSP16, literal(-6)))
        CFI (cfiCond55) ?RET_LOW load(1, XDATA, add(CFA_XSP16, literal(-5)))
        CFI (cfiCond55) ?RET_HIGH load(1, XDATA, add(CFA_XSP16, literal(-4)))
        CFI (cfiCond55) ?BRET_EXT load(1, XDATA, add(CFA_XSP16, literal(-3)))
        CFI (cfiCond55) DPL0 load(1, XDATA, add(CFA_XSP16, literal(-2)))
        CFI (cfiCond55) DPH0 load(1, XDATA, add(CFA_XSP16, literal(-1)))
        CFI (cfiCond55) CFA_SP SP+0
        CFI (cfiCond55) CFA_XSP16 add(XSP16, 11)
        CFI Block cfiPicker56 Using cfiCommon1
        CFI (cfiPicker56) NoFunction
        CFI (cfiPicker56) Picker
        LCALL   ?Subroutine12 & 0xFFFF
??CrossCallReturnLabel_21:
        RET
        CFI EndBlock cfiCond54
        CFI EndBlock cfiCond55
        CFI EndBlock cfiPicker56

        RSEG BANKED_CODE:CODE:NOROOT(0)
?Subroutine12:
        CFI Block cfiCond57 Using cfiCommon0
        CFI NoFunction
        CFI Conditional ??CrossCallReturnLabel_21, ??CrossCallReturnLabel_8
        CFI R6 load(1, XDATA, add(CFA_XSP16, literal(-11)))
        CFI VB load(1, XDATA, add(CFA_XSP16, literal(-10)))
        CFI V0 load(1, XDATA, add(CFA_XSP16, literal(-9)))
        CFI V1 load(1, XDATA, add(CFA_XSP16, literal(-8)))
        CFI V2 load(1, XDATA, add(CFA_XSP16, literal(-7)))
        CFI R7 load(1, XDATA, add(CFA_XSP16, literal(-6)))
        CFI ?RET_LOW load(1, XDATA, add(CFA_XSP16, literal(-5)))
        CFI ?RET_HIGH load(1, XDATA, add(CFA_XSP16, literal(-4)))
        CFI ?BRET_EXT load(1, XDATA, add(CFA_XSP16, literal(-3)))
        CFI DPL0 load(1, XDATA, add(CFA_XSP16, literal(-2)))
        CFI DPH0 load(1, XDATA, add(CFA_XSP16, literal(-1)))
        CFI CFA_SP SP+0
        CFI CFA_XSP16 add(XSP16, 11)
        CFI Block cfiCond58 Using cfiCommon0
        CFI (cfiCond58) NoFunction
        CFI (cfiCond58) Conditional ??CrossCallReturnLabel_21, ??CrossCallReturnLabel_9
        CFI (cfiCond58) R6 load(1, XDATA, add(CFA_XSP16, literal(-11)))
        CFI (cfiCond58) VB load(1, XDATA, add(CFA_XSP16, literal(-10)))
        CFI (cfiCond58) V0 load(1, XDATA, add(CFA_XSP16, literal(-9)))
        CFI (cfiCond58) V1 load(1, XDATA, add(CFA_XSP16, literal(-8)))
        CFI (cfiCond58) V2 load(1, XDATA, add(CFA_XSP16, literal(-7)))
        CFI (cfiCond58) R7 load(1, XDATA, add(CFA_XSP16, literal(-6)))
        CFI (cfiCond58) ?RET_LOW load(1, XDATA, add(CFA_XSP16, literal(-5)))
        CFI (cfiCond58) ?RET_HIGH load(1, XDATA, add(CFA_XSP16, literal(-4)))
        CFI (cfiCond58) ?BRET_EXT load(1, XDATA, add(CFA_XSP16, literal(-3)))
        CFI (cfiCond58) DPL0 load(1, XDATA, add(CFA_XSP16, literal(-2)))
        CFI (cfiCond58) DPH0 load(1, XDATA, add(CFA_XSP16, literal(-1)))
        CFI (cfiCond58) CFA_SP SP+0
        CFI (cfiCond58) CFA_XSP16 add(XSP16, 11)
        CFI Block cfiCond59 Using cfiCommon0
        CFI (cfiCond59) NoFunction
        CFI (cfiCond59) Conditional ??CrossCallReturnLabel_22, ??CrossCallReturnLabel_6
        CFI (cfiCond59) R6 load(1, XDATA, add(CFA_XSP16, literal(-11)))
        CFI (cfiCond59) VB load(1, XDATA, add(CFA_XSP16, literal(-10)))
        CFI (cfiCond59) V0 load(1, XDATA, add(CFA_XSP16, literal(-9)))
        CFI (cfiCond59) V1 load(1, XDATA, add(CFA_XSP16, literal(-8)))
        CFI (cfiCond59) V2 load(1, XDATA, add(CFA_XSP16, literal(-7)))
        CFI (cfiCond59) R7 load(1, XDATA, add(CFA_XSP16, literal(-6)))
        CFI (cfiCond59) ?RET_LOW load(1, XDATA, add(CFA_XSP16, literal(-5)))
        CFI (cfiCond59) ?RET_HIGH load(1, XDATA, add(CFA_XSP16, literal(-4)))
        CFI (cfiCond59) ?BRET_EXT load(1, XDATA, add(CFA_XSP16, literal(-3)))
        CFI (cfiCond59) DPL0 load(1, XDATA, add(CFA_XSP16, literal(-2)))
        CFI (cfiCond59) DPH0 load(1, XDATA, add(CFA_XSP16, literal(-1)))
        CFI (cfiCond59) CFA_SP SP+0
        CFI (cfiCond59) CFA_XSP16 add(XSP16, 11)
        CFI Block cfiCond60 Using cfiCommon0
        CFI (cfiCond60) NoFunction
        CFI (cfiCond60) Conditional ??CrossCallReturnLabel_22, ??CrossCallReturnLabel_7
        CFI (cfiCond60) R6 load(1, XDATA, add(CFA_XSP16, literal(-11)))
        CFI (cfiCond60) VB load(1, XDATA, add(CFA_XSP16, literal(-10)))
        CFI (cfiCond60) V0 load(1, XDATA, add(CFA_XSP16, literal(-9)))
        CFI (cfiCond60) V1 load(1, XDATA, add(CFA_XSP16, literal(-8)))
        CFI (cfiCond60) V2 load(1, XDATA, add(CFA_XSP16, literal(-7)))
        CFI (cfiCond60) R7 load(1, XDATA, add(CFA_XSP16, literal(-6)))
        CFI (cfiCond60) ?RET_LOW load(1, XDATA, add(CFA_XSP16, literal(-5)))
        CFI (cfiCond60) ?RET_HIGH load(1, XDATA, add(CFA_XSP16, literal(-4)))
        CFI (cfiCond60) ?BRET_EXT load(1, XDATA, add(CFA_XSP16, literal(-3)))
        CFI (cfiCond60) DPL0 load(1, XDATA, add(CFA_XSP16, literal(-2)))
        CFI (cfiCond60) DPH0 load(1, XDATA, add(CFA_XSP16, literal(-1)))
        CFI (cfiCond60) CFA_SP SP+0
        CFI (cfiCond60) CFA_XSP16 add(XSP16, 11)
        CFI Block cfiPicker61 Using cfiCommon1
        CFI (cfiPicker61) NoFunction
        CFI (cfiPicker61) Picker
        MOVX    @DPTR,A
        LCALL   ?Subroutine14 & 0xFFFF
??CrossCallReturnLabel_26:
        INC     DPTR
        RET
        CFI EndBlock cfiCond57
        CFI EndBlock cfiCond58
        CFI EndBlock cfiCond59
        CFI EndBlock cfiCond60
        CFI EndBlock cfiPicker61

        RSEG BANKED_CODE:CODE:NOROOT(0)
?Subroutine14:
        CFI Block cfiCond62 Using cfiCommon0
        CFI NoFunction
        CFI Conditional ??CrossCallReturnLabel_25
        CFI R6 load(1, XDATA, add(CFA_XSP16, literal(-11)))
        CFI VB load(1, XDATA, add(CFA_XSP16, literal(-10)))
        CFI V0 load(1, XDATA, add(CFA_XSP16, literal(-9)))
        CFI V1 load(1, XDATA, add(CFA_XSP16, literal(-8)))
        CFI V2 load(1, XDATA, add(CFA_XSP16, literal(-7)))
        CFI R7 load(1, XDATA, add(CFA_XSP16, literal(-6)))
        CFI ?RET_LOW load(1, XDATA, add(CFA_XSP16, literal(-5)))
        CFI ?RET_HIGH load(1, XDATA, add(CFA_XSP16, literal(-4)))
        CFI ?BRET_EXT load(1, XDATA, add(CFA_XSP16, literal(-3)))
        CFI DPL0 load(1, XDATA, add(CFA_XSP16, literal(-2)))
        CFI DPH0 load(1, XDATA, add(CFA_XSP16, literal(-1)))
        CFI CFA_SP SP+0
        CFI CFA_XSP16 add(XSP16, 11)
        CFI Block cfiCond63 Using cfiCommon0
        CFI (cfiCond63) NoFunction
        CFI (cfiCond63) Conditional ??CrossCallReturnLabel_26, ??CrossCallReturnLabel_21, ??CrossCallReturnLabel_8
        CFI (cfiCond63) R6 load(1, XDATA, add(CFA_XSP16, literal(-11)))
        CFI (cfiCond63) VB load(1, XDATA, add(CFA_XSP16, literal(-10)))
        CFI (cfiCond63) V0 load(1, XDATA, add(CFA_XSP16, literal(-9)))
        CFI (cfiCond63) V1 load(1, XDATA, add(CFA_XSP16, literal(-8)))
        CFI (cfiCond63) V2 load(1, XDATA, add(CFA_XSP16, literal(-7)))
        CFI (cfiCond63) R7 load(1, XDATA, add(CFA_XSP16, literal(-6)))
        CFI (cfiCond63) ?RET_LOW load(1, XDATA, add(CFA_XSP16, literal(-5)))
        CFI (cfiCond63) ?RET_HIGH load(1, XDATA, add(CFA_XSP16, literal(-4)))
        CFI (cfiCond63) ?BRET_EXT load(1, XDATA, add(CFA_XSP16, literal(-3)))
        CFI (cfiCond63) DPL0 load(1, XDATA, add(CFA_XSP16, literal(-2)))
        CFI (cfiCond63) DPH0 load(1, XDATA, add(CFA_XSP16, literal(-1)))
        CFI (cfiCond63) CFA_SP SP+0
        CFI (cfiCond63) CFA_XSP16 add(XSP16, 11)
        CFI Block cfiCond64 Using cfiCommon0
        CFI (cfiCond64) NoFunction
        CFI (cfiCond64) Conditional ??CrossCallReturnLabel_26, ??CrossCallReturnLabel_21, ??CrossCallReturnLabel_9
        CFI (cfiCond64) R6 load(1, XDATA, add(CFA_XSP16, literal(-11)))
        CFI (cfiCond64) VB load(1, XDATA, add(CFA_XSP16, literal(-10)))
        CFI (cfiCond64) V0 load(1, XDATA, add(CFA_XSP16, literal(-9)))
        CFI (cfiCond64) V1 load(1, XDATA, add(CFA_XSP16, literal(-8)))
        CFI (cfiCond64) V2 load(1, XDATA, add(CFA_XSP16, literal(-7)))
        CFI (cfiCond64) R7 load(1, XDATA, add(CFA_XSP16, literal(-6)))
        CFI (cfiCond64) ?RET_LOW load(1, XDATA, add(CFA_XSP16, literal(-5)))
        CFI (cfiCond64) ?RET_HIGH load(1, XDATA, add(CFA_XSP16, literal(-4)))
        CFI (cfiCond64) ?BRET_EXT load(1, XDATA, add(CFA_XSP16, literal(-3)))
        CFI (cfiCond64) DPL0 load(1, XDATA, add(CFA_XSP16, literal(-2)))
        CFI (cfiCond64) DPH0 load(1, XDATA, add(CFA_XSP16, literal(-1)))
        CFI (cfiCond64) CFA_SP SP+0
        CFI (cfiCond64) CFA_XSP16 add(XSP16, 11)
        CFI Block cfiCond65 Using cfiCommon0
        CFI (cfiCond65) NoFunction
        CFI (cfiCond65) Conditional ??CrossCallReturnLabel_26, ??CrossCallReturnLabel_22, ??CrossCallReturnLabel_6
        CFI (cfiCond65) R6 load(1, XDATA, add(CFA_XSP16, literal(-11)))
        CFI (cfiCond65) VB load(1, XDATA, add(CFA_XSP16, literal(-10)))
        CFI (cfiCond65) V0 load(1, XDATA, add(CFA_XSP16, literal(-9)))
        CFI (cfiCond65) V1 load(1, XDATA, add(CFA_XSP16, literal(-8)))
        CFI (cfiCond65) V2 load(1, XDATA, add(CFA_XSP16, literal(-7)))
        CFI (cfiCond65) R7 load(1, XDATA, add(CFA_XSP16, literal(-6)))
        CFI (cfiCond65) ?RET_LOW load(1, XDATA, add(CFA_XSP16, literal(-5)))
        CFI (cfiCond65) ?RET_HIGH load(1, XDATA, add(CFA_XSP16, literal(-4)))
        CFI (cfiCond65) ?BRET_EXT load(1, XDATA, add(CFA_XSP16, literal(-3)))
        CFI (cfiCond65) DPL0 load(1, XDATA, add(CFA_XSP16, literal(-2)))
        CFI (cfiCond65) DPH0 load(1, XDATA, add(CFA_XSP16, literal(-1)))
        CFI (cfiCond65) CFA_SP SP+0
        CFI (cfiCond65) CFA_XSP16 add(XSP16, 11)
        CFI Block cfiCond66 Using cfiCommon0
        CFI (cfiCond66) NoFunction
        CFI (cfiCond66) Conditional ??CrossCallReturnLabel_26, ??CrossCallReturnLabel_22, ??CrossCallReturnLabel_7
        CFI (cfiCond66) R6 load(1, XDATA, add(CFA_XSP16, literal(-11)))
        CFI (cfiCond66) VB load(1, XDATA, add(CFA_XSP16, literal(-10)))
        CFI (cfiCond66) V0 load(1, XDATA, add(CFA_XSP16, literal(-9)))
        CFI (cfiCond66) V1 load(1, XDATA, add(CFA_XSP16, literal(-8)))
        CFI (cfiCond66) V2 load(1, XDATA, add(CFA_XSP16, literal(-7)))
        CFI (cfiCond66) R7 load(1, XDATA, add(CFA_XSP16, literal(-6)))
        CFI (cfiCond66) ?RET_LOW load(1, XDATA, add(CFA_XSP16, literal(-5)))
        CFI (cfiCond66) ?RET_HIGH load(1, XDATA, add(CFA_XSP16, literal(-4)))
        CFI (cfiCond66) ?BRET_EXT load(1, XDATA, add(CFA_XSP16, literal(-3)))
        CFI (cfiCond66) DPL0 load(1, XDATA, add(CFA_XSP16, literal(-2)))
        CFI (cfiCond66) DPH0 load(1, XDATA, add(CFA_XSP16, literal(-1)))
        CFI (cfiCond66) CFA_SP SP+0
        CFI (cfiCond66) CFA_XSP16 add(XSP16, 11)
        CFI Block cfiPicker67 Using cfiCommon1
        CFI (cfiPicker67) NoFunction
        CFI (cfiPicker67) Picker
        MOV     DPL,R0
        MOV     DPH,R1
        MOVX    A,@DPTR
        MOV     R2,A
        INC     DPTR
        MOVX    A,@DPTR
        MOV     DPH,A
        MOV     DPL,R2
        RET
        CFI EndBlock cfiCond62
        CFI EndBlock cfiCond63
        CFI EndBlock cfiCond64
        CFI EndBlock cfiCond65
        CFI EndBlock cfiCond66
        CFI EndBlock cfiPicker67

        RSEG BANKED_CODE:CODE:NOROOT(0)
?Subroutine3:
        CFI Block cfiCond68 Using cfiCommon0
        CFI NoFunction
        CFI Conditional ??CrossCallReturnLabel_6
        CFI R6 load(1, XDATA, add(CFA_XSP16, literal(-11)))
        CFI VB load(1, XDATA, add(CFA_XSP16, literal(-10)))
        CFI V0 load(1, XDATA, add(CFA_XSP16, literal(-9)))
        CFI V1 load(1, XDATA, add(CFA_XSP16, literal(-8)))
        CFI V2 load(1, XDATA, add(CFA_XSP16, literal(-7)))
        CFI R7 load(1, XDATA, add(CFA_XSP16, literal(-6)))
        CFI ?RET_LOW load(1, XDATA, add(CFA_XSP16, literal(-5)))
        CFI ?RET_HIGH load(1, XDATA, add(CFA_XSP16, literal(-4)))
        CFI ?BRET_EXT load(1, XDATA, add(CFA_XSP16, literal(-3)))
        CFI DPL0 load(1, XDATA, add(CFA_XSP16, literal(-2)))
        CFI DPH0 load(1, XDATA, add(CFA_XSP16, literal(-1)))
        CFI CFA_SP SP+0
        CFI CFA_XSP16 add(XSP16, 11)
        CFI Block cfiCond69 Using cfiCommon0
        CFI (cfiCond69) NoFunction
        CFI (cfiCond69) Conditional ??CrossCallReturnLabel_7
        CFI (cfiCond69) R6 load(1, XDATA, add(CFA_XSP16, literal(-11)))
        CFI (cfiCond69) VB load(1, XDATA, add(CFA_XSP16, literal(-10)))
        CFI (cfiCond69) V0 load(1, XDATA, add(CFA_XSP16, literal(-9)))
        CFI (cfiCond69) V1 load(1, XDATA, add(CFA_XSP16, literal(-8)))
        CFI (cfiCond69) V2 load(1, XDATA, add(CFA_XSP16, literal(-7)))
        CFI (cfiCond69) R7 load(1, XDATA, add(CFA_XSP16, literal(-6)))
        CFI (cfiCond69) ?RET_LOW load(1, XDATA, add(CFA_XSP16, literal(-5)))
        CFI (cfiCond69) ?RET_HIGH load(1, XDATA, add(CFA_XSP16, literal(-4)))
        CFI (cfiCond69) ?BRET_EXT load(1, XDATA, add(CFA_XSP16, literal(-3)))
        CFI (cfiCond69) DPL0 load(1, XDATA, add(CFA_XSP16, literal(-2)))
        CFI (cfiCond69) DPH0 load(1, XDATA, add(CFA_XSP16, literal(-1)))
        CFI (cfiCond69) CFA_SP SP+0
        CFI (cfiCond69) CFA_XSP16 add(XSP16, 11)
        CFI Block cfiPicker70 Using cfiCommon1
        CFI (cfiPicker70) NoFunction
        CFI (cfiPicker70) Picker
        LCALL   ?Subroutine12 & 0xFFFF
??CrossCallReturnLabel_22:
        INC     DPTR
        INC     DPTR
        RET
        CFI EndBlock cfiCond68
        CFI EndBlock cfiCond69
        CFI EndBlock cfiPicker70
//  603 
//  604 /*
//  605 *终端接受无线控制命令处理函数
//  606 */

        RSEG BANKED_CODE:CODE:NOROOT(0)
//  607 void SampleApp_NwkCMDMsgProcessing(afIncomingMSGPacket_t * pkt)
SampleApp_NwkCMDMsgProcessing:
        CFI Block cfiBlock71 Using cfiCommon0
        CFI Function SampleApp_NwkCMDMsgProcessing
        CODE
//  608 {
        FUNCALL SampleApp_NwkCMDMsgProcessing, CtrlRelyOne
        LOCFRAME ISTACK, 2, STACK
        LOCFRAME PSTACK, 0, STACK
        LOCFRAME XSTACK, 0, STACK
        LOCFRAME IOVERLAY, 0, STATIC
        LOCFRAME DOVERLAY, 0, STATIC
        ARGFRAME ISTACK, 2, STACK
        ARGFRAME PSTACK, 0, STACK
        ARGFRAME XSTACK, 0, STACK
        ARGFRAME IOVERLAY, 0, STATIC
        ARGFRAME DOVERLAY, 0, STATIC
        FUNCALL SampleApp_NwkCMDMsgProcessing, CtrlRelyTwo
        LOCFRAME ISTACK, 2, STACK
        LOCFRAME PSTACK, 0, STACK
        LOCFRAME XSTACK, 0, STACK
        LOCFRAME IOVERLAY, 0, STATIC
        LOCFRAME DOVERLAY, 0, STATIC
        ARGFRAME ISTACK, 2, STACK
        ARGFRAME PSTACK, 0, STACK
        ARGFRAME XSTACK, 0, STACK
        ARGFRAME IOVERLAY, 0, STATIC
        ARGFRAME DOVERLAY, 0, STATIC
        FUNCALL SampleApp_NwkCMDMsgProcessing, CtrlRelyThree
        LOCFRAME ISTACK, 2, STACK
        LOCFRAME PSTACK, 0, STACK
        LOCFRAME XSTACK, 0, STACK
        LOCFRAME IOVERLAY, 0, STATIC
        LOCFRAME DOVERLAY, 0, STATIC
        ARGFRAME ISTACK, 2, STACK
        ARGFRAME PSTACK, 0, STACK
        ARGFRAME XSTACK, 0, STACK
        ARGFRAME IOVERLAY, 0, STATIC
        ARGFRAME DOVERLAY, 0, STATIC
        PUSH    DPL
        CFI DPL0 Frame(CFA_SP, 4)
        CFI CFA_SP SP+-4
        PUSH    DPH
        CFI DPH0 Frame(CFA_SP, 5)
        CFI CFA_SP SP+-5
        ; Saved register size: 2
        ; Auto size: 0
//  609   uint8 *buf = pkt->cmd.Data;
        LCALL   ?Subroutine8 & 0xFFFF
//  610   
//  611   if(buf[0] == 0xEE && buf[1] == 0xCC && buf[17] == 0xFF)
??CrossCallReturnLabel_16:
        MOVX    A,@DPTR
        XRL     A,#0xee
        JNZ     ??SampleApp_NwkCMDMsgProcessing_0
        INC     DPTR
        MOVX    A,@DPTR
        XRL     A,#0xcc
        JNZ     ??SampleApp_NwkCMDMsgProcessing_0
        MOV     A,R0
        ADD     A,#0x11
        MOV     DPL,A
        MOV     A,R1
        ADDC    A,#0x0
        MOV     DPH,A
        MOVX    A,@DPTR
        CPL     A
        JNZ     ??SampleApp_NwkCMDMsgProcessing_0
//  612   {
//  613     switch(buf[10])
        MOV     DPL,R0
        MOV     DPH,R1
        INC     DPTR
        INC     DPTR
        INC     DPTR
        INC     DPTR
        INC     DPTR
        INC     DPTR
        INC     DPTR
        INC     DPTR
        INC     DPTR
        INC     DPTR
        MOVX    A,@DPTR
        ADD     A,#-0x11
        JZ      ??SampleApp_NwkCMDMsgProcessing_1
        ADD     A,#-0x2
        JZ      ??SampleApp_NwkCMDMsgProcessing_2
        ADD     A,#-0x3
        JZ      ??SampleApp_NwkCMDMsgProcessing_3
        SJMP    ??SampleApp_NwkCMDMsgProcessing_0
//  614     {
//  615 #ifdef DEVICE_RELAY_PUMP
//  616       case DEVICE_RELAY_PUMP:
//  617         CtrlRelyOne(buf[16]);
??SampleApp_NwkCMDMsgProcessing_2:
        ; Setup parameters for call to function CtrlRelyOne
        LCALL   ?Subroutine9 & 0xFFFF
??CrossCallReturnLabel_18:
        LCALL   ??CtrlRelyOne?relay
//  618         break;
        SJMP    ??SampleApp_NwkCMDMsgProcessing_0
//  619 #endif
//  620 #ifdef DEVICE_RELAY_LAMP
//  621       case DEVICE_RELAY_LAMP:
//  622         CtrlRelyTwo(buf[16]);
??SampleApp_NwkCMDMsgProcessing_1:
        ; Setup parameters for call to function CtrlRelyTwo
        LCALL   ?Subroutine9 & 0xFFFF
??CrossCallReturnLabel_19:
        LCALL   ??CtrlRelyTwo?relay
//  623         break;
        SJMP    ??SampleApp_NwkCMDMsgProcessing_0
//  624 #endif
//  625 #ifdef DEVICE_RELAY_COLD
//  626       case DEVICE_RELAY_COLD:
//  627         CtrlRelyThree(buf[16]);
??SampleApp_NwkCMDMsgProcessing_3:
        ; Setup parameters for call to function CtrlRelyThree
        LCALL   ?Subroutine9 & 0xFFFF
??CrossCallReturnLabel_20:
        LCALL   ??CtrlRelyThree?relay
//  628         break;
//  629 #endif
//  630       default:
//  631         break;
//  632     }
//  633   }
//  634 }
??SampleApp_NwkCMDMsgProcessing_0:
        POP     DPH
        CFI DPH0 SameValue
        CFI CFA_SP SP+-4
        POP     DPL
        CFI DPL0 SameValue
        CFI CFA_SP SP+-3
        LJMP    ?BRET
        CFI EndBlock cfiBlock71

        RSEG BANKED_CODE:CODE:NOROOT(0)
?Subroutine9:
        CFI Block cfiCond72 Using cfiCommon0
        CFI NoFunction
        CFI Conditional ??CrossCallReturnLabel_18
        CFI DPL0 Frame(CFA_SP, 4)
        CFI DPH0 Frame(CFA_SP, 5)
        CFI CFA_SP SP+-5
        CFI Block cfiCond73 Using cfiCommon0
        CFI (cfiCond73) NoFunction
        CFI (cfiCond73) Conditional ??CrossCallReturnLabel_19
        CFI (cfiCond73) DPL0 Frame(CFA_SP, 4)
        CFI (cfiCond73) DPH0 Frame(CFA_SP, 5)
        CFI (cfiCond73) CFA_SP SP+-5
        CFI Block cfiCond74 Using cfiCommon0
        CFI (cfiCond74) NoFunction
        CFI (cfiCond74) Conditional ??CrossCallReturnLabel_20
        CFI (cfiCond74) DPL0 Frame(CFA_SP, 4)
        CFI (cfiCond74) DPH0 Frame(CFA_SP, 5)
        CFI (cfiCond74) CFA_SP SP+-5
        CFI Block cfiPicker75 Using cfiCommon1
        CFI (cfiPicker75) NoFunction
        CFI (cfiPicker75) Picker
        MOV     A,R0
        ADD     A,#0x10
        MOV     DPL,A
        MOV     A,R1
        ADDC    A,#0x0
        MOV     DPH,A
        MOVX    A,@DPTR
        MOV     R1,A
        RET
        CFI EndBlock cfiCond72
        CFI EndBlock cfiCond73
        CFI EndBlock cfiCond74
        CFI EndBlock cfiPicker75

        RSEG BANKED_CODE:CODE:NOROOT(0)
?Subroutine8:
        CFI Block cfiCond76 Using cfiCommon0
        CFI NoFunction
        CFI Conditional ??CrossCallReturnLabel_17
        CFI R6 load(1, XDATA, add(CFA_XSP16, literal(-10)))
        CFI VB load(1, XDATA, add(CFA_XSP16, literal(-9)))
        CFI V0 load(1, XDATA, add(CFA_XSP16, literal(-8)))
        CFI V1 load(1, XDATA, add(CFA_XSP16, literal(-7)))
        CFI R7 load(1, XDATA, add(CFA_XSP16, literal(-6)))
        CFI ?RET_LOW load(1, XDATA, add(CFA_XSP16, literal(-5)))
        CFI ?RET_HIGH load(1, XDATA, add(CFA_XSP16, literal(-4)))
        CFI ?BRET_EXT load(1, XDATA, add(CFA_XSP16, literal(-3)))
        CFI DPL0 load(1, XDATA, add(CFA_XSP16, literal(-2)))
        CFI DPH0 load(1, XDATA, add(CFA_XSP16, literal(-1)))
        CFI CFA_SP SP+0
        CFI CFA_XSP16 add(XSP16, 10)
        CFI Block cfiCond77 Using cfiCommon0
        CFI (cfiCond77) NoFunction
        CFI (cfiCond77) Conditional ??CrossCallReturnLabel_16
        CFI (cfiCond77) DPL0 Frame(CFA_SP, 4)
        CFI (cfiCond77) DPH0 Frame(CFA_SP, 5)
        CFI (cfiCond77) CFA_SP SP+-5
        CFI Block cfiPicker78 Using cfiCommon1
        CFI (cfiPicker78) NoFunction
        CFI (cfiPicker78) Picker
        MOV     A,R2
        ADD     A,#0x22
        MOV     DPL,A
        MOV     A,R3
        ADDC    A,#0x0
        MOV     DPH,A
        MOVX    A,@DPTR
        MOV     R0,A
        INC     DPTR
        MOVX    A,@DPTR
        MOV     R1,A
        ; Setup parameters for call to function HalLedBlink
        MOV     DPL,R0
        MOV     DPH,R1
        RET
        CFI EndBlock cfiCond76
        CFI EndBlock cfiCond77
        CFI EndBlock cfiPicker78

        RSEG XDATA_ID:CODE:NOROOT(0)
`?<Initializer for AppTitle>`:
        DB "ALD2530 DHT11"

        RSEG XDATA_ID:CODE:NOROOT(0)
`?<Initializer for sensorValue>`:
        DATA8
        DB 238
        DB 204
        DB 1
        DB 0
        DB 0
        DB 0
        DB 0
        DB 0
        DB 0
        DB 7
        DB 0
        DB 0
        DB 0
        DB 0
        DB 0
        DB 0
        DB 0
        DB 255

        RSEG BANK_RELAYS:CODE:REORDER:NOROOT(0)
??SampleApp_Init?relay:
        LCALL   ?BDISPATCH
        DATA
        DC24    SampleApp_Init

        RSEG BANK_RELAYS:CODE:REORDER:NOROOT(0)
??SampleApp_ProcessEvent?relay:
        LCALL   ?BDISPATCH
        DATA
        DC24    SampleApp_ProcessEvent

        RSEG BANK_RELAYS:CODE:REORDER:NOROOT(0)
??SampleApp_HandleKeys?relay:
        LCALL   ?BDISPATCH
        DATA
        DC24    SampleApp_HandleKeys

        RSEG BANK_RELAYS:CODE:REORDER:NOROOT(0)
??SampleApp_MessageMSGCB?relay:
        LCALL   ?BDISPATCH
        DATA
        DC24    SampleApp_MessageMSGCB

        RSEG BANK_RELAYS:CODE:REORDER:NOROOT(0)
??SampleApp_SendPeriodicMessage?relay:
        LCALL   ?BDISPATCH
        DATA
        DC24    SampleApp_SendPeriodicMessage

        RSEG BANK_RELAYS:CODE:REORDER:NOROOT(0)
??SampleApp_SendFlashMessage?relay:
        LCALL   ?BDISPATCH
        DATA
        DC24    SampleApp_SendFlashMessage

        RSEG BANK_RELAYS:CODE:REORDER:NOROOT(0)
??SampleApp_Send_P2P_Message?relay:
        LCALL   ?BDISPATCH
        DATA
        DC24    SampleApp_Send_P2P_Message

        RSEG BANK_RELAYS:CODE:REORDER:NOROOT(0)
??SampleApp_Send_CMD_Message?relay:
        LCALL   ?BDISPATCH
        DATA
        DC24    SampleApp_Send_CMD_Message

        RSEG BANK_RELAYS:CODE:REORDER:NOROOT(0)
??SampleApp_NwkP2PMsgProcessing?relay:
        LCALL   ?BDISPATCH
        DATA
        DC24    SampleApp_NwkP2PMsgProcessing

        RSEG BANK_RELAYS:CODE:REORDER:NOROOT(0)
??SampleApp_NwkCMDMsgProcessing?relay:
        LCALL   ?BDISPATCH
        DATA
        DC24    SampleApp_NwkCMDMsgProcessing

        RSEG XDATA_ROM_C:CONST:REORDER:NOROOT(0)
        DATA8
`?<Constant "Group 1">`:
        DB "Group 1"

        RSEG XDATA_ROM_C:CONST:REORDER:NOROOT(0)
        DATA8
`?<Constant "SampleApp">`:
        DB "SampleApp"

        RSEG XDATA_ROM_C:CONST:REORDER:NOROOT(0)
        DATA32
`?<Constant {0}>`:
        DATA8
        DB 0
        DB 0, 0, 0

        END
//  635 /*********************************************************************
//  636 *********************************************************************/
// 
// 1 689 bytes in segment BANKED_CODE
//    60 bytes in segment BANK_RELAYS
//    32 bytes in segment XDATA_I
//    32 bytes in segment XDATA_ID
//    42 bytes in segment XDATA_ROM_C
//    77 bytes in segment XDATA_Z
// 
// 1 781 bytes of CODE  memory
//    42 bytes of CONST memory
//   109 bytes of XDATA memory
//
//Errors: none
//Warnings: none
