///////////////////////////////////////////////////////////////////////////////
//                                                                            /
// IAR C/C++ Compiler V8.10.3.10338/W32 for 8051        26/Sep/2018  20:41:27 /
// Copyright 2004-2011 IAR Systems AB.                                        /
//                                                                            /
//    Core               =  plain                                             /
//    Code model         =  banked                                            /
//    Data model         =  large                                             /
//    Calling convention =  xdata reentrant                                   /
//    Constant location  =  data_rom                                          /
//    Dptr setup         =  1,16                                              /
//    Source file        =  F:\BYSJ\SRC\14\ZigBeePro-V1.1\Projects\zstack\Sam /
//                          ples\SampleApp\Source\SIMxxx.c                    /
//    Command line       =  -f F:\BYSJ\SRC\14\ZigBeePro-V1.1\Projects\zstack\ /
//                          Samples\SampleApp\CC2530DB\..\..\..\Tools\CC2530D /
//                          B\f8wCoord.cfg (-DCPU32MHZ -DROOT=__near_func     /
//                          -DMAC_CFG_APP_PENDING_QUEUE=TRUE                  /
//                          -DZDO_COORDINATOR -DRTR_NWK) -f                   /
//                          F:\BYSJ\SRC\14\ZigBeePro-V1.1\Projects\zstack\Sam /
//                          ples\SampleApp\CC2530DB\..\..\..\Tools\CC2530DB\f /
//                          8wConfig.cfg (-DZIGBEEPRO -DSECURE=0              /
//                          -DZG_SECURE_DYNAMIC=0 -DREFLECTOR                 /
//                          -DDEFAULT_CHANLIST=0x00000800                     /
//                          -DZDAPP_CONFIG_PAN_ID=0x1234                      /
//                          -DNWK_START_DELAY=100 -DEXTENDED_JOINING_RANDOM_M /
//                          ASK=0x007F -DBEACON_REQUEST_DELAY=100             /
//                          -DBEACON_REQ_DELAY_MASK=0x00FF                    /
//                          -DLINK_STATUS_JITTER_MASK=0x007F                  /
//                          -DROUTE_EXPIRY_TIME=30 -DAPSC_ACK_WAIT_DURATION_P /
//                          OLLED=3000 -DNWK_INDIRECT_MSG_TIMEOUT=7           /
//                          -DMAX_RREQ_ENTRIES=8 -DAPSC_MAX_FRAME_RETRIES=3   /
//                          -DNWK_MAX_DATA_RETRIES=2                          /
//                          -DMAX_POLL_FAILURE_RETRIES=2 -DMAX_BCAST=9        /
//                          -DAPS_MAX_GROUPS=16 -DMAX_RTG_ENTRIES=40          /
//                          -DNWK_MAX_BINDING_ENTRIES=4                       /
//                          -DMAX_BINDING_CLUSTER_IDS=4                       /
//                          "-DDEFAULT_KEY={0x01, 0x03, 0x05, 0x07, 0x09,     /
//                          0x0B, 0x0D, 0x0F, 0x00, 0x02, 0x04, 0x06, 0x08,   /
//                          0x0A, 0x0C, 0x0D}" -DMAC_MAX_FRAME_SIZE=116       /
//                          -DZDNWKMGR_MIN_TRANSMISSIONS=20 "-DCONST=const    /
//                          __code" -DGENERIC=__generic                       /
//                          -DRFD_RCVC_ALWAYS_ON=FALSE -DPOLL_RATE=1000       /
//                          -DQUEUED_POLL_RATE=100 -DRESPONSE_POLL_RATE=100)  /
//                          -DREJOIN_POLL_RATE=440 F:\BYSJ\SRC\14\ZigBeePro-V /
//                          1.1\Projects\zstack\Samples\SampleApp\Source\SIMx /
//                          xx.c -D COOR_DEVICE_UART1 -D ZTOOL_P1 -D MT_TASK  /
//                          -D MT_SYS_FUNC -D MT_ZDO_FUNC -D                  /
//                          LCD_SUPPORTED=DEBUG -lC                           /
//                          F:\BYSJ\SRC\14\ZigBeePro-V1.1\Projects\zstack\Sam /
//                          ples\SampleApp\CC2530DB\CoordinatorEB\List\ -lA   /
//                          F:\BYSJ\SRC\14\ZigBeePro-V1.1\Projects\zstack\Sam /
//                          ples\SampleApp\CC2530DB\CoordinatorEB\List\       /
//                          --diag_suppress Pe001,Pa010 -o                    /
//                          F:\BYSJ\SRC\14\ZigBeePro-V1.1\Projects\zstack\Sam /
//                          ples\SampleApp\CC2530DB\CoordinatorEB\Obj\ -e     /
//                          --no_code_motion --debug --core=plain             /
//                          --dptr=16,1 --data_model=large                    /
//                          --code_model=banked --calling_convention=xdata_re /
//                          entrant --place_constants=data_rom                /
//                          --nr_virtual_regs 16 -I                           /
//                          F:\BYSJ\SRC\14\ZigBeePro-V1.1\Projects\zstack\Sam /
//                          ples\SampleApp\CC2530DB\ -I                       /
//                          F:\BYSJ\SRC\14\ZigBeePro-V1.1\Projects\zstack\Sam /
//                          ples\SampleApp\CC2530DB\..\Source\ -I             /
//                          F:\BYSJ\SRC\14\ZigBeePro-V1.1\Projects\zstack\Sam /
//                          ples\SampleApp\CC2530DB\..\..\..\ZMain\TI2530DB\  /
//                          -I F:\BYSJ\SRC\14\ZigBeePro-V1.1\Projects\zstack\ /
//                          Samples\SampleApp\CC2530DB\..\..\..\..\..\Compone /
//                          nts\hal\include\ -I F:\BYSJ\SRC\14\ZigBeePro-V1.1 /
//                          \Projects\zstack\Samples\SampleApp\CC2530DB\..\.. /
//                          \..\..\..\Components\hal\target\CC2530EB\ -I      /
//                          F:\BYSJ\SRC\14\ZigBeePro-V1.1\Projects\zstack\Sam /
//                          ples\SampleApp\CC2530DB\..\..\..\..\..\Components /
//                          \mac\include\ -I F:\BYSJ\SRC\14\ZigBeePro-V1.1\Pr /
//                          ojects\zstack\Samples\SampleApp\CC2530DB\..\..\.. /
//                          \..\..\Components\mac\high_level\ -I              /
//                          F:\BYSJ\SRC\14\ZigBeePro-V1.1\Projects\zstack\Sam /
//                          ples\SampleApp\CC2530DB\..\..\..\..\..\Components /
//                          \mac\low_level\srf04\ -I                          /
//                          F:\BYSJ\SRC\14\ZigBeePro-V1.1\Projects\zstack\Sam /
//                          ples\SampleApp\CC2530DB\..\..\..\..\..\Components /
//                          \mac\low_level\srf04\single_chip\ -I              /
//                          F:\BYSJ\SRC\14\ZigBeePro-V1.1\Projects\zstack\Sam /
//                          ples\SampleApp\CC2530DB\..\..\..\..\..\Components /
//                          \mt\ -I F:\BYSJ\SRC\14\ZigBeePro-V1.1\Projects\zs /
//                          tack\Samples\SampleApp\CC2530DB\..\..\..\..\..\Co /
//                          mponents\osal\include\ -I                         /
//                          F:\BYSJ\SRC\14\ZigBeePro-V1.1\Projects\zstack\Sam /
//                          ples\SampleApp\CC2530DB\..\..\..\..\..\Components /
//                          \services\saddr\ -I F:\BYSJ\SRC\14\ZigBeePro-V1.1 /
//                          \Projects\zstack\Samples\SampleApp\CC2530DB\..\.. /
//                          \..\..\..\Components\services\sdata\ -I           /
//                          F:\BYSJ\SRC\14\ZigBeePro-V1.1\Projects\zstack\Sam /
//                          ples\SampleApp\CC2530DB\..\..\..\..\..\Components /
//                          \stack\af\ -I F:\BYSJ\SRC\14\ZigBeePro-V1.1\Proje /
//                          cts\zstack\Samples\SampleApp\CC2530DB\..\..\..\.. /
//                          \..\Components\stack\nwk\ -I                      /
//                          F:\BYSJ\SRC\14\ZigBeePro-V1.1\Projects\zstack\Sam /
//                          ples\SampleApp\CC2530DB\..\..\..\..\..\Components /
//                          \stack\sapi\ -I F:\BYSJ\SRC\14\ZigBeePro-V1.1\Pro /
//                          jects\zstack\Samples\SampleApp\CC2530DB\..\..\..\ /
//                          ..\..\Components\stack\sec\ -I                    /
//                          F:\BYSJ\SRC\14\ZigBeePro-V1.1\Projects\zstack\Sam /
//                          ples\SampleApp\CC2530DB\..\..\..\..\..\Components /
//                          \stack\sys\ -I F:\BYSJ\SRC\14\ZigBeePro-V1.1\Proj /
//                          ects\zstack\Samples\SampleApp\CC2530DB\..\..\..\. /
//                          .\..\Components\stack\zdo\ -I                     /
//                          F:\BYSJ\SRC\14\ZigBeePro-V1.1\Projects\zstack\Sam /
//                          ples\SampleApp\CC2530DB\..\..\..\..\..\Components /
//                          \zmac\ -I F:\BYSJ\SRC\14\ZigBeePro-V1.1\Projects\ /
//                          zstack\Samples\SampleApp\CC2530DB\..\..\..\..\..\ /
//                          Components\zmac\f8w\ -Ohz --require_prototypes    /
//    List file          =  F:\BYSJ\SRC\14\ZigBeePro-V1.1\Projects\zstack\Sam /
//                          ples\SampleApp\CC2530DB\CoordinatorEB\List\SIMxxx /
//                          .s51                                              /
//                                                                            /
//                                                                            /
///////////////////////////////////////////////////////////////////////////////

        NAME SIMxxx

        RTMODEL "__SystemLibrary", "CLib"
        RTMODEL "__calling_convention", "xdata_reentrant"
        RTMODEL "__code_model", "banked"
        RTMODEL "__core", "plain"
        RTMODEL "__data_model", "large"
        RTMODEL "__dptr_size", "16"
        RTMODEL "__extended_stack", "disabled"
        RTMODEL "__location_for_constants", "data"
        RTMODEL "__number_of_dptrs", "1"
        RTMODEL "__rt_version", "1"

        RSEG DOVERLAY:DATA:NOROOT(0)
        RSEG IOVERLAY:IDATA:NOROOT(0)
        RSEG ISTACK:IDATA:NOROOT(0)
        RSEG PSTACK:XDATA:NOROOT(0)
        RSEG XSTACK:XDATA:NOROOT(0)

        EXTERN ?ALLOC_XSTACK8
        EXTERN ?BANKED_ENTER_XDATA
        EXTERN ?BANKED_LEAVE_XDATA
        EXTERN ?BDISPATCH
        EXTERN ?DEALLOC_XSTACK8
        EXTERN ?PUSH_XSTACK_I_TWO
        EXTERN ?V0
        EXTERN ?XSP
        EXTERN ?XSTACK_DISP0_8
        EXTERN __INIT_XDATA_Z

        PUBLIC ??delay_ms?relay
        FUNCTION ??delay_ms?relay,0203H
        PUBLIC ??sim900a_check_cmd?relay
        FUNCTION ??sim900a_check_cmd?relay,0203H
        PUBLIC ??sim900a_send_chmessage_shan?relay
        FUNCTION ??sim900a_send_chmessage_shan?relay,0203H
        PUBLIC ??sim900a_send_cmd?relay
        FUNCTION ??sim900a_send_cmd?relay,0203H
        PUBLIC ??sim900a_work_test?relay
        FUNCTION ??sim900a_work_test?relay,0203H
        PUBLIC SIM900_CSQ
        PUBLIC delay_ms
        FUNCTION delay_ms,021203H
        ARGFRAME XSTACK, 14, STACK
        ARGFRAME IOVERLAY, 0, STATIC
        ARGFRAME DOVERLAY, 0, STATIC
        LOCFRAME XSTACK, 9, STACK
        PUBLIC sim900a_check_cmd
        FUNCTION sim900a_check_cmd,021203H
        ARGFRAME XSTACK, 14, STACK
        ARGFRAME IOVERLAY, 0, STATIC
        ARGFRAME DOVERLAY, 0, STATIC
        LOCFRAME XSTACK, 10, STACK
        PUBLIC sim900a_send_chmessage_shan
        FUNCTION sim900a_send_chmessage_shan,021203H
        ARGFRAME XSTACK, 0, STACK
        LOCFRAME XSTACK, 72, STACK
        PUBLIC sim900a_send_cmd
        FUNCTION sim900a_send_cmd,021203H
        ARGFRAME XSTACK, 72, STACK
        ARGFRAME IOVERLAY, 0, STATIC
        ARGFRAME DOVERLAY, 0, STATIC
        LOCFRAME XSTACK, 14, STACK
        PUBLIC sim900a_work_test
        FUNCTION sim900a_work_test,021203H
        ARGFRAME XSTACK, 0, STACK
        LOCFRAME XSTACK, 12, STACK
        
        CFI Names cfiNames0
        CFI StackFrame CFA_SP SP IDATA
        CFI StackFrame CFA_PSP16 PSP16 XDATA
        CFI StackFrame CFA_XSP16 XSP16 XDATA
        CFI StaticOverlayFrame CFA_IOVERLAY IOVERLAY
        CFI StaticOverlayFrame CFA_DOVERLAY DOVERLAY
        CFI Resource `PSW.CY`:1, `B.BR0`:1, `B.BR1`:1, `B.BR2`:1, `B.BR3`:1
        CFI Resource `B.BR4`:1, `B.BR5`:1, `B.BR6`:1, `B.BR7`:1, `VB.BR8`:1
        CFI Resource `VB.BR9`:1, `VB.BR10`:1, `VB.BR11`:1, `VB.BR12`:1
        CFI Resource `VB.BR13`:1, `VB.BR14`:1, `VB.BR15`:1, VB:8, B:8, A:8
        CFI Resource PSW:8, DPL0:8, DPH0:8, R0:8, R1:8, R2:8, R3:8, R4:8, R5:8
        CFI Resource R6:8, R7:8, V0:8, V1:8, V2:8, V3:8, V4:8, V5:8, V6:8, V7:8
        CFI Resource V8:8, V9:8, V10:8, V11:8, V12:8, V13:8, V14:8, V15:8, SP:8
        CFI Resource PSPH:8, PSPL:8, PSP16:16, XSPH:8, XSPL:8, XSP16:16
        CFI VirtualResource ?RET:24
        CFI Resource ?BRET_EXT:8
        CFI VirtualResource ?RET_HIGH:8, ?RET_LOW:8
        CFI ResourceParts PSP16 PSPH, PSPL
        CFI ResourceParts XSP16 XSPH, XSPL
        CFI ResourceParts ?RET ?BRET_EXT, ?RET_HIGH, ?RET_LOW
        CFI EndNames cfiNames0
        
        CFI Common cfiCommon0 Using cfiNames0
        CFI CodeAlign 1
        CFI DataAlign -1
        CFI ReturnAddress ?RET CODE
        CFI CFA_DOVERLAY Used
        CFI CFA_IOVERLAY Used
        CFI CFA_SP SP+-3
        CFI CFA_PSP16 PSP16+0
        CFI CFA_XSP16 XSP16+0
        CFI `PSW.CY` SameValue
        CFI `B.BR0` SameValue
        CFI `B.BR1` SameValue
        CFI `B.BR2` SameValue
        CFI `B.BR3` SameValue
        CFI `B.BR4` SameValue
        CFI `B.BR5` SameValue
        CFI `B.BR6` SameValue
        CFI `B.BR7` SameValue
        CFI `VB.BR8` SameValue
        CFI `VB.BR9` SameValue
        CFI `VB.BR10` SameValue
        CFI `VB.BR11` SameValue
        CFI `VB.BR12` SameValue
        CFI `VB.BR13` SameValue
        CFI `VB.BR14` SameValue
        CFI `VB.BR15` SameValue
        CFI VB SameValue
        CFI B Undefined
        CFI A Undefined
        CFI PSW SameValue
        CFI DPL0 SameValue
        CFI DPH0 SameValue
        CFI R0 Undefined
        CFI R1 Undefined
        CFI R2 Undefined
        CFI R3 Undefined
        CFI R4 Undefined
        CFI R5 Undefined
        CFI R6 SameValue
        CFI R7 SameValue
        CFI V0 SameValue
        CFI V1 SameValue
        CFI V2 SameValue
        CFI V3 SameValue
        CFI V4 SameValue
        CFI V5 SameValue
        CFI V6 SameValue
        CFI V7 SameValue
        CFI V8 SameValue
        CFI V9 SameValue
        CFI V10 SameValue
        CFI V11 SameValue
        CFI V12 SameValue
        CFI V13 SameValue
        CFI V14 SameValue
        CFI V15 SameValue
        CFI PSPH Undefined
        CFI PSPL Undefined
        CFI XSPH Undefined
        CFI XSPL Undefined
        CFI ?RET Concat
        CFI ?BRET_EXT Frame(CFA_SP, 3)
        CFI ?RET_HIGH Frame(CFA_SP, 2)
        CFI ?RET_LOW Frame(CFA_SP, 1)
        CFI EndCommon cfiCommon0
        
        
        CFI Common cfiCommon1 Using cfiNames0
        CFI CodeAlign 1
        CFI DataAlign -1
        CFI ReturnAddress ?RET CODE
        CFI CFA_DOVERLAY Used
        CFI CFA_IOVERLAY Used
        CFI CFA_SP SP+-2
        CFI CFA_PSP16 PSP16+0
        CFI CFA_XSP16 XSP16+0
        CFI `PSW.CY` SameValue
        CFI `B.BR0` SameValue
        CFI `B.BR1` SameValue
        CFI `B.BR2` SameValue
        CFI `B.BR3` SameValue
        CFI `B.BR4` SameValue
        CFI `B.BR5` SameValue
        CFI `B.BR6` SameValue
        CFI `B.BR7` SameValue
        CFI `VB.BR8` SameValue
        CFI `VB.BR9` SameValue
        CFI `VB.BR10` SameValue
        CFI `VB.BR11` SameValue
        CFI `VB.BR12` SameValue
        CFI `VB.BR13` SameValue
        CFI `VB.BR14` SameValue
        CFI `VB.BR15` SameValue
        CFI VB SameValue
        CFI B SameValue
        CFI A SameValue
        CFI PSW SameValue
        CFI DPL0 SameValue
        CFI DPH0 SameValue
        CFI R0 SameValue
        CFI R1 SameValue
        CFI R2 SameValue
        CFI R3 SameValue
        CFI R4 SameValue
        CFI R5 SameValue
        CFI R6 SameValue
        CFI R7 SameValue
        CFI V0 SameValue
        CFI V1 SameValue
        CFI V2 SameValue
        CFI V3 SameValue
        CFI V4 SameValue
        CFI V5 SameValue
        CFI V6 SameValue
        CFI V7 SameValue
        CFI V8 SameValue
        CFI V9 SameValue
        CFI V10 SameValue
        CFI V11 SameValue
        CFI V12 SameValue
        CFI V13 SameValue
        CFI V14 SameValue
        CFI V15 SameValue
        CFI PSPH Undefined
        CFI PSPL Undefined
        CFI XSPH Undefined
        CFI XSPL Undefined
        CFI ?RET Concat
        CFI ?BRET_EXT SameValue
        CFI ?RET_HIGH Frame(CFA_SP, 2)
        CFI ?RET_LOW Frame(CFA_SP, 1)
        CFI EndCommon cfiCommon1
        
strstr              SYMBOL "strstr"
HalUARTWrite        SYMBOL "HalUARTWrite"
memcpy              SYMBOL "memcpy"
sprintf             SYMBOL "sprintf"
Onboard_wait        SYMBOL "Onboard_wait"
??HalUARTWrite?relay SYMBOL "?relay", HalUARTWrite
??Onboard_wait?relay SYMBOL "?relay", Onboard_wait
??memcpy?relay      SYMBOL "?relay", memcpy
??sprintf?relay     SYMBOL "?relay", sprintf
??strstr?relay      SYMBOL "?relay", strstr
delay_ms            SYMBOL "delay_ms"
??delay_ms?relay    SYMBOL "?relay", delay_ms
sim900a_check_cmd   SYMBOL "sim900a_check_cmd"
??sim900a_check_cmd?relay SYMBOL "?relay", sim900a_check_cmd
sim900a_send_chmessage_shan SYMBOL "sim900a_send_chmessage_shan"
??sim900a_send_chmessage_shan?relay SYMBOL "?relay", sim900a_send_chmessage_shan
sim900a_send_cmd    SYMBOL "sim900a_send_cmd"
??sim900a_send_cmd?relay SYMBOL "?relay", sim900a_send_cmd
sim900a_work_test   SYMBOL "sim900a_work_test"
??sim900a_work_test?relay SYMBOL "?relay", sim900a_work_test

        EXTERN strstr
        FUNCTION strstr,010202H
        ARGFRAME ISTACK, 0, STACK
        ARGFRAME PSTACK, 0, STACK
        ARGFRAME XSTACK, 10, STACK
        ARGFRAME IOVERLAY, 0, STATIC
        ARGFRAME DOVERLAY, 0, STATIC
        EXTERN HalUARTWrite
        FUNCTION HalUARTWrite,0202H
        ARGFRAME ISTACK, 0, STACK
        ARGFRAME PSTACK, 0, STACK
        ARGFRAME XSTACK, 14, STACK
        ARGFRAME IOVERLAY, 0, STATIC
        ARGFRAME DOVERLAY, 0, STATIC
        EXTERN memcpy
        FUNCTION memcpy,010202H
        ARGFRAME ISTACK, 0, STACK
        ARGFRAME PSTACK, 0, STACK
        ARGFRAME XSTACK, 12, STACK
        ARGFRAME IOVERLAY, 0, STATIC
        ARGFRAME DOVERLAY, 0, STATIC
        EXTERN sprintf
        FUNCTION sprintf,0202H
        ARGFRAME ISTACK, 0, STACK
        ARGFRAME PSTACK, 0, STACK
        ARGFRAME XSTACK, 72, STACK
        ARGFRAME IOVERLAY, 0, STATIC
        ARGFRAME DOVERLAY, 0, STATIC
        EXTERN Onboard_wait
        FUNCTION Onboard_wait,0202H
        ARGFRAME ISTACK, 0, STACK
        ARGFRAME PSTACK, 0, STACK
        ARGFRAME XSTACK, 9, STACK
        ARGFRAME IOVERLAY, 0, STATIC
        ARGFRAME DOVERLAY, 0, STATIC
        EXTERN ??HalUARTWrite?relay
        FUNCTION ??HalUARTWrite?relay,00H
        EXTERN ??Onboard_wait?relay
        FUNCTION ??Onboard_wait?relay,00H
        EXTERN ??memcpy?relay
        FUNCTION ??memcpy?relay,00H
        EXTERN ??sprintf?relay
        FUNCTION ??sprintf?relay,00H
        EXTERN ??strstr?relay
        FUNCTION ??strstr?relay,00H
        EXTERN UART1_RX_BUF
        EXTERN UART1_RX_STA

// F:\BYSJ\SRC\14\ZigBeePro-V1.1\Projects\zstack\Samples\SampleApp\Source\SIMxxx.c
//    1 #include "SIMxxx.h"
//    2 #include "MT_UART.h"
//    3 #include <string.h>
//    4 #include <stdio.h>
//    5 
//    6 void delay_ms(uint8 Time);//n ms延时
//    7 

        RSEG XDATA_Z:XDATA:NOROOT(0)
        DATA32
//    8 uint8 SIM900_CSQ[4];
SIM900_CSQ:
        DS 4
        REQUIRE __INIT_XDATA_Z
//    9 

        RSEG BANKED_CODE:CODE:NOROOT(0)
//   10 uint8 *sim900a_check_cmd(uint8 *str)
sim900a_check_cmd:
        CFI Block cfiBlock0 Using cfiCommon0
        CFI Function sim900a_check_cmd
        CODE
//   11 {
        FUNCALL sim900a_check_cmd, strstr
        LOCFRAME ISTACK, 0, STACK
        LOCFRAME PSTACK, 0, STACK
        LOCFRAME XSTACK, 10, STACK
        LOCFRAME IOVERLAY, 0, STATIC
        LOCFRAME DOVERLAY, 0, STATIC
        ARGFRAME ISTACK, 0, STACK
        ARGFRAME PSTACK, 0, STACK
        ARGFRAME XSTACK, 10, STACK
        ARGFRAME IOVERLAY, 0, STATIC
        ARGFRAME DOVERLAY, 0, STATIC
        MOV     A,#-0xa
        LCALL   ?BANKED_ENTER_XDATA
        CFI DPH0 load(1, XDATA, add(CFA_XSP16, literal(-1)))
        CFI DPL0 load(1, XDATA, add(CFA_XSP16, literal(-2)))
        CFI ?BRET_EXT load(1, XDATA, add(CFA_XSP16, literal(-3)))
        CFI ?RET_HIGH load(1, XDATA, add(CFA_XSP16, literal(-4)))
        CFI ?RET_LOW load(1, XDATA, add(CFA_XSP16, literal(-5)))
        CFI R7 load(1, XDATA, add(CFA_XSP16, literal(-6)))
        CFI V1 load(1, XDATA, add(CFA_XSP16, literal(-7)))
        CFI V0 load(1, XDATA, add(CFA_XSP16, literal(-8)))
        CFI VB load(1, XDATA, add(CFA_XSP16, literal(-9)))
        CFI R6 load(1, XDATA, add(CFA_XSP16, literal(-10)))
        CFI CFA_SP SP+0
        CFI CFA_XSP16 add(XSP16, 10)
        ; Saved register size: 10
        ; Auto size: 0
//   12     char *strx=NULL;
        MOV     R0,#0x0
        MOV     R1,#0x0
//   13     if(UART1_RX_STA)
        MOV     DPTR,#UART1_RX_STA
        MOVX    A,@DPTR
        JZ      ??sim900a_check_cmd_0
//   14     { 
//   15       strx=strstr((const char*)UART1_RX_BUF,(const char*)str);
        ; Setup parameters for call to function strstr
        MOV     A,R2
        MOV     R4,A
        MOV     A,R3
        MOV     R5,A
        MOV     R2,#UART1_RX_BUF & 0xff
        MOV     R3,#(UART1_RX_BUF >> 8) & 0xff
        LCALL   ??strstr?relay
        MOV     ?V0 + 0,R2
        MOV     ?V0 + 1,R3
        MOV     R0,?V0 + 0
        MOV     R1,?V0 + 1
//   16     } 
//   17     return (uint8 *)strx;
??sim900a_check_cmd_0:
        MOV     A,R0
        MOV     R2,A
        MOV     A,R1
        MOV     R3,A
        CFI EndBlock cfiBlock0
        REQUIRE ?Subroutine0
        ; // Fall through to label ?Subroutine0
//   18 }

        RSEG BANKED_CODE:CODE:NOROOT(0)
?Subroutine0:
        CFI Block cfiBlock1 Using cfiCommon0
        CFI NoFunction
        CFI CFA_SP SP+0
        CFI CFA_XSP16 add(XSP16, 10)
        CFI VB load(1, XDATA, add(CFA_XSP16, literal(-9)))
        CFI DPL0 load(1, XDATA, add(CFA_XSP16, literal(-2)))
        CFI DPH0 load(1, XDATA, add(CFA_XSP16, literal(-1)))
        CFI R6 load(1, XDATA, add(CFA_XSP16, literal(-10)))
        CFI R7 load(1, XDATA, add(CFA_XSP16, literal(-6)))
        CFI V0 load(1, XDATA, add(CFA_XSP16, literal(-8)))
        CFI V1 load(1, XDATA, add(CFA_XSP16, literal(-7)))
        CFI ?BRET_EXT load(1, XDATA, add(CFA_XSP16, literal(-3)))
        CFI ?RET_HIGH load(1, XDATA, add(CFA_XSP16, literal(-4)))
        CFI ?RET_LOW load(1, XDATA, add(CFA_XSP16, literal(-5)))
        MOV     R7,#0x2
        LJMP    ?BANKED_LEAVE_XDATA
        CFI EndBlock cfiBlock1
//   19 

        RSEG BANKED_CODE:CODE:NOROOT(0)
//   20 uint8 sim900a_send_cmd(uint8 *cmd,uint8 *ack,uint16 waittime)
sim900a_send_cmd:
        CFI Block cfiBlock2 Using cfiCommon0
        CFI Function sim900a_send_cmd
        CODE
//   21 {	
        FUNCALL sim900a_send_cmd, HalUARTWrite
        LOCFRAME ISTACK, 0, STACK
        LOCFRAME PSTACK, 0, STACK
        LOCFRAME XSTACK, 14, STACK
        LOCFRAME IOVERLAY, 0, STATIC
        LOCFRAME DOVERLAY, 0, STATIC
        ARGFRAME ISTACK, 0, STACK
        ARGFRAME PSTACK, 0, STACK
        ARGFRAME XSTACK, 14, STACK
        ARGFRAME IOVERLAY, 0, STATIC
        ARGFRAME DOVERLAY, 0, STATIC
        FUNCALL sim900a_send_cmd, delay_ms
        LOCFRAME ISTACK, 0, STACK
        LOCFRAME PSTACK, 0, STACK
        LOCFRAME XSTACK, 14, STACK
        LOCFRAME IOVERLAY, 0, STATIC
        LOCFRAME DOVERLAY, 0, STATIC
        ARGFRAME ISTACK, 0, STACK
        ARGFRAME PSTACK, 0, STACK
        ARGFRAME XSTACK, 14, STACK
        ARGFRAME IOVERLAY, 0, STATIC
        ARGFRAME DOVERLAY, 0, STATIC
        FUNCALL sim900a_send_cmd, sim900a_check_cmd
        LOCFRAME ISTACK, 0, STACK
        LOCFRAME PSTACK, 0, STACK
        LOCFRAME XSTACK, 14, STACK
        LOCFRAME IOVERLAY, 0, STATIC
        LOCFRAME DOVERLAY, 0, STATIC
        ARGFRAME ISTACK, 0, STACK
        ARGFRAME PSTACK, 0, STACK
        ARGFRAME XSTACK, 14, STACK
        ARGFRAME IOVERLAY, 0, STATIC
        ARGFRAME DOVERLAY, 0, STATIC
        MOV     A,#-0xe
        LCALL   ?BANKED_ENTER_XDATA
        CFI DPH0 load(1, XDATA, add(CFA_XSP16, literal(-1)))
        CFI DPL0 load(1, XDATA, add(CFA_XSP16, literal(-2)))
        CFI ?BRET_EXT load(1, XDATA, add(CFA_XSP16, literal(-3)))
        CFI ?RET_HIGH load(1, XDATA, add(CFA_XSP16, literal(-4)))
        CFI ?RET_LOW load(1, XDATA, add(CFA_XSP16, literal(-5)))
        CFI R7 load(1, XDATA, add(CFA_XSP16, literal(-6)))
        CFI V5 load(1, XDATA, add(CFA_XSP16, literal(-7)))
        CFI V4 load(1, XDATA, add(CFA_XSP16, literal(-8)))
        CFI V3 load(1, XDATA, add(CFA_XSP16, literal(-9)))
        CFI V2 load(1, XDATA, add(CFA_XSP16, literal(-10)))
        CFI V1 load(1, XDATA, add(CFA_XSP16, literal(-11)))
        CFI V0 load(1, XDATA, add(CFA_XSP16, literal(-12)))
        CFI VB load(1, XDATA, add(CFA_XSP16, literal(-13)))
        CFI R6 load(1, XDATA, add(CFA_XSP16, literal(-14)))
        CFI CFA_SP SP+0
        CFI CFA_XSP16 add(XSP16, 14)
        ; Saved register size: 14
        ; Auto size: 0
        MOV     ?V0 + 0,R4
        MOV     ?V0 + 1,R5
        MOV     A,#0xe
        LCALL   ?XSTACK_DISP0_8
        MOVX    A,@DPTR
        MOV     R6,A
        INC     DPTR
        MOVX    A,@DPTR
        MOV     R7,A
//   22 	uint8 res=0;
        MOV     ?V0 + 2,#0x0
//   23 
//   24 	HalUARTWrite(UART1, cmd, sizeof(cmd));
        ; Setup parameters for call to function HalUARTWrite
        MOV     R4,#0x2
        MOV     R5,#0x0
        MOV     R1,#0x1
        LCALL   ??HalUARTWrite?relay
//   25 	if(ack&&waittime)		
        MOV     A,?V0 + 0
        ORL     A,?V0 + 1
        JZ      ??sim900a_send_cmd_0
        MOV     A,R6
        ORL     A,R7
        JNZ     ??sim900a_send_cmd_1
        SJMP    ??sim900a_send_cmd_0
//   26 	{
//   27 		while(--waittime)	
//   28 		{
//   29 			delay_ms(10);
??sim900a_send_cmd_2:
        ; Setup parameters for call to function delay_ms
        MOV     R1,#0xa
        LCALL   ??delay_ms?relay
//   30 			if(UART1_RX_STA)
        MOV     DPTR,#UART1_RX_STA
        MOVX    A,@DPTR
        JZ      ??sim900a_send_cmd_1
//   31 			{
//   32 				if(sim900a_check_cmd(ack))break; 
        ; Setup parameters for call to function sim900a_check_cmd
        MOV     R2,?V0 + 0
        MOV     R3,?V0 + 1
        LCALL   ??sim900a_check_cmd?relay
        MOV     ?V0 + 5,R3
        MOV     A,R2
        ORL     A,?V0 + 5
        JNZ     ??sim900a_send_cmd_0
//   33 				UART1_RX_STA=0;
        MOV     DPTR,#UART1_RX_STA
        CLR     A
        MOVX    @DPTR,A
//   34 			} 
//   35 		}
??sim900a_send_cmd_1:
        MOV     A,R6
        ADD     A,#-0x1
        DEC     R6
        MOV     A,R7
        ADDC    A,#-0x1
        MOV     R7,A
        MOV     A,R6
        ORL     A,R7
        JNZ     ??sim900a_send_cmd_2
//   36 		if(waittime==0)res=1; 
        MOV     ?V0 + 2,#0x1
//   37 	}
//   38 	return res;
??sim900a_send_cmd_0:
        MOV     R1,?V0 + 2
        MOV     R7,#0x6
        LJMP    ?BANKED_LEAVE_XDATA
        CFI EndBlock cfiBlock2
//   39 }

        RSEG BANKED_CODE:CODE:NOROOT(0)
//   40 uint8 sim900a_work_test(void)
sim900a_work_test:
        CFI Block cfiBlock3 Using cfiCommon0
        CFI Function sim900a_work_test
        CODE
//   41 {
        FUNCALL sim900a_work_test, sim900a_send_cmd
        LOCFRAME ISTACK, 0, STACK
        LOCFRAME PSTACK, 0, STACK
        LOCFRAME XSTACK, 12, STACK
        LOCFRAME IOVERLAY, 0, STATIC
        LOCFRAME DOVERLAY, 0, STATIC
        ARGFRAME ISTACK, 0, STACK
        ARGFRAME PSTACK, 0, STACK
        ARGFRAME XSTACK, 12, STACK
        ARGFRAME IOVERLAY, 0, STATIC
        ARGFRAME DOVERLAY, 0, STATIC
        FUNCALL sim900a_work_test, sim900a_send_cmd
        LOCFRAME ISTACK, 0, STACK
        LOCFRAME PSTACK, 0, STACK
        LOCFRAME XSTACK, 12, STACK
        LOCFRAME IOVERLAY, 0, STATIC
        LOCFRAME DOVERLAY, 0, STATIC
        ARGFRAME ISTACK, 0, STACK
        ARGFRAME PSTACK, 0, STACK
        ARGFRAME XSTACK, 12, STACK
        ARGFRAME IOVERLAY, 0, STATIC
        ARGFRAME DOVERLAY, 0, STATIC
        FUNCALL sim900a_work_test, sim900a_send_cmd
        LOCFRAME ISTACK, 0, STACK
        LOCFRAME PSTACK, 0, STACK
        LOCFRAME XSTACK, 12, STACK
        LOCFRAME IOVERLAY, 0, STATIC
        LOCFRAME DOVERLAY, 0, STATIC
        ARGFRAME ISTACK, 0, STACK
        ARGFRAME PSTACK, 0, STACK
        ARGFRAME XSTACK, 12, STACK
        ARGFRAME IOVERLAY, 0, STATIC
        ARGFRAME DOVERLAY, 0, STATIC
        FUNCALL sim900a_work_test, sim900a_send_cmd
        LOCFRAME ISTACK, 0, STACK
        LOCFRAME PSTACK, 0, STACK
        LOCFRAME XSTACK, 12, STACK
        LOCFRAME IOVERLAY, 0, STATIC
        LOCFRAME DOVERLAY, 0, STATIC
        ARGFRAME ISTACK, 0, STACK
        ARGFRAME PSTACK, 0, STACK
        ARGFRAME XSTACK, 12, STACK
        ARGFRAME IOVERLAY, 0, STATIC
        ARGFRAME DOVERLAY, 0, STATIC
        FUNCALL sim900a_work_test, strstr
        LOCFRAME ISTACK, 0, STACK
        LOCFRAME PSTACK, 0, STACK
        LOCFRAME XSTACK, 10, STACK
        LOCFRAME IOVERLAY, 0, STATIC
        LOCFRAME DOVERLAY, 0, STATIC
        ARGFRAME ISTACK, 0, STACK
        ARGFRAME PSTACK, 0, STACK
        ARGFRAME XSTACK, 10, STACK
        ARGFRAME IOVERLAY, 0, STATIC
        ARGFRAME DOVERLAY, 0, STATIC
        FUNCALL sim900a_work_test, sim900a_send_cmd
        LOCFRAME ISTACK, 0, STACK
        LOCFRAME PSTACK, 0, STACK
        LOCFRAME XSTACK, 12, STACK
        LOCFRAME IOVERLAY, 0, STATIC
        LOCFRAME DOVERLAY, 0, STATIC
        ARGFRAME ISTACK, 0, STACK
        ARGFRAME PSTACK, 0, STACK
        ARGFRAME XSTACK, 12, STACK
        ARGFRAME IOVERLAY, 0, STATIC
        ARGFRAME DOVERLAY, 0, STATIC
        FUNCALL sim900a_work_test, memcpy
        LOCFRAME ISTACK, 0, STACK
        LOCFRAME PSTACK, 0, STACK
        LOCFRAME XSTACK, 12, STACK
        LOCFRAME IOVERLAY, 0, STATIC
        LOCFRAME DOVERLAY, 0, STATIC
        ARGFRAME ISTACK, 0, STACK
        ARGFRAME PSTACK, 0, STACK
        ARGFRAME XSTACK, 12, STACK
        ARGFRAME IOVERLAY, 0, STATIC
        ARGFRAME DOVERLAY, 0, STATIC
        MOV     A,#-0xa
        LCALL   ?BANKED_ENTER_XDATA
        CFI DPH0 load(1, XDATA, add(CFA_XSP16, literal(-1)))
        CFI DPL0 load(1, XDATA, add(CFA_XSP16, literal(-2)))
        CFI ?BRET_EXT load(1, XDATA, add(CFA_XSP16, literal(-3)))
        CFI ?RET_HIGH load(1, XDATA, add(CFA_XSP16, literal(-4)))
        CFI ?RET_LOW load(1, XDATA, add(CFA_XSP16, literal(-5)))
        CFI R7 load(1, XDATA, add(CFA_XSP16, literal(-6)))
        CFI V1 load(1, XDATA, add(CFA_XSP16, literal(-7)))
        CFI V0 load(1, XDATA, add(CFA_XSP16, literal(-8)))
        CFI VB load(1, XDATA, add(CFA_XSP16, literal(-9)))
        CFI R6 load(1, XDATA, add(CFA_XSP16, literal(-10)))
        CFI CFA_SP SP+0
        CFI CFA_XSP16 add(XSP16, 10)
        ; Saved register size: 10
        ; Auto size: 0
//   42 	if(sim900a_send_cmd((uint8 *)"AT\r\n",(uint8 *)"OK",100))
        ; Setup parameters for call to function sim900a_send_cmd
        MOV     ?V0 + 0,#0x64
        MOV     ?V0 + 1,#0x0
        MOV     R0,#?V0 + 0
        LCALL   ?PUSH_XSTACK_I_TWO
        CFI CFA_XSP16 add(XSP16, 12)
        LCALL   ?Subroutine1 & 0xFFFF
??CrossCallReturnLabel_0:
        LCALL   ?DEALLOC_XSTACK8
        CFI CFA_XSP16 add(XSP16, 10)
        MOV     A,R1
        JZ      ??sim900a_work_test_0
//   43 	{
//   44 		if(sim900a_send_cmd((uint8 *)"AT\r\n",(uint8 *)"OK",100))return SIM_COMMUNTION_ERR;	//通信不上
        ; Setup parameters for call to function sim900a_send_cmd
        MOV     R0,#?V0 + 0
        LCALL   ?PUSH_XSTACK_I_TWO
        CFI CFA_XSP16 add(XSP16, 12)
        LCALL   ?Subroutine1 & 0xFFFF
??CrossCallReturnLabel_1:
        LCALL   ?DEALLOC_XSTACK8
        CFI CFA_XSP16 add(XSP16, 10)
        MOV     A,R1
        JZ      ??sim900a_work_test_0
        MOV     R1,#-0x1
        LJMP    ??sim900a_work_test_1 & 0xFFFF
//   45 	}		
//   46 	if(sim900a_send_cmd((uint8 *)"AT+CPIN?\r\n",(uint8 *)"READY",400))return SIM_CPIN_ERR;	//没有SIM卡
??sim900a_work_test_0:
        ; Setup parameters for call to function sim900a_send_cmd
        MOV     ?V0 + 0,#-0x70
        MOV     ?V0 + 1,#0x1
        MOV     R0,#?V0 + 0
        LCALL   ?PUSH_XSTACK_I_TWO
        CFI CFA_XSP16 add(XSP16, 12)
        MOV     R4,#`?<Constant "READY">` & 0xff
        MOV     R5,#(`?<Constant "READY">` >> 8) & 0xff
        MOV     R2,#`?<Constant "AT+CPIN?\\r\\n">` & 0xff
        MOV     R3,#(`?<Constant "AT+CPIN?\\r\\n">` >> 8) & 0xff
        LCALL   ??Subroutine2_0 & 0xFFFF
??CrossCallReturnLabel_2:
        LCALL   ?DEALLOC_XSTACK8
        CFI CFA_XSP16 add(XSP16, 10)
        MOV     A,R1
        JZ      ??sim900a_work_test_2
        MOV     R1,#-0x2
        SJMP    ??sim900a_work_test_1
//   47 	if(sim900a_send_cmd((uint8 *)"AT+CREG?\r\n",(uint8 *)"0,1",400))
??sim900a_work_test_2:
        ; Setup parameters for call to function sim900a_send_cmd
        MOV     R0,#?V0 + 0
        LCALL   ?PUSH_XSTACK_I_TWO
        CFI CFA_XSP16 add(XSP16, 12)
        MOV     R4,#`?<Constant "0,1">` & 0xff
        MOV     R5,#(`?<Constant "0,1">` >> 8) & 0xff
        MOV     R2,#`?<Constant "AT+CREG?\\r\\n">` & 0xff
        MOV     R3,#(`?<Constant "AT+CREG?\\r\\n">` >> 8) & 0xff
        LCALL   ??Subroutine2_0 & 0xFFFF
??CrossCallReturnLabel_3:
        LCALL   ?DEALLOC_XSTACK8
        CFI CFA_XSP16 add(XSP16, 10)
        MOV     A,R1
        JZ      ??sim900a_work_test_3
//   48 	{
//   49 		if(strstr((const char*)UART1_RX_BUF,"0,5")==NULL)
        ; Setup parameters for call to function strstr
        MOV     R4,#`?<Constant "0,5">` & 0xff
        MOV     R5,#(`?<Constant "0,5">` >> 8) & 0xff
        MOV     R2,#UART1_RX_BUF & 0xff
        MOV     R3,#(UART1_RX_BUF >> 8) & 0xff
        LCALL   ??strstr?relay
        MOV     ?V0 + 1,R3
        MOV     A,R2
        ORL     A,?V0 + 1
        JNZ     ??sim900a_work_test_3
//   50 		{
//   51 			 if(!sim900a_send_cmd((uint8 *)"AT+CSQ\r\n",(uint8 *)"OK",200))	
        ; Setup parameters for call to function sim900a_send_cmd
        MOV     ?V0 + 0,#-0x38
        MOV     ?V0 + 1,#0x0
        MOV     R0,#?V0 + 0
        LCALL   ?PUSH_XSTACK_I_TWO
        CFI CFA_XSP16 add(XSP16, 12)
        MOV     R4,#`?<Constant "OK">` & 0xff
        MOV     R5,#(`?<Constant "OK">` >> 8) & 0xff
        MOV     R2,#`?<Constant "AT+CSQ\\r\\n">` & 0xff
        MOV     R3,#(`?<Constant "AT+CSQ\\r\\n">` >> 8) & 0xff
        LCALL   ??Subroutine2_0 & 0xFFFF
??CrossCallReturnLabel_4:
        LCALL   ?DEALLOC_XSTACK8
        CFI CFA_XSP16 add(XSP16, 10)
        MOV     A,R1
        JNZ     ??sim900a_work_test_4
//   52 			 {
//   53 				memcpy(SIM900_CSQ,UART1_RX_BUF+15,2);
        ; Setup parameters for call to function memcpy
        MOV     ?V0 + 0,#0x2
        MOV     R0,#?V0 + 0
        LCALL   ?PUSH_XSTACK_I_TWO
        CFI CFA_XSP16 add(XSP16, 12)
        MOV     R4,#(UART1_RX_BUF + 15) & 0xff
        MOV     R5,#((UART1_RX_BUF + 15) >> 8) & 0xff
        MOV     R2,#SIM900_CSQ & 0xff
        MOV     R3,#(SIM900_CSQ >> 8) & 0xff
        LCALL   ??memcpy?relay
        MOV     A,#0x2
        LCALL   ?DEALLOC_XSTACK8
        CFI CFA_XSP16 add(XSP16, 10)
//   54 			 }
//   55 			 return SIM_CREG_FAIL;	//等待附着到网络
??sim900a_work_test_4:
        MOV     R1,#-0x3
        SJMP    ??sim900a_work_test_1
//   56 		}
//   57 	}
//   58 	return SIM_OK;
??sim900a_work_test_3:
        MOV     R1,#0x0
??sim900a_work_test_1:
        LJMP    ?Subroutine0 & 0xFFFF
        CFI EndBlock cfiBlock3
//   59 }

        RSEG BANKED_CODE:CODE:NOROOT(0)
//   60 uint8 sim900a_send_chmessage_shan(uint8 *number,uint8 *content)
sim900a_send_chmessage_shan:
        CFI Block cfiBlock4 Using cfiCommon0
        CFI Function sim900a_send_chmessage_shan
        CODE
//   61 {
        FUNCALL sim900a_send_chmessage_shan, sprintf
        LOCFRAME ISTACK, 0, STACK
        LOCFRAME PSTACK, 0, STACK
        LOCFRAME XSTACK, 72, STACK
        LOCFRAME IOVERLAY, 0, STATIC
        LOCFRAME DOVERLAY, 0, STATIC
        ARGFRAME ISTACK, 0, STACK
        ARGFRAME PSTACK, 0, STACK
        ARGFRAME XSTACK, 72, STACK
        ARGFRAME IOVERLAY, 0, STATIC
        ARGFRAME DOVERLAY, 0, STATIC
        FUNCALL sim900a_send_chmessage_shan, sim900a_send_cmd
        LOCFRAME ISTACK, 0, STACK
        LOCFRAME PSTACK, 0, STACK
        LOCFRAME XSTACK, 72, STACK
        LOCFRAME IOVERLAY, 0, STATIC
        LOCFRAME DOVERLAY, 0, STATIC
        ARGFRAME ISTACK, 0, STACK
        ARGFRAME PSTACK, 0, STACK
        ARGFRAME XSTACK, 72, STACK
        ARGFRAME IOVERLAY, 0, STATIC
        ARGFRAME DOVERLAY, 0, STATIC
        FUNCALL sim900a_send_chmessage_shan, sim900a_send_cmd
        LOCFRAME ISTACK, 0, STACK
        LOCFRAME PSTACK, 0, STACK
        LOCFRAME XSTACK, 72, STACK
        LOCFRAME IOVERLAY, 0, STATIC
        LOCFRAME DOVERLAY, 0, STATIC
        ARGFRAME ISTACK, 0, STACK
        ARGFRAME PSTACK, 0, STACK
        ARGFRAME XSTACK, 72, STACK
        ARGFRAME IOVERLAY, 0, STATIC
        ARGFRAME DOVERLAY, 0, STATIC
        FUNCALL sim900a_send_chmessage_shan, sim900a_send_cmd
        LOCFRAME ISTACK, 0, STACK
        LOCFRAME PSTACK, 0, STACK
        LOCFRAME XSTACK, 72, STACK
        LOCFRAME IOVERLAY, 0, STATIC
        LOCFRAME DOVERLAY, 0, STATIC
        ARGFRAME ISTACK, 0, STACK
        ARGFRAME PSTACK, 0, STACK
        ARGFRAME XSTACK, 72, STACK
        ARGFRAME IOVERLAY, 0, STATIC
        ARGFRAME DOVERLAY, 0, STATIC
        FUNCALL sim900a_send_chmessage_shan, sim900a_send_cmd
        LOCFRAME ISTACK, 0, STACK
        LOCFRAME PSTACK, 0, STACK
        LOCFRAME XSTACK, 72, STACK
        LOCFRAME IOVERLAY, 0, STATIC
        LOCFRAME DOVERLAY, 0, STATIC
        ARGFRAME ISTACK, 0, STACK
        ARGFRAME PSTACK, 0, STACK
        ARGFRAME XSTACK, 72, STACK
        ARGFRAME IOVERLAY, 0, STATIC
        ARGFRAME DOVERLAY, 0, STATIC
        FUNCALL sim900a_send_chmessage_shan, sim900a_send_cmd
        LOCFRAME ISTACK, 0, STACK
        LOCFRAME PSTACK, 0, STACK
        LOCFRAME XSTACK, 72, STACK
        LOCFRAME IOVERLAY, 0, STATIC
        LOCFRAME DOVERLAY, 0, STATIC
        ARGFRAME ISTACK, 0, STACK
        ARGFRAME PSTACK, 0, STACK
        ARGFRAME XSTACK, 72, STACK
        ARGFRAME IOVERLAY, 0, STATIC
        ARGFRAME DOVERLAY, 0, STATIC
        FUNCALL sim900a_send_chmessage_shan, sim900a_send_cmd
        LOCFRAME ISTACK, 0, STACK
        LOCFRAME PSTACK, 0, STACK
        LOCFRAME XSTACK, 72, STACK
        LOCFRAME IOVERLAY, 0, STATIC
        LOCFRAME DOVERLAY, 0, STATIC
        ARGFRAME ISTACK, 0, STACK
        ARGFRAME PSTACK, 0, STACK
        ARGFRAME XSTACK, 72, STACK
        ARGFRAME IOVERLAY, 0, STATIC
        ARGFRAME DOVERLAY, 0, STATIC
        FUNCALL sim900a_send_chmessage_shan, sim900a_send_cmd
        LOCFRAME ISTACK, 0, STACK
        LOCFRAME PSTACK, 0, STACK
        LOCFRAME XSTACK, 72, STACK
        LOCFRAME IOVERLAY, 0, STATIC
        LOCFRAME DOVERLAY, 0, STATIC
        ARGFRAME ISTACK, 0, STACK
        ARGFRAME PSTACK, 0, STACK
        ARGFRAME XSTACK, 72, STACK
        ARGFRAME IOVERLAY, 0, STATIC
        ARGFRAME DOVERLAY, 0, STATIC
        MOV     A,#-0xa
        LCALL   ?BANKED_ENTER_XDATA
        CFI DPH0 load(1, XDATA, add(CFA_XSP16, literal(-1)))
        CFI DPL0 load(1, XDATA, add(CFA_XSP16, literal(-2)))
        CFI ?BRET_EXT load(1, XDATA, add(CFA_XSP16, literal(-3)))
        CFI ?RET_HIGH load(1, XDATA, add(CFA_XSP16, literal(-4)))
        CFI ?RET_LOW load(1, XDATA, add(CFA_XSP16, literal(-5)))
        CFI R7 load(1, XDATA, add(CFA_XSP16, literal(-6)))
        CFI V1 load(1, XDATA, add(CFA_XSP16, literal(-7)))
        CFI V0 load(1, XDATA, add(CFA_XSP16, literal(-8)))
        CFI VB load(1, XDATA, add(CFA_XSP16, literal(-9)))
        CFI R6 load(1, XDATA, add(CFA_XSP16, literal(-10)))
        CFI CFA_SP SP+0
        CFI CFA_XSP16 add(XSP16, 10)
        ; Saved register size: 10
        ; Auto size: 60
        MOV     A,#-0x3c
        LCALL   ?ALLOC_XSTACK8
        CFI CFA_XSP16 add(XSP16, 70)
        MOV     A,R4
        MOV     R6,A
        MOV     A,R5
        MOV     R7,A
//   62 	uint8 cmd[60];
//   63 	sprintf((char*)cmd,"AT+CMGS=\"%s\"\r\n",number);
        ; Setup parameters for call to function sprintf
        MOV     ?V0 + 0,R2
        MOV     ?V0 + 1,R3
        MOV     R0,#?V0 + 0
        LCALL   ?PUSH_XSTACK_I_TWO
        CFI CFA_XSP16 add(XSP16, 72)
        MOV     R4,#`?<Constant "AT+CMGS=\\"%s\\"\\r\\n">` & 0xff
        MOV     R5,#(`?<Constant "AT+CMGS=\\"%s\\"\\r\\n">` >> 8) & 0xff
        MOV     A,#0x2
        LCALL   ?XSTACK_DISP0_8
        MOV     R2,DPL
        MOV     R3,DPH
        LCALL   ??sprintf?relay
        MOV     A,#0x2
        LCALL   ?DEALLOC_XSTACK8
        CFI CFA_XSP16 add(XSP16, 70)
//   64 	if(sim900a_send_cmd((uint8 *)"AT+CMGF=1\r\n",(uint8 *)"OK",200))	return SIM_CMGF_ERR;
        ; Setup parameters for call to function sim900a_send_cmd
        MOV     ?V0 + 0,#-0x38
        MOV     ?V0 + 1,#0x0
        MOV     R0,#?V0 + 0
        LCALL   ?PUSH_XSTACK_I_TWO
        CFI CFA_XSP16 add(XSP16, 72)
        MOV     R4,#`?<Constant "OK">` & 0xff
        MOV     R5,#(`?<Constant "OK">` >> 8) & 0xff
        MOV     R2,#`?<Constant "AT+CMGF=1\\r\\n">` & 0xff
        MOV     R3,#(`?<Constant "AT+CMGF=1\\r\\n">` >> 8) & 0xff
        LCALL   ??Subroutine2_0 & 0xFFFF
??CrossCallReturnLabel_5:
        LCALL   ?DEALLOC_XSTACK8
        CFI CFA_XSP16 add(XSP16, 70)
        MOV     A,R1
        JZ      ??sim900a_send_chmessage_shan_0
        MOV     R1,#-0x6
        LJMP    ??sim900a_send_chmessage_shan_1 & 0xFFFF
//   65 	if(sim900a_send_cmd((uint8 *)"AT+CSCS=\"UCS2\"\r\n",(uint8 *)"OK",200))	return SIM_CSCS_ERR;
??sim900a_send_chmessage_shan_0:
        ; Setup parameters for call to function sim900a_send_cmd
        MOV     R0,#?V0 + 0
        LCALL   ?PUSH_XSTACK_I_TWO
        CFI CFA_XSP16 add(XSP16, 72)
        MOV     R4,#`?<Constant "OK">` & 0xff
        MOV     R5,#(`?<Constant "OK">` >> 8) & 0xff
        MOV     R2,#`?<Constant "AT+CSCS=\\"UCS2\\"\\r\\n">` & 0xff
        MOV     R3,#(`?<Constant "AT+CSCS=\\"UCS2\\"\\r\\n">` >> 8) & 0xff
        LCALL   ??Subroutine2_0 & 0xFFFF
??CrossCallReturnLabel_6:
        LCALL   ?DEALLOC_XSTACK8
        CFI CFA_XSP16 add(XSP16, 70)
        MOV     A,R1
        JZ      ??sim900a_send_chmessage_shan_2
        MOV     R1,#-0x7
        LJMP    ??sim900a_send_chmessage_shan_1 & 0xFFFF
//   66 	if(sim900a_send_cmd((uint8 *)"AT+CSCA?\r\n",(uint8 *)"OK",200))	return SIM_CSCA_ERR;
??sim900a_send_chmessage_shan_2:
        ; Setup parameters for call to function sim900a_send_cmd
        MOV     R0,#?V0 + 0
        LCALL   ?PUSH_XSTACK_I_TWO
        CFI CFA_XSP16 add(XSP16, 72)
        MOV     R4,#`?<Constant "OK">` & 0xff
        MOV     R5,#(`?<Constant "OK">` >> 8) & 0xff
        MOV     R2,#`?<Constant "AT+CSCA?\\r\\n">` & 0xff
        MOV     R3,#(`?<Constant "AT+CSCA?\\r\\n">` >> 8) & 0xff
        LCALL   ??Subroutine2_0 & 0xFFFF
??CrossCallReturnLabel_7:
        LCALL   ?DEALLOC_XSTACK8
        CFI CFA_XSP16 add(XSP16, 70)
        MOV     A,R1
        JZ      ??sim900a_send_chmessage_shan_3
        MOV     R1,#-0x8
        LJMP    ??sim900a_send_chmessage_shan_1 & 0xFFFF
//   67 	if(sim900a_send_cmd((uint8 *)"AT+CSMP=17,167,0,24\r\n",(uint8 *)"OK",200))	return SIM_CSMP_ERR;
??sim900a_send_chmessage_shan_3:
        ; Setup parameters for call to function sim900a_send_cmd
        MOV     R0,#?V0 + 0
        LCALL   ?PUSH_XSTACK_I_TWO
        CFI CFA_XSP16 add(XSP16, 72)
        MOV     R4,#`?<Constant "OK">` & 0xff
        MOV     R5,#(`?<Constant "OK">` >> 8) & 0xff
        MOV     R2,#`?<Constant "AT+CSMP=17,167,0,24\\r\\n">` & 0xff
        MOV     R3,#(`?<Constant "AT+CSMP=17,167,0,24\\r\\n">` >> 8) & 0xff
        LCALL   ??Subroutine2_0 & 0xFFFF
??CrossCallReturnLabel_8:
        LCALL   ?DEALLOC_XSTACK8
        CFI CFA_XSP16 add(XSP16, 70)
        MOV     A,R1
        JZ      ??sim900a_send_chmessage_shan_4
        MOV     R1,#-0x9
        SJMP    ??sim900a_send_chmessage_shan_1
//   68 	if(sim900a_send_cmd(cmd,(uint8 *)">",200)) return SIM_CMGS_ERR;
??sim900a_send_chmessage_shan_4:
        ; Setup parameters for call to function sim900a_send_cmd
        MOV     R0,#?V0 + 0
        LCALL   ?PUSH_XSTACK_I_TWO
        CFI CFA_XSP16 add(XSP16, 72)
        MOV     R4,#`?<Constant ">">` & 0xff
        MOV     R5,#(`?<Constant ">">` >> 8) & 0xff
        MOV     A,#0x2
        LCALL   ?XSTACK_DISP0_8
        MOV     R2,DPL
        MOV     R3,DPH
        LCALL   ??Subroutine2_0 & 0xFFFF
??CrossCallReturnLabel_9:
        LCALL   ?DEALLOC_XSTACK8
        CFI CFA_XSP16 add(XSP16, 70)
        MOV     A,R1
        JZ      ??sim900a_send_chmessage_shan_5
        MOV     R1,#-0xa
        SJMP    ??sim900a_send_chmessage_shan_1
//   69 	sim900a_send_cmd(content,"",0);
??sim900a_send_chmessage_shan_5:
        ; Setup parameters for call to function sim900a_send_cmd
        CLR     A
        MOV     ?V0 + 0,A
        MOV     R0,#?V0 + 0
        LCALL   ?PUSH_XSTACK_I_TWO
        CFI CFA_XSP16 add(XSP16, 72)
        MOV     R4,#`?<Constant "">` & 0xff
        MOV     R5,#(`?<Constant "">` >> 8) & 0xff
        MOV     A,R6
        MOV     R2,A
        MOV     A,R7
        MOV     R3,A
        LCALL   ??Subroutine2_0 & 0xFFFF
??CrossCallReturnLabel_10:
        LCALL   ?DEALLOC_XSTACK8
        CFI CFA_XSP16 add(XSP16, 70)
//   70 	cmd[0]=0x1a;cmd[1]=0;
        MOV     DPL,?XSP + 0
        MOV     DPH,?XSP + 1
        MOV     A,#0x1a
        MOVX    @DPTR,A
        MOV     A,#0x1
        LCALL   ?XSTACK_DISP0_8
        CLR     A
        MOVX    @DPTR,A
//   71 	if(sim900a_send_cmd(cmd,(uint8 *)"+CMGS:",2000)) return SIM_CMGS_SEND_FAIL;
        ; Setup parameters for call to function sim900a_send_cmd
        MOV     ?V0 + 0,#-0x30
        MOV     ?V0 + 1,#0x7
        MOV     R0,#?V0 + 0
        LCALL   ?PUSH_XSTACK_I_TWO
        CFI CFA_XSP16 add(XSP16, 72)
        MOV     R4,#`?<Constant "+CMGS:">` & 0xff
        MOV     R5,#(`?<Constant "+CMGS:">` >> 8) & 0xff
        MOV     A,#0x2
        LCALL   ?XSTACK_DISP0_8
        MOV     R2,DPL
        MOV     R3,DPH
        LCALL   ??Subroutine2_0 & 0xFFFF
??CrossCallReturnLabel_11:
        LCALL   ?DEALLOC_XSTACK8
        CFI CFA_XSP16 add(XSP16, 70)
        MOV     A,R1
        JZ      ??sim900a_send_chmessage_shan_6
        MOV     R1,#-0xb
        SJMP    ??sim900a_send_chmessage_shan_1
//   72 	return SIM_OK;
??sim900a_send_chmessage_shan_6:
        MOV     R1,#0x0
??sim900a_send_chmessage_shan_1:
        MOV     A,#0x3c
        LCALL   ?DEALLOC_XSTACK8
        CFI CFA_XSP16 add(XSP16, 10)
        LJMP    ?Subroutine0 & 0xFFFF
        CFI EndBlock cfiBlock4
//   73 }

        RSEG BANKED_CODE:CODE:NOROOT(0)
?Subroutine1:
        CFI Block cfiCond5 Using cfiCommon0
        CFI NoFunction
        CFI Conditional ??CrossCallReturnLabel_0
        CFI R6 load(1, XDATA, add(CFA_XSP16, literal(-10)))
        CFI VB load(1, XDATA, add(CFA_XSP16, literal(-9)))
        CFI V0 load(1, XDATA, add(CFA_XSP16, literal(-8)))
        CFI V1 load(1, XDATA, add(CFA_XSP16, literal(-7)))
        CFI R7 load(1, XDATA, add(CFA_XSP16, literal(-6)))
        CFI ?RET_LOW load(1, XDATA, add(CFA_XSP16, literal(-5)))
        CFI ?RET_HIGH load(1, XDATA, add(CFA_XSP16, literal(-4)))
        CFI ?BRET_EXT load(1, XDATA, add(CFA_XSP16, literal(-3)))
        CFI DPL0 load(1, XDATA, add(CFA_XSP16, literal(-2)))
        CFI DPH0 load(1, XDATA, add(CFA_XSP16, literal(-1)))
        CFI CFA_SP SP+0
        CFI CFA_XSP16 add(XSP16, 12)
        CFI Block cfiCond6 Using cfiCommon0
        CFI (cfiCond6) NoFunction
        CFI (cfiCond6) Conditional ??CrossCallReturnLabel_1
        CFI (cfiCond6) R6 load(1, XDATA, add(CFA_XSP16, literal(-10)))
        CFI (cfiCond6) VB load(1, XDATA, add(CFA_XSP16, literal(-9)))
        CFI (cfiCond6) V0 load(1, XDATA, add(CFA_XSP16, literal(-8)))
        CFI (cfiCond6) V1 load(1, XDATA, add(CFA_XSP16, literal(-7)))
        CFI (cfiCond6) R7 load(1, XDATA, add(CFA_XSP16, literal(-6)))
        CFI (cfiCond6) ?RET_LOW load(1, XDATA, add(CFA_XSP16, literal(-5)))
        CFI (cfiCond6) ?RET_HIGH load(1, XDATA, add(CFA_XSP16, literal(-4)))
        CFI (cfiCond6) ?BRET_EXT load(1, XDATA, add(CFA_XSP16, literal(-3)))
        CFI (cfiCond6) DPL0 load(1, XDATA, add(CFA_XSP16, literal(-2)))
        CFI (cfiCond6) DPH0 load(1, XDATA, add(CFA_XSP16, literal(-1)))
        CFI (cfiCond6) CFA_SP SP+0
        CFI (cfiCond6) CFA_XSP16 add(XSP16, 12)
        CFI Block cfiPicker7 Using cfiCommon1
        CFI (cfiPicker7) NoFunction
        CFI (cfiPicker7) Picker
        MOV     R4,#`?<Constant "OK">` & 0xff
        MOV     R5,#(`?<Constant "OK">` >> 8) & 0xff
        MOV     R2,#`?<Constant "AT\\r\\n">` & 0xff
        MOV     R3,#(`?<Constant "AT\\r\\n">` >> 8) & 0xff
        CFI EndBlock cfiCond5
        CFI EndBlock cfiCond6
        CFI EndBlock cfiPicker7
        REQUIRE ??Subroutine2_0
        ; // Fall through to label ??Subroutine2_0

        RSEG BANKED_CODE:CODE:NOROOT(0)
??Subroutine2_0:
        CFI Block cfiCond8 Using cfiCommon0
        CFI NoFunction
        CFI Conditional ??CrossCallReturnLabel_2
        CFI R6 load(1, XDATA, add(CFA_XSP16, literal(-10)))
        CFI VB load(1, XDATA, add(CFA_XSP16, literal(-9)))
        CFI V0 load(1, XDATA, add(CFA_XSP16, literal(-8)))
        CFI V1 load(1, XDATA, add(CFA_XSP16, literal(-7)))
        CFI R7 load(1, XDATA, add(CFA_XSP16, literal(-6)))
        CFI ?RET_LOW load(1, XDATA, add(CFA_XSP16, literal(-5)))
        CFI ?RET_HIGH load(1, XDATA, add(CFA_XSP16, literal(-4)))
        CFI ?BRET_EXT load(1, XDATA, add(CFA_XSP16, literal(-3)))
        CFI DPL0 load(1, XDATA, add(CFA_XSP16, literal(-2)))
        CFI DPH0 load(1, XDATA, add(CFA_XSP16, literal(-1)))
        CFI CFA_SP SP+0
        CFI CFA_XSP16 add(XSP16, 12)
        CFI Block cfiCond9 Using cfiCommon0
        CFI (cfiCond9) NoFunction
        CFI (cfiCond9) Conditional ??CrossCallReturnLabel_3
        CFI (cfiCond9) R6 load(1, XDATA, add(CFA_XSP16, literal(-10)))
        CFI (cfiCond9) VB load(1, XDATA, add(CFA_XSP16, literal(-9)))
        CFI (cfiCond9) V0 load(1, XDATA, add(CFA_XSP16, literal(-8)))
        CFI (cfiCond9) V1 load(1, XDATA, add(CFA_XSP16, literal(-7)))
        CFI (cfiCond9) R7 load(1, XDATA, add(CFA_XSP16, literal(-6)))
        CFI (cfiCond9) ?RET_LOW load(1, XDATA, add(CFA_XSP16, literal(-5)))
        CFI (cfiCond9) ?RET_HIGH load(1, XDATA, add(CFA_XSP16, literal(-4)))
        CFI (cfiCond9) ?BRET_EXT load(1, XDATA, add(CFA_XSP16, literal(-3)))
        CFI (cfiCond9) DPL0 load(1, XDATA, add(CFA_XSP16, literal(-2)))
        CFI (cfiCond9) DPH0 load(1, XDATA, add(CFA_XSP16, literal(-1)))
        CFI (cfiCond9) CFA_SP SP+0
        CFI (cfiCond9) CFA_XSP16 add(XSP16, 12)
        CFI Block cfiCond10 Using cfiCommon0
        CFI (cfiCond10) NoFunction
        CFI (cfiCond10) Conditional ??CrossCallReturnLabel_4
        CFI (cfiCond10) R6 load(1, XDATA, add(CFA_XSP16, literal(-10)))
        CFI (cfiCond10) VB load(1, XDATA, add(CFA_XSP16, literal(-9)))
        CFI (cfiCond10) V0 load(1, XDATA, add(CFA_XSP16, literal(-8)))
        CFI (cfiCond10) V1 load(1, XDATA, add(CFA_XSP16, literal(-7)))
        CFI (cfiCond10) R7 load(1, XDATA, add(CFA_XSP16, literal(-6)))
        CFI (cfiCond10) ?RET_LOW load(1, XDATA, add(CFA_XSP16, literal(-5)))
        CFI (cfiCond10) ?RET_HIGH load(1, XDATA, add(CFA_XSP16, literal(-4)))
        CFI (cfiCond10) ?BRET_EXT load(1, XDATA, add(CFA_XSP16, literal(-3)))
        CFI (cfiCond10) DPL0 load(1, XDATA, add(CFA_XSP16, literal(-2)))
        CFI (cfiCond10) DPH0 load(1, XDATA, add(CFA_XSP16, literal(-1)))
        CFI (cfiCond10) CFA_SP SP+0
        CFI (cfiCond10) CFA_XSP16 add(XSP16, 12)
        CFI Block cfiCond11 Using cfiCommon0
        CFI (cfiCond11) NoFunction
        CFI (cfiCond11) Conditional ??CrossCallReturnLabel_5
        CFI (cfiCond11) R6 load(1, XDATA, add(CFA_XSP16, literal(-10)))
        CFI (cfiCond11) VB load(1, XDATA, add(CFA_XSP16, literal(-9)))
        CFI (cfiCond11) V0 load(1, XDATA, add(CFA_XSP16, literal(-8)))
        CFI (cfiCond11) V1 load(1, XDATA, add(CFA_XSP16, literal(-7)))
        CFI (cfiCond11) R7 load(1, XDATA, add(CFA_XSP16, literal(-6)))
        CFI (cfiCond11) ?RET_LOW load(1, XDATA, add(CFA_XSP16, literal(-5)))
        CFI (cfiCond11) ?RET_HIGH load(1, XDATA, add(CFA_XSP16, literal(-4)))
        CFI (cfiCond11) ?BRET_EXT load(1, XDATA, add(CFA_XSP16, literal(-3)))
        CFI (cfiCond11) DPL0 load(1, XDATA, add(CFA_XSP16, literal(-2)))
        CFI (cfiCond11) DPH0 load(1, XDATA, add(CFA_XSP16, literal(-1)))
        CFI (cfiCond11) CFA_SP SP+0
        CFI (cfiCond11) CFA_XSP16 add(XSP16, 72)
        CFI Block cfiCond12 Using cfiCommon0
        CFI (cfiCond12) NoFunction
        CFI (cfiCond12) Conditional ??CrossCallReturnLabel_6
        CFI (cfiCond12) R6 load(1, XDATA, add(CFA_XSP16, literal(-10)))
        CFI (cfiCond12) VB load(1, XDATA, add(CFA_XSP16, literal(-9)))
        CFI (cfiCond12) V0 load(1, XDATA, add(CFA_XSP16, literal(-8)))
        CFI (cfiCond12) V1 load(1, XDATA, add(CFA_XSP16, literal(-7)))
        CFI (cfiCond12) R7 load(1, XDATA, add(CFA_XSP16, literal(-6)))
        CFI (cfiCond12) ?RET_LOW load(1, XDATA, add(CFA_XSP16, literal(-5)))
        CFI (cfiCond12) ?RET_HIGH load(1, XDATA, add(CFA_XSP16, literal(-4)))
        CFI (cfiCond12) ?BRET_EXT load(1, XDATA, add(CFA_XSP16, literal(-3)))
        CFI (cfiCond12) DPL0 load(1, XDATA, add(CFA_XSP16, literal(-2)))
        CFI (cfiCond12) DPH0 load(1, XDATA, add(CFA_XSP16, literal(-1)))
        CFI (cfiCond12) CFA_SP SP+0
        CFI (cfiCond12) CFA_XSP16 add(XSP16, 72)
        CFI Block cfiCond13 Using cfiCommon0
        CFI (cfiCond13) NoFunction
        CFI (cfiCond13) Conditional ??CrossCallReturnLabel_7
        CFI (cfiCond13) R6 load(1, XDATA, add(CFA_XSP16, literal(-10)))
        CFI (cfiCond13) VB load(1, XDATA, add(CFA_XSP16, literal(-9)))
        CFI (cfiCond13) V0 load(1, XDATA, add(CFA_XSP16, literal(-8)))
        CFI (cfiCond13) V1 load(1, XDATA, add(CFA_XSP16, literal(-7)))
        CFI (cfiCond13) R7 load(1, XDATA, add(CFA_XSP16, literal(-6)))
        CFI (cfiCond13) ?RET_LOW load(1, XDATA, add(CFA_XSP16, literal(-5)))
        CFI (cfiCond13) ?RET_HIGH load(1, XDATA, add(CFA_XSP16, literal(-4)))
        CFI (cfiCond13) ?BRET_EXT load(1, XDATA, add(CFA_XSP16, literal(-3)))
        CFI (cfiCond13) DPL0 load(1, XDATA, add(CFA_XSP16, literal(-2)))
        CFI (cfiCond13) DPH0 load(1, XDATA, add(CFA_XSP16, literal(-1)))
        CFI (cfiCond13) CFA_SP SP+0
        CFI (cfiCond13) CFA_XSP16 add(XSP16, 72)
        CFI Block cfiCond14 Using cfiCommon0
        CFI (cfiCond14) NoFunction
        CFI (cfiCond14) Conditional ??CrossCallReturnLabel_8
        CFI (cfiCond14) R6 load(1, XDATA, add(CFA_XSP16, literal(-10)))
        CFI (cfiCond14) VB load(1, XDATA, add(CFA_XSP16, literal(-9)))
        CFI (cfiCond14) V0 load(1, XDATA, add(CFA_XSP16, literal(-8)))
        CFI (cfiCond14) V1 load(1, XDATA, add(CFA_XSP16, literal(-7)))
        CFI (cfiCond14) R7 load(1, XDATA, add(CFA_XSP16, literal(-6)))
        CFI (cfiCond14) ?RET_LOW load(1, XDATA, add(CFA_XSP16, literal(-5)))
        CFI (cfiCond14) ?RET_HIGH load(1, XDATA, add(CFA_XSP16, literal(-4)))
        CFI (cfiCond14) ?BRET_EXT load(1, XDATA, add(CFA_XSP16, literal(-3)))
        CFI (cfiCond14) DPL0 load(1, XDATA, add(CFA_XSP16, literal(-2)))
        CFI (cfiCond14) DPH0 load(1, XDATA, add(CFA_XSP16, literal(-1)))
        CFI (cfiCond14) CFA_SP SP+0
        CFI (cfiCond14) CFA_XSP16 add(XSP16, 72)
        CFI Block cfiCond15 Using cfiCommon0
        CFI (cfiCond15) NoFunction
        CFI (cfiCond15) Conditional ??CrossCallReturnLabel_9
        CFI (cfiCond15) R6 load(1, XDATA, add(CFA_XSP16, literal(-10)))
        CFI (cfiCond15) VB load(1, XDATA, add(CFA_XSP16, literal(-9)))
        CFI (cfiCond15) V0 load(1, XDATA, add(CFA_XSP16, literal(-8)))
        CFI (cfiCond15) V1 load(1, XDATA, add(CFA_XSP16, literal(-7)))
        CFI (cfiCond15) R7 load(1, XDATA, add(CFA_XSP16, literal(-6)))
        CFI (cfiCond15) ?RET_LOW load(1, XDATA, add(CFA_XSP16, literal(-5)))
        CFI (cfiCond15) ?RET_HIGH load(1, XDATA, add(CFA_XSP16, literal(-4)))
        CFI (cfiCond15) ?BRET_EXT load(1, XDATA, add(CFA_XSP16, literal(-3)))
        CFI (cfiCond15) DPL0 load(1, XDATA, add(CFA_XSP16, literal(-2)))
        CFI (cfiCond15) DPH0 load(1, XDATA, add(CFA_XSP16, literal(-1)))
        CFI (cfiCond15) CFA_SP SP+0
        CFI (cfiCond15) CFA_XSP16 add(XSP16, 72)
        CFI Block cfiCond16 Using cfiCommon0
        CFI (cfiCond16) NoFunction
        CFI (cfiCond16) Conditional ??CrossCallReturnLabel_10
        CFI (cfiCond16) R6 load(1, XDATA, add(CFA_XSP16, literal(-10)))
        CFI (cfiCond16) VB load(1, XDATA, add(CFA_XSP16, literal(-9)))
        CFI (cfiCond16) V0 load(1, XDATA, add(CFA_XSP16, literal(-8)))
        CFI (cfiCond16) V1 load(1, XDATA, add(CFA_XSP16, literal(-7)))
        CFI (cfiCond16) R7 load(1, XDATA, add(CFA_XSP16, literal(-6)))
        CFI (cfiCond16) ?RET_LOW load(1, XDATA, add(CFA_XSP16, literal(-5)))
        CFI (cfiCond16) ?RET_HIGH load(1, XDATA, add(CFA_XSP16, literal(-4)))
        CFI (cfiCond16) ?BRET_EXT load(1, XDATA, add(CFA_XSP16, literal(-3)))
        CFI (cfiCond16) DPL0 load(1, XDATA, add(CFA_XSP16, literal(-2)))
        CFI (cfiCond16) DPH0 load(1, XDATA, add(CFA_XSP16, literal(-1)))
        CFI (cfiCond16) CFA_SP SP+0
        CFI (cfiCond16) CFA_XSP16 add(XSP16, 72)
        CFI Block cfiCond17 Using cfiCommon0
        CFI (cfiCond17) NoFunction
        CFI (cfiCond17) Conditional ??CrossCallReturnLabel_11
        CFI (cfiCond17) R6 load(1, XDATA, add(CFA_XSP16, literal(-10)))
        CFI (cfiCond17) VB load(1, XDATA, add(CFA_XSP16, literal(-9)))
        CFI (cfiCond17) V0 load(1, XDATA, add(CFA_XSP16, literal(-8)))
        CFI (cfiCond17) V1 load(1, XDATA, add(CFA_XSP16, literal(-7)))
        CFI (cfiCond17) R7 load(1, XDATA, add(CFA_XSP16, literal(-6)))
        CFI (cfiCond17) ?RET_LOW load(1, XDATA, add(CFA_XSP16, literal(-5)))
        CFI (cfiCond17) ?RET_HIGH load(1, XDATA, add(CFA_XSP16, literal(-4)))
        CFI (cfiCond17) ?BRET_EXT load(1, XDATA, add(CFA_XSP16, literal(-3)))
        CFI (cfiCond17) DPL0 load(1, XDATA, add(CFA_XSP16, literal(-2)))
        CFI (cfiCond17) DPH0 load(1, XDATA, add(CFA_XSP16, literal(-1)))
        CFI (cfiCond17) CFA_SP SP+0
        CFI (cfiCond17) CFA_XSP16 add(XSP16, 72)
        CFI Block cfiCond18 Using cfiCommon0
        CFI (cfiCond18) NoFunction
        CFI (cfiCond18) Conditional ??CrossCallReturnLabel_0
        CFI (cfiCond18) R6 load(1, XDATA, add(CFA_XSP16, literal(-10)))
        CFI (cfiCond18) VB load(1, XDATA, add(CFA_XSP16, literal(-9)))
        CFI (cfiCond18) V0 load(1, XDATA, add(CFA_XSP16, literal(-8)))
        CFI (cfiCond18) V1 load(1, XDATA, add(CFA_XSP16, literal(-7)))
        CFI (cfiCond18) R7 load(1, XDATA, add(CFA_XSP16, literal(-6)))
        CFI (cfiCond18) ?RET_LOW load(1, XDATA, add(CFA_XSP16, literal(-5)))
        CFI (cfiCond18) ?RET_HIGH load(1, XDATA, add(CFA_XSP16, literal(-4)))
        CFI (cfiCond18) ?BRET_EXT load(1, XDATA, add(CFA_XSP16, literal(-3)))
        CFI (cfiCond18) DPL0 load(1, XDATA, add(CFA_XSP16, literal(-2)))
        CFI (cfiCond18) DPH0 load(1, XDATA, add(CFA_XSP16, literal(-1)))
        CFI (cfiCond18) CFA_SP SP+0
        CFI (cfiCond18) CFA_XSP16 add(XSP16, 12)
        CFI Block cfiCond19 Using cfiCommon0
        CFI (cfiCond19) NoFunction
        CFI (cfiCond19) Conditional ??CrossCallReturnLabel_1
        CFI (cfiCond19) R6 load(1, XDATA, add(CFA_XSP16, literal(-10)))
        CFI (cfiCond19) VB load(1, XDATA, add(CFA_XSP16, literal(-9)))
        CFI (cfiCond19) V0 load(1, XDATA, add(CFA_XSP16, literal(-8)))
        CFI (cfiCond19) V1 load(1, XDATA, add(CFA_XSP16, literal(-7)))
        CFI (cfiCond19) R7 load(1, XDATA, add(CFA_XSP16, literal(-6)))
        CFI (cfiCond19) ?RET_LOW load(1, XDATA, add(CFA_XSP16, literal(-5)))
        CFI (cfiCond19) ?RET_HIGH load(1, XDATA, add(CFA_XSP16, literal(-4)))
        CFI (cfiCond19) ?BRET_EXT load(1, XDATA, add(CFA_XSP16, literal(-3)))
        CFI (cfiCond19) DPL0 load(1, XDATA, add(CFA_XSP16, literal(-2)))
        CFI (cfiCond19) DPH0 load(1, XDATA, add(CFA_XSP16, literal(-1)))
        CFI (cfiCond19) CFA_SP SP+0
        CFI (cfiCond19) CFA_XSP16 add(XSP16, 12)
        CFI Block cfiPicker20 Using cfiCommon1
        CFI (cfiPicker20) NoFunction
        CFI (cfiPicker20) Picker
        LCALL   ??sim900a_send_cmd?relay
        MOV     A,#0x2
        RET
        CFI EndBlock cfiCond8
        CFI EndBlock cfiCond9
        CFI EndBlock cfiCond10
        CFI EndBlock cfiCond11
        CFI EndBlock cfiCond12
        CFI EndBlock cfiCond13
        CFI EndBlock cfiCond14
        CFI EndBlock cfiCond15
        CFI EndBlock cfiCond16
        CFI EndBlock cfiCond17
        CFI EndBlock cfiCond18
        CFI EndBlock cfiCond19
        CFI EndBlock cfiPicker20
//   74 

        RSEG BANKED_CODE:CODE:NOROOT(0)
//   75 void delay_ms(uint8 Time)//n ms延时
delay_ms:
        CFI Block cfiBlock21 Using cfiCommon0
        CFI Function delay_ms
        CODE
//   76 {
        FUNCALL delay_ms, Onboard_wait
        LOCFRAME ISTACK, 0, STACK
        LOCFRAME PSTACK, 0, STACK
        LOCFRAME XSTACK, 9, STACK
        LOCFRAME IOVERLAY, 0, STATIC
        LOCFRAME DOVERLAY, 0, STATIC
        ARGFRAME ISTACK, 0, STACK
        ARGFRAME PSTACK, 0, STACK
        ARGFRAME XSTACK, 9, STACK
        ARGFRAME IOVERLAY, 0, STATIC
        ARGFRAME DOVERLAY, 0, STATIC
        MOV     A,#-0x9
        LCALL   ?BANKED_ENTER_XDATA
        CFI DPH0 load(1, XDATA, add(CFA_XSP16, literal(-1)))
        CFI DPL0 load(1, XDATA, add(CFA_XSP16, literal(-2)))
        CFI ?BRET_EXT load(1, XDATA, add(CFA_XSP16, literal(-3)))
        CFI ?RET_HIGH load(1, XDATA, add(CFA_XSP16, literal(-4)))
        CFI ?RET_LOW load(1, XDATA, add(CFA_XSP16, literal(-5)))
        CFI R7 load(1, XDATA, add(CFA_XSP16, literal(-6)))
        CFI V0 load(1, XDATA, add(CFA_XSP16, literal(-7)))
        CFI VB load(1, XDATA, add(CFA_XSP16, literal(-8)))
        CFI R6 load(1, XDATA, add(CFA_XSP16, literal(-9)))
        CFI CFA_SP SP+0
        CFI CFA_XSP16 add(XSP16, 9)
        ; Saved register size: 9
        ; Auto size: 0
        MOV     A,R1
        MOV     R7,A
//   77   uint8 i;
//   78   while(Time--)
??delay_ms_0:
        MOV     ?V0 + 0,R7
        MOV     A,#-0x1
        ADD     A,?V0 + 0
        DEC     R7
        INC     A
        JZ      ??delay_ms_1
//   79   {
//   80     for(i=0;i<100;i++)
        MOV     R6,#0x64
//   81       MicroWait(10);
??delay_ms_2:
        ; Setup parameters for call to function Onboard_wait
        MOV     R2,#0xa
        MOV     R3,#0x0
        LCALL   ??Onboard_wait?relay
        DEC     R6
        MOV     A,R6
        JZ      ??delay_ms_0
        SJMP    ??delay_ms_2
//   82   }
//   83 }
??delay_ms_1:
        MOV     R7,#0x1
        LJMP    ?BANKED_LEAVE_XDATA
        CFI EndBlock cfiBlock21

        RSEG BANK_RELAYS:CODE:REORDER:NOROOT(0)
??sim900a_check_cmd?relay:
        LCALL   ?BDISPATCH
        DATA
        DC24    sim900a_check_cmd

        RSEG BANK_RELAYS:CODE:REORDER:NOROOT(0)
??sim900a_send_cmd?relay:
        LCALL   ?BDISPATCH
        DATA
        DC24    sim900a_send_cmd

        RSEG BANK_RELAYS:CODE:REORDER:NOROOT(0)
??sim900a_work_test?relay:
        LCALL   ?BDISPATCH
        DATA
        DC24    sim900a_work_test

        RSEG BANK_RELAYS:CODE:REORDER:NOROOT(0)
??sim900a_send_chmessage_shan?relay:
        LCALL   ?BDISPATCH
        DATA
        DC24    sim900a_send_chmessage_shan

        RSEG BANK_RELAYS:CODE:REORDER:NOROOT(0)
??delay_ms?relay:
        LCALL   ?BDISPATCH
        DATA
        DC24    delay_ms

        RSEG XDATA_ROM_C:CONST:REORDER:NOROOT(0)
        DATA8
`?<Constant "AT\\r\\n">`:
        DB "AT\015\012"

        RSEG XDATA_ROM_C:CONST:REORDER:NOROOT(0)
        DATA8
`?<Constant "OK">`:
        DB "OK"

        RSEG XDATA_ROM_C:CONST:REORDER:NOROOT(0)
        DATA8
`?<Constant "AT+CPIN?\\r\\n">`:
        DB "AT+CPIN?\015\012"

        RSEG XDATA_ROM_C:CONST:REORDER:NOROOT(0)
        DATA8
`?<Constant "READY">`:
        DB "READY"

        RSEG XDATA_ROM_C:CONST:REORDER:NOROOT(0)
        DATA8
`?<Constant "AT+CREG?\\r\\n">`:
        DB "AT+CREG?\015\012"

        RSEG XDATA_ROM_C:CONST:REORDER:NOROOT(0)
        DATA32
`?<Constant "0,1">`:
        DB "0,1"

        RSEG XDATA_ROM_C:CONST:REORDER:NOROOT(0)
        DATA32
`?<Constant "0,5">`:
        DB "0,5"

        RSEG XDATA_ROM_C:CONST:REORDER:NOROOT(0)
        DATA8
`?<Constant "AT+CSQ\\r\\n">`:
        DB "AT+CSQ\015\012"

        RSEG XDATA_ROM_C:CONST:REORDER:NOROOT(0)
        DATA8
`?<Constant "AT+CMGS=\\"%s\\"\\r\\n">`:
        DB "AT+CMGS=\"%s\"\015\012"

        RSEG XDATA_ROM_C:CONST:REORDER:NOROOT(0)
        DATA8
`?<Constant "AT+CMGF=1\\r\\n">`:
        DB "AT+CMGF=1\015\012"

        RSEG XDATA_ROM_C:CONST:REORDER:NOROOT(0)
        DATA8
`?<Constant "AT+CSCS=\\"UCS2\\"\\r\\n">`:
        DB "AT+CSCS=\"UCS2\"\015\012"

        RSEG XDATA_ROM_C:CONST:REORDER:NOROOT(0)
        DATA8
`?<Constant "AT+CSCA?\\r\\n">`:
        DB "AT+CSCA?\015\012"

        RSEG XDATA_ROM_C:CONST:REORDER:NOROOT(0)
        DATA8
`?<Constant "AT+CSMP=17,167,0,24\\r\\n">`:
        DB "AT+CSMP=17,167,0,24\015\012"

        RSEG XDATA_ROM_C:CONST:REORDER:NOROOT(0)
        DATA16
`?<Constant ">">`:
        DB ">"

        RSEG XDATA_ROM_C:CONST:REORDER:NOROOT(0)
        DATA8
`?<Constant "">`:
        DB ""

        RSEG XDATA_ROM_C:CONST:REORDER:NOROOT(0)
        DATA8
`?<Constant "+CMGS:">`:
        DB "+CMGS:"

        END
// 
// 639 bytes in segment BANKED_CODE
//  30 bytes in segment BANK_RELAYS
// 140 bytes in segment XDATA_ROM_C
//   4 bytes in segment XDATA_Z
// 
// 669 bytes of CODE  memory
// 140 bytes of CONST memory
//   4 bytes of XDATA memory
//
//Errors: none
//Warnings: none
